(dp1
S'pardon'
p2
(lp3
(S'pardon-01'
p4
I1
tp5
asS'yellow'
p6
(lp7
(S'yellow'
p8
I2
tp9
asS'four'
p10
(lp11
(S'4'
I5
tp12
a(S'NULL'
p13
I4
tp14
asS'sleep'
p15
(lp16
(S'sleep-01'
p17
I6
tp18
asS'railing'
p19
(lp20
(S'railing'
p21
I1
tp22
asS'saved'
p23
(lp24
(S'save-02'
p25
I1
tp26
asS'yonder'
p27
(lp28
(S'yonder'
p29
I1
tp30
asS'muzzle'
p31
(lp32
(S'muzzle'
p33
I3
tp34
a(S'thing_muzzle-01'
p35
I2
tp36
asS'sputtered'
p37
(lp38
(S'sputter-01'
p39
I1
tp40
asS'electricity'
p41
(lp42
(S'electricity'
p43
I1
tp44
asS'tippler'
p45
(lp46
(S'person_tipple-01'
p47
I9
tp48
asS'under'
p49
(lp50
(S'under'
p51
I7
tp52
asS'sorry'
p53
(lp54
(S'sorry-41'
p55
I2
tp56
asS'pride'
p57
(lp58
(S'pride'
p59
I1
tp60
asS'worth'
p61
(lp62
(g13
I1
tp63
a(S'worth'
p64
I1
tp65
asS'merchant'
p66
(lp67
(S'person_merchandise-01'
p68
I4
tp69
asS'risk'
p70
(lp71
(S'risk-01'
p72
I2
tp73
asS'oceans'
p74
(lp75
(S'ocean'
p76
I2
tp77
asS'every'
p78
(lp79
(g13
I8
tp80
a(S'every'
p81
I2
tp82
asS'bewildered'
p83
(lp84
(S'bewilder-01'
p85
I1
tp86
asS'scholar'
p87
(lp88
(S'scholar'
p89
I1
tp90
asS'relentlessly'
p91
(lp92
(S'relentless'
p93
I1
tp94
asS'mopped'
p95
(lp96
(S'mop-01'
p97
I1
tp98
asS'Go'
p99
(lp100
(S'go-02'
p101
I1
tp102
asS'ups'
p103
(lp104
(g13
I8
tp105
asS'veritable'
p106
(lp107
(S'veritable'
p108
I1
tp109
asS'monotonous'
p110
(lp111
(S'monotonous'
p112
I1
tp113
asS'tired'
p114
(lp115
(S'tire-01'
p116
I5
tp117
asS'hanging'
p118
(lp119
(S'hang-01'
p120
I1
tp121
asS'tires'
p122
(lp123
(S'tire-01'
p124
I1
tp125
asS'second'
p126
(lp127
(g13
I4
tp128
a(S'temporal-quantity_second'
p129
I1
tp130
asS'street'
p131
(lp132
(S'street'
p133
I4
tp134
asS'shrugging'
p135
(lp136
(S'shrug-01'
p137
I1
tp138
asS'lamplighters'
p139
(lp140
(S'lamp'
p141
I5
tp142
asS'even'
p143
(lp144
(S'even'
p145
I6
tp146
a(g13
I5
tp147
a(S'even-when'
p148
I1
tp149
a(S'even-if'
p150
I1
tp151
asS'rope'
p152
(lp153
(S'rope'
p154
I4
tp155
asS'voluminous'
p156
(lp157
(S'volume'
p158
I1
tp159
asS'thunder'
p160
(lp161
(S'thunder'
p162
I1
tp163
a(S'thunder-01'
p164
I1
tp165
asS'revolver'
p166
(lp167
(S'revolver'
p168
I1
tp169
asS'poison'
p170
(lp171
(S'poison-01'
p172
I1
tp173
a(S'poison'
p174
I1
tp175
asS'reasoning'
p176
(lp177
(S'reason-01'
p178
I1
tp179
asS'dejection'
p180
(lp181
(S'deject-01'
p182
I2
tp183
asS'lights'
p184
(lp185
(S'light'
p186
I2
tp187
a(S'light-01'
p188
I1
tp189
asS'above'
p190
(lp191
(S'above'
p192
I2
tp193
asS'new'
p194
(lp195
(S'new'
p196
I2
tp197
asS'ever'
p198
(lp199
(S'ever'
p200
I10
tp201
a(g13
I1
tp202
asS'reviving'
p203
(lp204
(S'revive-01'
p205
I1
tp206
asS'told'
p207
(lp208
(S'tell-01'
p209
I4
tp210
a(g13
I1
tp211
a(S'thing_tell-01'
p212
I1
tp213
asS'men'
p214
(lp215
(S'man'
p216
I16
tp217
asS'richest'
p218
(lp219
(S'rich_most'
p220
I1
tp221
asS'here'
p222
(lp223
(S'here'
p224
I14
tp225
a(g13
I2
tp226
asS'hundreds'
p227
(lp228
(g13
I1
tp229
asS'met'
p230
(lp231
(S'meet-03'
p232
I3
tp233
asS'resounded'
p234
(lp235
(S'resound-01'
p236
I1
tp237
asS'active'
p238
(lp239
(S'active'
p240
I3
tp241
asS'dry'
p242
(lp243
(S'dry'
p244
I1
tp245
asS'rests'
p246
(lp247
(S'rest-02'
p248
I1
tp249
asS'study'
p250
(lp251
(S'study'
p252
I1
tp253
asS'climbed'
p254
(lp255
(S'climb-01'
p256
I1
tp257
asS'permit'
p258
(lp259
(S'permit-01'
p260
I1
tp261
asS'changes'
p262
(lp263
(S'change-01'
p264
I2
tp265
asS'glittering'
p266
(lp267
(S'glitter-01'
p268
I1
tp269
asS'golden'
p270
(lp271
(S'golden'
p272
I3
tp273
a(S'gold'
p274
I3
tp275
asS'besides'
p276
(lp277
(g13
I2
tp278
asS'grumbled'
p279
(lp280
(S'grumble-01'
p281
I1
tp282
asS'Three'
p283
(lp284
(S'3'
I1
tp285
asS'strap'
p286
(lp287
(S'strap'
p288
I1
tp289
asS'brought'
p290
(lp291
(S'bring-01'
p292
I4
tp293
a(g13
I1
tp294
asS'moral'
p295
(lp296
(S'moral'
p297
I2
tp298
asS'glance'
p299
(lp300
(S'glance-01'
p301
I2
tp302
asS'landscape'
p303
(lp304
(S'landscape'
p305
I1
tp306
asS'spoke'
p307
(lp308
(S'speak-01'
p309
I4
tp310
asS'would'
p311
(lp312
(g13
I38
tp313
a(S'thing'
p314
I1
tp315
a(S'cause-01'
p316
I1
tp317
asS'army'
p318
(lp319
(S'army'
p320
I2
tp321
asS'bundles'
p322
(lp323
(S'bundle-01'
p324
I1
tp325
asS'arms'
p326
(lp327
(S'arm'
p328
I6
tp329
asS'seventy'
p330
(lp331
(g13
I1
tp332
asS'music'
p333
(lp334
(S'music'
p335
I3
tp336
asS'therefore'
p337
(lp338
(S'therefore'
p339
I1
tp340
asS'tell'
p341
(lp342
(S'tell-01'
p343
I9
tp344
asS'breathe'
p345
(lp346
(S'breathe-01'
p347
I1
tp348
asS'tolerated'
p349
(lp350
(S'tolerate-01'
p351
I1
tp352
asS'successful'
p353
(lp354
(S'successful'
p355
I1
tp356
asS'reign'
p357
(lp358
(S'reign-01'
p359
I1
tp360
asS'grief'
p361
(lp362
(S'grieve-01'
p363
I1
tp364
asS'glass'
p365
(lp366
(S'glass'
p367
I7
tp368
asS'inhabited'
p369
(lp370
(S'inhabit-01'
p371
I6
tp372
asS'must'
p373
(lp374
(g13
I8
tp375
a(S'obligate-01'
p376
I5
tp377
a(S'recommend-01'
p378
I1
tp379
asS'me'
p380
(lp381
(g13
I115
tp382
a(S'cause-01'
p383
I2
tp384
asS'Volcanic'
p385
(lp386
(S'volcano'
p387
I1
tp388
asS'word'
p389
(lp390
(S'word-01'
p391
I1
tp392
asS'wore'
p393
(lp394
(S'wear-01'
p395
I1
tp396
asS'work'
p397
(lp398
(S'work-01'
p399
I4
tp400
asS'plunged'
p401
(lp402
(g13
I1
tp403
asS'leaped'
p404
(lp405
(S'leap-03'
p406
I1
tp407
asS'my'
p408
(lp409
(g13
I105
tp410
a(S'contrast-01'
p411
I1
tp412
a(S'cause-01'
p413
I1
tp414
asS'example'
p415
(lp416
(g13
I5
tp417
asS'shook'
p418
(lp419
(S'shake-01'
p420
I1
tp421
asS'radiance'
p422
(lp423
(S'thing_radiate-01'
p424
I1
tp425
a(S'radiant'
p426
I1
tp427
a(S'radiate-01'
p428
I1
tp429
asS'give'
p430
(lp431
(g13
I2
tp432
a(S'give-01'
p433
I1
tp434
asS'laughs'
p435
(lp436
(S'laugh-01'
p437
I1
tp438
asS'honey'
p439
(lp440
(S'honey'
p441
I2
tp442
asS'want'
p443
(lp444
(S'want-01'
p445
I13
tp446
asS'weathervane'
p447
(lp448
(S'weathervane'
p449
I1
tp450
asS'hurrying'
p451
(lp452
(S'hurry-01'
p453
I1
tp454
asS'keep'
p455
(lp456
(S'keep-02'
p457
I1
tp458
a(g13
I1
tp459
asS'absolute'
p460
(lp461
(S'absolute'
p462
I2
tp463
asS'end'
p464
(lp465
(S'end-01'
p466
I3
tp467
a(S'end'
p468
I1
tp469
asS'turn'
p470
(lp471
(S'turn-01'
p472
I5
tp473
asS'inhabitants'
p474
(lp475
(S'person_inhabit-01'
p476
I1
tp477
asS'travel'
p478
(lp479
(S'travel-01'
p480
I2
tp481
asS'sitting'
p482
(lp483
(S'sit-01'
p484
I1
tp485
asS'how'
p486
(lp487
(g13
I15
tp488
asS'answer'
p489
(lp490
(S'answer-01'
p491
I8
tp492
a(S'answer'
p493
I1
tp494
asS'ordinary'
p495
(lp496
(S'ordinary'
p497
I3
tp498
asS'A'
(lp499
(g13
I10
tp500
asS'rise'
p501
(lp502
(g13
I1
tp503
asS'beauty'
p504
(lp505
(S'beauty'
p506
I3
tp507
asS'after'
p508
(lp509
(S'after'
p510
I5
tp511
asS'loyalty'
p512
(lp513
(S'loyal-41'
p514
I1
tp515
asS'wrong'
p516
(lp517
(S'wrong'
p518
I2
tp519
a(S'wrong-41'
p520
I2
tp521
asS'jumping'
p522
(lp523
(S'jump-03'
p524
I1
tp525
asS'lay'
p526
(lp527
(S'lie-01'
p528
I2
tp529
asS'curiosity'
p530
(lp531
(S'curious-41'
p532
I1
tp533
asS'twined'
p534
(lp535
(S'twine-01'
p536
I1
tp537
asS'All'
p538
(lp539
(S'all'
p540
I6
tp541
asS'splendid'
p542
(lp543
(S'splendid'
p544
I1
tp545
asS'third'
p546
(lp547
(g13
I2
tp548
asS'greet'
p549
(lp550
(S'greet-01'
p551
I1
tp552
asS'patent'
p553
(lp554
(S'patent-01'
p555
I1
tp556
asS'maintain'
p557
(lp558
(S'maintain-01'
p559
I1
tp560
asS'green'
p561
(lp562
(S'green'
p563
I1
tp564
asS'goodbye'
p565
(lp566
(S'goodbye'
p567
I1
tp568
asS'enter'
p569
(lp570
(S'enter-01'
p571
I1
tp572
asS'order'
p573
(lp574
(S'order-01'
p575
I8
tp576
a(g13
I2
tp577
a(S'order-00'
p578
I1
tp579
a(S'order'
p580
I1
tp581
asS'wind'
p582
(lp583
(S'wind'
p584
I6
tp585
asS'blind'
p586
(lp587
(S'blind-01'
p588
I1
tp589
asS'sprout'
p590
(lp591
(S'sprout'
p592
I1
tp593
asS'over'
p594
(lp595
(g13
I15
tp596
a(S'over'
p597
I1
tp598
a(S'over-and-over'
p599
I1
tp600
asS'satisfied'
p601
(lp602
(S'satisfy-01'
p603
I4
tp604
asS'presence'
p605
(lp606
(g13
I1
tp607
a(S'present'
p608
I1
tp609
asS'clapped'
p610
(lp611
(S'clap-01'
p612
I1
tp613
asS'before'
p614
(lp615
(S'before'
p616
I10
tp617
asS'beside'
p618
(lp619
(S'beside'
p620
I2
tp621
asS'His'
p622
(lp623
(g13
I4
tp624
asS'majestically'
p625
(lp626
(S'majesty'
p627
I1
tp628
asS'somewhere'
p629
(lp630
(S'somewhere'
p631
I3
tp632
a(g13
I1
tp633
asS','
(lp634
(g13
I814
tp635
asS'Here'
p636
(lp637
(S'here'
p638
I3
tp639
a(g13
I2
tp640
asS'better'
p641
(lp642
(S'good'
p643
I3
tp644
a(S'well'
p645
I1
tp646
asS'overcome'
p647
(lp648
(S'overcome-01'
p649
I1
tp650
asS'sheltered'
p651
(lp652
(S'shelter-01'
p653
I1
tp654
asS'then'
p655
(lp656
(S'then'
p657
I13
tp658
a(g13
I11
tp659
asS'them'
p660
(lp661
(g13
I45
tp662
asS'Computations'
p663
(lp664
(S'thing_compute-01'
p665
I1
tp666
asS'confuse'
p667
(lp668
(S'confuse-01'
p669
I1
tp670
asS'recollections'
p671
(lp672
(g13
I1
tp673
asS'they'
p674
(lp675
(g13
I28
tp676
a(S'they'
p677
I27
tp678
asS'yourself'
p679
(lp680
(g13
I2
tp681
asS'bank'
p682
(lp683
(S'bank'
p684
I1
tp685
asS'bread'
p686
(lp687
(S'bread'
p688
I1
tp689
asS'arrested'
p690
(lp691
(S'arrest-02'
p692
I1
tp693
asS'rocks'
p694
(lp695
(S'rock'
p696
I1
tp697
asS'good'
p698
(lp699
(S'good'
p700
I12
tp701
a(S'good-42'
p702
I5
tp703
asS'reasonable'
p704
(lp705
(S'reasonable'
p706
I3
tp707
a(S'reason-01'
p708
I1
tp709
asS'each'
p710
(lp711
(S'each'
p712
I4
tp713
a(g13
I1
tp714
asS'volcano'
p715
(lp716
(S'volcano'
p717
I3
tp718
asS'went'
p719
(lp720
(S'go-25'
p721
I5
tp722
a(S'go-02'
p723
I4
tp724
a(S'go-01'
p725
I2
tp726
a(S'go-23'
p727
I1
tp728
a(S'go-06'
p729
I1
tp730
a(S'go-03'
p731
I1
tp732
asS'side'
p733
(lp734
(S'side'
p735
I2
tp736
asS'Millions'
p737
(lp738
(g13
I2
tp739
asS'snakes'
p740
(lp741
(S'snake'
p742
I2
tp743
asS'unscrew'
p744
(lp745
(S'unscrew-01'
p746
I1
tp747
asS'forgot'
p748
(lp749
(S'forget-01'
p750
I3
tp751
asS'flock'
p752
(lp753
(S'flock-02'
p754
I1
tp755
asS'forty'
p756
(lp757
(g13
I1
tp758
asS'content'
p759
(lp760
(S'content-01'
p761
I2
tp762
asS'remorse'
p763
(lp764
(S'remorse'
p765
I1
tp766
asS'got'
p767
(lp768
(g13
I2
tp769
a(S'get-05'
p770
I1
tp771
a(S'get-08'
p772
I1
tp773
asS'engineer'
p774
(lp775
(S'person_engineer-01'
p776
I1
tp777
asS'grease'
p778
(lp779
(S'grease'
p780
I1
tp781
asS'turning'
p782
(lp783
(S'turn-01'
p784
I1
tp785
asS'eternal'
p786
(lp787
(S'eternal'
p788
I1
tp789
asS'given'
p790
(lp791
(S'give-01'
p792
I2
tp793
asS'free'
p794
(lp795
(S'free-01'
p796
I1
tp797
asS'untruth'
p798
(lp799
(S'truth_-'
p800
I1
tp801
asS'wanted'
p802
(lp803
(S'want-01'
p804
I3
tp805
asS'days'
p806
(lp807
(S'day'
p808
I3
tp809
a(S'temporal-quantity_day'
p810
I2
tp811
a(g13
I1
tp812
asS'disturbed'
p813
(lp814
(S'disturb-01'
p815
I4
tp816
asS'speedy'
p817
(lp818
(S'speed'
p819
I2
tp820
asS'moving'
p821
(lp822
(S'move-05'
p823
I1
tp824
asS'caught'
p825
(lp826
(S'catch-03'
p827
I1
tp828
asS'size'
p829
(lp830
(S'size-01'
p831
I1
tp832
asS'already'
p833
(lp834
(S'already'
p835
I8
tp836
asS'reassure'
p837
(lp838
(S'reassure-01'
p839
I2
tp840
asS'comforted'
p841
(lp842
(S'comfort-01'
p843
I3
tp844
asS'hearing'
p845
(lp846
(S'hear-01'
p847
I1
tp848
asS'another'
p849
(lp850
(S'another'
p851
I3
tp852
asS'top'
p853
(lp854
(S'top'
p855
I1
tp856
asS'girls'
p857
(lp858
(S'girl'
p859
I1
tp860
asS'master'
p861
(lp862
(S'master'
p863
I1
tp864
asS'too'
p865
(lp866
(S'too'
p867
I26
tp868
a(g13
I2
tp869
asS'listen'
p870
(lp871
(S'listen-01'
p872
I3
tp873
asS'took'
p874
(lp875
(S'take-01'
p876
I7
tp877
a(S'take-13'
p878
I2
tp879
a(g13
I1
tp880
a(S'take-23'
p881
I1
tp882
asS'wisdom'
p883
(lp884
(g13
I1
tp885
asS'motionless'
p886
(lp887
(g13
I1
tp888
asS'somewhat'
p889
(lp890
(S'somewhat'
p891
I1
tp892
asS'wasted'
p893
(lp894
(S'waste-01'
p895
I2
tp896
asS'begins'
p897
(lp898
(S'begin-01'
p899
I1
tp900
asS'distance'
p901
(lp902
(S'distance'
p903
I1
tp904
a(S'distance-01'
p905
I1
tp906
a(S'distant'
p907
I1
tp908
asS'showed'
p909
(lp910
(S'show-01'
p911
I2
tp912
asS'tree'
p913
(lp914
(S'tree'
p915
I3
tp916
asS'rusty'
p917
(lp918
(S'rust'
p919
I1
tp920
asS'seated'
p921
(lp922
(S'seat-01'
p923
I1
tp924
asS'matter'
p925
(lp926
(S'matter'
p927
I2
tp928
a(g13
I2
tp929
a(S'matter-01'
p930
I1
tp931
asS'idle'
p932
(lp933
(S'idle-01'
p934
I1
tp935
a(S'idle'
p936
I1
tp937
asS'exclaimed'
p938
(lp939
(S'exclaim-01'
p940
I3
tp941
asS'silly'
p942
(lp943
(S'silly'
p944
I1
tp945
asS'speaking'
p946
(lp947
(S'speak-01'
p948
I1
tp949
asS'rag'
p950
(lp951
(S'rag'
p952
I1
tp953
asS'acclaim'
p954
(lp955
(S'acclaim-01'
p956
I1
tp957
asS'sees'
p958
(lp959
(S'see-01'
p960
I3
tp961
asS'handkerchief'
p962
(lp963
(S'handkerchief'
p964
I1
tp965
asS'quench'
p966
(lp967
(S'quench-01'
p968
I1
tp969
asS'talking'
p970
(lp971
(S'talk-01'
p972
I4
tp973
asS'rat'
p974
(lp975
(S'rat'
p976
I2
tp977
asS'seed'
p978
(lp979
(S'seed'
p980
I2
tp981
asS'seen'
p982
(lp983
(S'see-01'
p984
I7
tp985
asS'seem'
p986
(lp987
(S'seem-01'
p988
I1
tp989
a(g13
I1
tp990
asS'dared'
p991
(lp992
(S'dare-01'
p993
I1
tp994
asS'seek'
p995
(lp996
(S'seek-01'
p997
I1
tp998
asS'forced'
p999
(lp1000
(S'force-01'
p1001
I1
tp1002
asS'regretting'
p1003
(lp1004
(S'regret-01'
p1005
I1
tp1006
asS'thoroughly'
p1007
(lp1008
(S'thorough'
p1009
I1
tp1010
asS'responsible'
p1011
(lp1012
(S'responsible-41'
p1013
I6
tp1014
asS'-'
(lp1015
(g13
I246
tp1016
asS'snow'
p1017
(lp1018
(S'snow'
p1019
I1
tp1020
a(S'thing_snow-01'
p1021
I1
tp1022
asS'metallic'
p1023
(lp1024
(S'metallic'
p1025
I1
tp1026
asS'subjects'
p1027
(lp1028
(S'subject'
p1029
I1
tp1030
asS'amusing'
p1031
(lp1032
(S'amuse-01'
p1033
I1
tp1034
asS'They'
p1035
(lp1036
(S'they'
p1037
I22
tp1038
asS'laughed'
p1039
(lp1040
(S'laugh-01'
p1041
I9
tp1042
asS'Ask'
p1043
(lp1044
(S'ask-01'
p1045
I1
tp1046
asS'geographers'
p1047
(lp1048
(S'geographer'
p1049
I1
tp1050
asS'explanation'
p1051
(lp1052
(S'explain-01'
p1053
I2
tp1054
asS'nobody'
p1055
(lp1056
(S'nobody'
p1057
I7
tp1058
a(g13
I1
tp1059
asS'shall'
p1060
(lp1061
(g13
I31
tp1062
asS'object'
p1063
(lp1064
(S'object'
p1065
I1
tp1066
asS'wells'
p1067
(lp1068
(S'well'
p1069
I3
tp1070
asS'mouth'
p1071
(lp1072
(S'mouth'
p1073
I1
tp1074
asS'coil'
p1075
(lp1076
(S'coil'
p1077
I1
tp1078
asS'Twelve'
p1079
(lp1080
(g13
I1
tp1081
asS'flow'
p1082
(lp1083
(S'flow-01'
p1084
I1
tp1085
asS'reputation'
p1086
(lp1087
(S'reputation'
p1088
I1
tp1089
asS'sun'
p1090
(lp1091
(S'sun'
p1092
I3
tp1093
asS'breathed'
p1094
(lp1095
(S'breathe-02'
p1096
I1
tp1097
a(S'breathe-01'
p1098
I1
tp1099
asS'entertaining'
p1100
(lp1101
(S'entertain-01'
p1102
I2
tp1103
asS'Its'
p1104
(lp1105
(S'it'
p1106
I1
tp1107
asS'came'
p1108
(lp1109
(S'come-01'
p1110
I11
tp1111
a(g13
I3
tp1112
a(S'come-04'
p1113
I1
tp1114
asS'marvel'
p1115
(lp1116
(S'marvel-01'
p1117
I1
tp1118
asS'saying'
p1119
(lp1120
(S'say-01'
p1121
I4
tp1122
asS'alight'
p1123
(lp1124
(g13
I2
tp1125
asS'random'
p1126
(lp1127
(S'random'
p1128
I1
tp1129
asS'fingers'
p1130
(lp1131
(S'finger'
p1132
I1
tp1133
asS'respectfully'
p1134
(lp1135
(S'respect-01'
p1136
I1
tp1137
asS'queer'
p1138
(lp1139
(S'queer'
p1140
I3
tp1141
asS'earth'
p1142
(lp1143
(S'earth'
p1144
I3
tp1145
asS'sunsets'
p1146
(lp1147
(S'sunset'
p1148
I2
tp1149
asS'busy'
p1150
(lp1151
(S'busy'
p1152
I4
tp1153
asS'proposed'
p1154
(lp1155
(S'propose-01'
p1156
I1
tp1157
asS'spite'
p1158
(lp1159
(g13
I1
tp1160
a(S'spite'
p1161
I1
tp1162
asS'judged'
p1163
(lp1164
(S'judge-01'
p1165
I1
tp1166
asS'rich'
p1167
(lp1168
(S'rich'
p1169
I3
tp1170
asS'pursuing'
p1171
(lp1172
(S'pursue-01'
p1173
I2
tp1174
asS'pocked'
p1175
(lp1176
(S'pocket'
p1177
I1
tp1178
asS'do'
p1179
(lp1180
(g13
I44
tp1181
a(S'do-02'
p1182
I15
tp1183
a(S'say-01'
p1184
I2
tp1185
a(S'thing_do-02'
p1186
I1
tp1187
asS'wide'
p1188
(lp1189
(S'wide'
p1190
I1
tp1191
asS'Nevertheless'
p1192
(lp1193
(g13
I1
tp1194
a(S'have-concession-91'
p1195
I1
tp1196
asS'stop'
p1197
(lp1198
(S'stop-01'
p1199
I2
tp1200
asS'leisure'
p1201
(lp1202
(S'leisure'
p1203
I2
tp1204
asS'Leave'
p1205
(lp1206
(S'leave-02'
p1207
I1
tp1208
asS'altogether'
p1209
(lp1210
(S'altogether'
p1211
I5
tp1212
asS'headlong'
p1213
(lp1214
(S'headlong'
p1215
I1
tp1216
asS'runs'
p1217
(lp1218
(g13
I1
tp1219
asS'fields'
p1220
(lp1221
(S'field'
p1222
I3
tp1223
asS'Over'
p1224
(lp1225
(S'over'
p1226
I3
tp1227
a(g13
I2
tp1228
asS'guns'
p1229
(lp1230
(S'gun'
p1231
I1
tp1232
asS'twice'
p1233
(lp1234
(g13
I1
tp1235
asS'bad'
p1236
(lp1237
(S'bad'
p1238
I3
tp1239
a(S'bad-42'
p1240
I1
tp1241
asS'softly'
p1242
(lp1243
(S'soft'
p1244
I1
tp1245
asS'abodes'
p1246
(lp1247
(S'abode'
p1248
I1
tp1249
asS'ears'
p1250
(lp1251
(S'ear'
p1252
I1
tp1253
a(g13
I1
tp1254
asS'disaster'
p1255
(lp1256
(S'disaster'
p1257
I1
tp1258
asS'fair'
p1259
(lp1260
(S'fair'
p1261
I1
tp1262
asS'decided'
p1263
(lp1264
(S'decide-01'
p1265
I1
tp1266
asS'disturbing'
p1267
(lp1268
(S'disturb-01'
p1269
I1
tp1270
asS'hammer'
p1271
(lp1272
(S'hammer'
p1273
I3
tp1274
asS'best'
p1275
(lp1276
(S'good_most'
p1277
I1
tp1278
a(S'well_most'
p1279
I1
tp1280
asS'subject'
p1281
(lp1282
(S'subject'
p1283
I2
tp1284
asS'said'
p1285
(lp1286
(S'say-01'
p1287
I178
tp1288
asS'away'
p1289
(lp1290
(S'away'
p1291
I13
tp1292
a(g13
I6
tp1293
asS'gentleman'
p1294
(lp1295
(S'gentleman'
p1296
I5
tp1297
asS'rushing'
p1298
(lp1299
(S'rush-01'
p1300
I1
tp1301
asS'Water'
p1302
(lp1303
(S'water'
p1304
I1
tp1305
asS'finger'
p1306
(lp1307
(S'finger'
p1308
I2
tp1309
asS'drawn'
p1310
(lp1311
(S'draw-01'
p1312
I1
tp1313
asS'sorts'
p1314
(lp1315
(S'sort'
p1316
I1
tp1317
asS'discovery'
p1318
(lp1319
(S'discover-01'
p1320
I1
tp1321
a(S'thing_discover-01'
p1322
I1
tp1323
asS'claws'
p1324
(lp1325
(S'claw'
p1326
I2
tp1327
a(S'claws'
p1328
I1
tp1329
asS'lazy'
p1330
(lp1331
(S'lazy'
p1332
I2
tp1333
asS'never'
p1334
(lp1335
(g13
I30
tp1336
asS'smelled'
p1337
(lp1338
(S'smell-01'
p1339
I1
tp1340
asS'weak'
p1341
(lp1342
(S'weak'
p1343
I2
tp1344
a(S'weak-41'
p1345
I1
tp1346
asS'however'
p1347
(lp1348
(S'contrast-01'
p1349
I2
tp1350
asS'stared'
p1351
(lp1352
(S'stare-01'
p1353
I1
tp1354
asS'drew'
p1355
(lp1356
(S'draw-01'
p1357
I1
tp1358
a(g13
I1
tp1359
asS'Yours'
p1360
(lp1361
(g13
I1
tp1362
asS'pity'
p1363
(lp1364
(S'pity-01'
p1365
I2
tp1366
asS'received'
p1367
(lp1368
(S'receive-01'
p1369
I2
tp1370
asS'protect'
p1371
(lp1372
(S'protect-01'
p1373
I1
tp1374
asS'accident'
p1375
(lp1376
(S'accident'
p1377
I1
tp1378
asS'fault'
p1379
(lp1380
(S'fault-01'
p1381
I3
tp1382
a(S'fault'
p1383
I1
tp1384
asS'7,500,000'
p1385
(lp1386
(g13
I1
tp1387
asS'heating'
p1388
(lp1389
(S'heat-01'
p1390
I1
tp1391
asS'demanded'
p1392
(lp1393
(S'demand-01'
p1394
I9
tp1395
asS'receives'
p1396
(lp1397
(S'receive-01'
p1398
I1
tp1399
asS'faces'
p1400
(lp1401
(S'face'
p1402
I1
tp1403
asS'asked'
p1404
(lp1405
(S'ask-01'
p1406
I20
tp1407
asS'peacefully'
p1408
(lp1409
(S'peaceful'
p1410
I1
tp1411
asS'vexed'
p1412
(lp1413
(S'vex-01'
p1414
I1
tp1415
asS'appeared'
p1416
(lp1417
(S'appear-01'
p1418
I2
tp1419
asS'character'
p1420
(lp1421
(S'character'
p1422
I2
tp1423
asS'majestic'
p1424
(lp1425
(S'majesty'
p1426
I1
tp1427
asS'springs'
p1428
(lp1429
(S'spring'
p1430
I1
tp1431
asS'speak'
p1432
(lp1433
(S'speak-01'
p1434
I2
tp1435
asS'asks'
p1436
(lp1437
(S'ask-01'
p1438
I1
tp1439
asS'three'
p1440
(lp1441
(S'3'
I11
tp1442
a(g13
I4
tp1443
asS'been'
p1444
(lp1445
(g13
I24
tp1446
asS'quickly'
p1447
(lp1448
(S'quick'
p1449
I2
tp1450
asS'much'
p1451
(lp1452
(S'much'
p1453
I22
tp1454
a(g13
I1
tp1455
asS'interest'
p1456
(lp1457
(S'interest-01'
p1458
I1
tp1459
asS'Flowers'
p1460
(lp1461
(S'flower'
p1462
I3
tp1463
asS'life'
p1464
(lp1465
(g13
I10
tp1466
a(S'life'
p1467
I4
tp1468
asS'mushroom'
p1469
(lp1470
(S'mushroom'
p1471
I2
tp1472
asS'sunshine'
p1473
(lp1474
(S'sunshine'
p1475
I2
tp1476
asS'child'
p1477
(lp1478
(S'child'
p1479
I1
tp1480
asS'catch'
p1481
(lp1482
(S'catch-01'
p1483
I1
tp1484
asS'sad'
p1485
(lp1486
(S'sad'
p1487
I5
tp1488
asS'has'
p1489
(lp1490
(g13
I19
tp1491
a(S'have-03'
p1492
I6
tp1493
a(S'and'
p1494
I1
tp1495
a(S'possible'
p1496
I1
tp1497
asS'air'
p1498
(lp1499
(S'air'
p1500
I3
tp1501
a(g13
I2
tp1502
asS'puzzled'
p1503
(lp1504
(S'puzzle-01'
p1505
I1
tp1506
asS'near'
p1507
(lp1508
(S'near-01'
p1509
I1
tp1510
a(S'near'
p1511
I1
tp1512
asS'suppose'
p1513
(lp1514
(S'suppose-01'
p1515
I1
tp1516
asS'voice'
p1517
(lp1518
(S'voice'
p1519
I2
tp1520
asS'mistake'
p1521
(lp1522
(S'mistake-01'
p1523
I1
tp1524
asS'seven'
p1525
(lp1526
(S'7'
I4
tp1527
a(g13
I2
tp1528
asS'changed'
p1529
(lp1530
(S'change-01'
p1531
I4
tp1532
asS'played'
p1533
(lp1534
(g13
I1
tp1535
asS'is'
p1536
(lp1537
(g13
I225
tp1538
asS'it'
p1539
(lp1540
(g13
I75
tp1541
a(S'it'
p1542
I40
tp1543
a(S'and'
p1544
I1
tp1545
a(S'cause-01'
p1546
I1
tp1547
asS'lugubrious'
p1548
(lp1549
(S'lugubrious'
p1550
I1
tp1551
asS'experts'
p1552
(lp1553
(S'person_expert-41'
p1554
I1
tp1555
asS'in'
p1556
(lp1557
(g13
I124
tp1558
a(S'have-purpose-91'
p1559
I1
tp1560
a(S'contrast-01'
p1561
I1
tp1562
a(S'opine-01'
p1563
I1
tp1564
asS'if'
p1565
(lp1566
(g13
I36
tp1567
a(S'cause-01'
p1568
I3
tp1569
asS'grown'
p1570
(lp1571
(S'grown-up'
p1572
I9
tp1573
asS'bottles'
p1574
(lp1575
(S'bottle'
p1576
I2
tp1577
asS'descent'
p1578
(lp1579
(S'descend-01'
p1580
I1
tp1581
asS'perform'
p1582
(lp1583
(S'perform-01'
p1584
I1
tp1585
asS'saw'
p1586
(lp1587
(S'see-01'
p1588
I9
tp1589
asS'make'
p1590
(lp1591
(g13
I10
tp1592
a(S'make-02'
p1593
I5
tp1594
a(S'make-01'
p1595
I3
tp1596
a(S'thing_make-02'
p1597
I1
tp1598
a(S'make-06'
p1599
I1
tp1600
a(S'make-07'
p1601
I1
tp1602
asS'any'
p1603
(lp1604
(S'any'
p1605
I18
tp1606
a(g13
I10
tp1607
a(S'person_any'
p1608
I1
tp1609
asS'forehead'
p1610
(lp1611
(S'forehead'
p1612
I2
tp1613
asS'complex'
p1614
(lp1615
(S'complex'
p1616
I1
tp1617
asS'patient'
p1618
(lp1619
(S'patient-41'
p1620
I1
tp1621
asS'consumingly'
p1622
(lp1623
(g13
I1
tp1624
asS'big'
p1625
(lp1626
(S'big'
p1627
I3
tp1628
asS'monarch'
p1629
(lp1630
(S'monarch'
p1631
I3
tp1632
asS'several'
p1633
(lp1634
(S'several'
p1635
I2
tp1636
asS'grows'
p1637
(lp1638
(S'grow-01'
p1639
I2
tp1640
asS'bells'
p1641
(lp1642
(S'bell'
p1643
I4
tp1644
asS'peaks'
p1645
(lp1646
(S'peak'
p1647
I1
tp1648
asS'swell'
p1649
(lp1650
(S'swell-01'
p1651
I1
tp1652
asS'hand'
p1653
(lp1654
(S'hand'
p1655
I2
tp1656
a(S'hand-in-hand'
p1657
I1
tp1658
a(g13
I1
tp1659
asS'insisted'
p1660
(lp1661
(S'insist-01'
p1662
I2
tp1663
asS'thoughts'
p1664
(lp1665
(g13
I1
tp1666
asS'settled'
p1667
(lp1668
(S'settle-03'
p1669
I1
tp1670
asS'possessed'
p1671
(lp1672
(S'possess-01'
p1673
I1
tp1674
asS'humble'
p1675
(lp1676
(S'humble-01'
p1677
I1
tp1678
asS'Mine'
p1679
(lp1680
(g13
I1
tp1681
asS'echoed'
p1682
(lp1683
(S'echo-01'
p1684
I1
tp1685
asS'ocean'
p1686
(lp1687
(S'ocean'
p1688
I1
tp1689
asS'greatest'
p1690
(lp1691
(S'great_most'
p1692
I1
tp1693
asS'the'
p1694
(lp1695
(g13
I721
tp1696
asS'yours'
p1697
(lp1698
(g13
I5
tp1699
asS'left'
p1700
(lp1701
(S'leave-01'
p1702
I2
tp1703
a(S'leave-06'
p1704
I1
tp1705
a(S'left'
p1706
I1
tp1707
asS'etiquette'
p1708
(lp1709
(S'etiquette'
p1710
I1
tp1711
asS'just'
p1712
(lp1713
(S'just'
p1714
I23
tp1715
a(g13
I4
tp1716
asS'ephemeral'
p1717
(lp1718
(S'ephemeral'
p1719
I5
tp1720
asS'forsaken'
p1721
(lp1722
(S'forsake-01'
p1723
I1
tp1724
asS'repose'
p1725
(lp1726
(S'repose-01'
p1727
I1
tp1728
asS'farther'
p1729
(lp1730
(S'far'
p1731
I3
tp1732
asS'yes'
p1733
(lp1734
(S'yes'
p1735
I2
tp1736
a(g13
I2
tp1737
asS'FIfteen'
p1738
(lp1739
(g13
I1
tp1740
asS'yet'
p1741
(lp1742
(g13
I3
tp1743
a(S'yet'
p1744
I3
tp1745
asS'mix'
p1746
(lp1747
(S'mix-02'
p1748
I1
tp1749
asS'royal'
p1750
(lp1751
(S'royal'
p1752
I1
tp1753
asS'insubordination'
p1754
(lp1755
(S'insubordinate-00'
p1756
I1
tp1757
asS'belongs'
p1758
(lp1759
(S'belong-01'
p1760
I3
tp1761
asS'Surely'
p1762
(lp1763
(S'sure'
p1764
I1
tp1765
asS'innocent'
p1766
(lp1767
(S'innocence'
p1768
I1
tp1769
asS'strolling'
p1770
(lp1771
(S'stroll-01'
p1772
I1
tp1773
asS'save'
p1774
(lp1775
(g13
I1
tp1776
a(S'save-03'
p1777
I1
tp1778
a(S'save-01'
p1779
I1
tp1780
asS'hat'
p1781
(lp1782
(S'hat'
p1783
I5
tp1784
asS'humanity'
p1785
(lp1786
(S'humanity'
p1787
I1
tp1788
asS'gave'
p1789
(lp1790
(S'give-01'
p1791
I2
tp1792
a(S'thing_give-01'
p1793
I1
tp1794
asS'abashed'
p1795
(lp1796
(S'abash-01'
p1797
I2
tp1798
asS'boasted'
p1799
(lp1800
(S'boast-01'
p1801
I1
tp1802
asS'advances'
p1803
(lp1804
(S'advance-01'
p1805
I1
tp1806
asS'possible'
p1807
(lp1808
(S'possible'
p1809
I5
tp1810
asS'constrictors'
p1811
(lp1812
(g13
I2
tp1813
asS'Try'
p1814
(lp1815
(S'try-01'
p1816
I2
tp1817
asS'suffering'
p1818
(lp1819
(S'suffer-01'
p1820
I1
tp1821
asS'judge'
p1822
(lp1823
(S'judge-01'
p1824
I6
tp1825
asS'New Zealand'
p1826
(lp1827
(S'country_name_"New"_"Zealand"'
p1828
I1
tp1829
asS'unique'
p1830
(lp1831
(S'unique'
p1832
I6
tp1833
asS'vanity'
p1834
(lp1835
(S'vanity'
p1836
I1
tp1837
asS'sorrows'
p1838
(lp1839
(g13
I1
tp1840
asS'hunt'
p1841
(lp1842
(S'hunt-01'
p1843
I3
tp1844
asS'unnecessary'
p1845
(lp1846
(S'need-01'
p1847
I1
tp1848
asS'steps'
p1849
(lp1850
(S'step-01'
p1851
I1
tp1852
a(S'step'
p1853
I1
tp1854
asS'Are'
p1855
(lp1856
(g13
I5
tp1857
a(S'be-located-at-91'
p1858
I1
tp1859
asS'night'
p1860
(lp1861
(S'night'
p1862
I13
tp1863
asS'Again'
p1864
(lp1865
(S'again'
p1866
I1
tp1867
asS'right'
p1868
(lp1869
(S'right'
p1870
I5
tp1871
a(g13
I2
tp1872
asS'old'
p1873
(lp1874
(S'old'
p1875
I14
tp1876
asS'deal'
p1877
(lp1878
(S'deal-01'
p1879
I1
tp1880
a(S'deal'
p1881
I1
tp1882
asS'people'
p1883
(lp1884
(g13
I10
tp1885
a(S'people-01'
p1886
I1
tp1887
a(S'be-located-at-91'
p1888
I1
tp1889
asS'sends'
p1890
(lp1891
(S'send-02'
p1892
I1
tp1893
asS'dead'
p1894
(lp1895
(g13
I1
tp1896
asS'born'
p1897
(lp1898
(S'bear-02'
p1899
I3
tp1900
asS'Bees'
p1901
(lp1902
(S'bee'
p1903
I1
tp1904
asS'escape'
p1905
(lp1906
(S'escape-01'
p1907
I1
tp1908
asS'dear'
p1909
(lp1910
(S'dear'
p1911
I2
tp1912
asS'for'
p1913
(lp1914
(g13
I96
tp1915
asS'purple'
p1916
(lp1917
(S'purple'
p1918
I1
tp1919
asS'companions'
p1920
(lp1921
(S'companion'
p1922
I1
tp1923
asS'fox'
p1924
(lp1925
(S'fox'
p1926
I35
tp1927
asS'plucked'
p1928
(lp1929
(S'pluck-01'
p1930
I1
tp1931
asS'everything'
p1932
(lp1933
(S'everything'
p1934
I6
tp1935
asS'asking'
p1936
(lp1937
(S'ask-01'
p1938
I1
tp1939
asS'Let'
p1940
(lp1941
(g13
I2
tp1942
a(S'allow-01'
p1943
I1
tp1944
asS'beating'
p1945
(lp1946
(S'beat-01'
p1947
I1
tp1948
asS'He'
p1949
(lp1950
(S'he'
p1951
I63
tp1952
asS'burn'
p1953
(lp1954
(S'burn-01'
p1955
I1
tp1956
asS'disappeared'
p1957
(lp1958
(S'disappear-01'
p1959
I2
tp1960
asS'North America'
p1961
(lp1962
(S'continent_name_"North"_"America"'
p1963
I1
tp1964
asS'lamps'
p1965
(lp1966
(S'lamp'
p1967
I2
tp1968
asS'bolt'
p1969
(lp1970
(S'bolt'
p1971
I4
tp1972
asS'poppies'
p1973
(lp1974
(S'poppy'
p1975
I1
tp1976
asS'Think'
p1977
(lp1978
(S'think-01'
p1979
I1
tp1980
asS'First'
p1981
(lp1982
(S'first'
p1983
I2
tp1984
asS'afternoon'
p1985
(lp1986
(S'afternoon'
p1987
I1
tp1988
asS'steadily'
p1989
(lp1990
(S'steady'
p1991
I2
tp1992
asS'slightly'
p1993
(lp1994
(S'slight'
p1995
I2
tp1996
asS'raised'
p1997
(lp1998
(S'raise-01'
p1999
I5
tp2000
asS'mantle'
p2001
(lp2002
(S'mantle'
p2003
I1
tp2004
asS'profession'
p2005
(lp2006
(S'profession'
p2007
I2
tp2008
asS'Little'
p2009
(lp2010
(S'little'
p2011
I4
tp2012
asS'administer'
p2013
(lp2014
(S'administer-01'
p2015
I1
tp2016
asS'lies'
p2017
(lp2018
(S'lie-02'
p2019
I1
tp2020
asS'shoots'
p2021
(lp2022
(S'shoot'
p2023
I1
tp2024
asS'frightened'
p2025
(lp2026
(S'frighten-01'
p2027
I1
tp2028
asS'waits'
p2029
(lp2030
(S'wait-01'
p2031
I1
tp2032
asS'sunlight'
p2033
(lp2034
(S'sunlight'
p2035
I1
tp2036
asS'tame'
p2037
(lp2038
(S'tame-01'
p2039
I9
tp2040
asS'stuck'
p2041
(lp2042
(S'stick-01'
p2043
I1
tp2044
asS'way'
p2045
(lp2046
(S'way'
p2047
I6
tp2048
a(g13
I3
tp2049
asS'obliged'
p2050
(lp2051
(S'oblige-02'
p2052
I1
tp2053
asS'call'
p2054
(lp2055
(S'call-03'
p2056
I1
tp2057
a(S'call-05'
p2058
I1
tp2059
asS'was'
p2060
(lp2061
(g13
I150
tp2062
a(S'resemble-01'
p2063
I1
tp2064
asS'happy'
p2065
(lp2066
(S'happy'
p2067
I9
tp2068
asS'head'
p2069
(lp2070
(S'head'
p2071
I5
tp2072
asS'form'
p2073
(lp2074
(g13
I1
tp2075
asS'magnificent'
p2076
(lp2077
(S'magnificent'
p2078
I3
tp2079
a(S'magnificence'
p2080
I2
tp2081
asS'tigers'
p2082
(lp2083
(S'tiger'
p2084
I4
tp2085
asS'taken'
p2086
(lp2087
(g13
I1
tp2088
asS'needles'
p2089
(lp2090
(S'needle'
p2091
I1
tp2092
asS'perfumed'
p2093
(lp2094
(S'perfume-01'
p2095
I1
tp2096
asS'astonished'
p2097
(lp2098
(S'astonish-01'
p2099
I2
tp2100
asS'true'
p2101
(lp2102
(S'true'
p2103
I6
tp2104
a(g13
I1
tp2105
asS'absent'
p2106
(lp2107
(S'absent-minded'
p2108
I1
tp2109
asS'admiration'
p2110
(lp2111
(S'admire-01'
p2112
I1
tp2113
asS'inside'
p2114
(lp2115
(S'inside'
p2116
I1
tp2117
asS'until'
p2118
(lp2119
(S'until'
p2120
I2
tp2121
a(g13
I1
tp2122
asS'adore'
p2123
(lp2124
(S'adore-01'
p2125
I1
tp2126
asS'proud'
p2127
(lp2128
(S'proud-41'
p2129
I2
tp2130
a(g13
I1
tp2131
a(S'pride-01'
p2132
I1
tp2133
asS'Twenty'
p2134
(lp2135
(g13
I2
tp2136
asS'guessed'
p2137
(lp2138
(S'guess-01'
p2139
I1
tp2140
asS'fashioned'
p2141
(lp2142
(S'fashion'
p2143
I1
tp2144
asS'sprouts'
p2145
(lp2146
(S'sprout'
p2147
I1
tp2148
asS'shines'
p2149
(lp2150
(S'shine-01'
p2151
I1
tp2152
asS'faithful'
p2153
(lp2154
(S'faithful'
p2155
I2
tp2156
asS'dying'
p2157
(lp2158
(S'die-01'
p2159
I3
tp2160
a(S'die-02'
p2161
I1
tp2162
asS'no'
p2163
(lp2164
(S'-'
I41
tp2165
a(g13
I10
tp2166
a(S'no'
p2167
I4
tp2168
a(S'person_-'
p2169
I1
tp2170
a(S'person_no'
p2171
I1
tp2172
asS'when'
p2173
(lp2174
(g13
I25
tp2175
asS'interested'
p2176
(lp2177
(S'interest-01'
p2178
I1
tp2179
asS'holding'
p2180
(lp2181
(S'hold-01'
p2182
I1
tp2183
asS"'s"
p2184
(lp2185
(g13
I13
tp2186
asS"o'clock"
p2187
(lp2188
(g13
I3
tp2189
asS'preceding'
p2190
(lp2191
(S'precede-01'
p2192
I1
tp2193
asS'felt'
p2194
(lp2195
(S'feel-01'
p2196
I8
tp2197
a(g13
I1
tp2198
a(S'feel-02'
p2199
I1
tp2200
asS'flushes'
p2201
(lp2202
(S'flush-03'
p2203
I1
tp2204
asS'fell'
p2205
(lp2206
(S'fall-01'
p2207
I2
tp2208
a(S'fall-04'
p2209
I1
tp2210
asS'ridges'
p2211
(lp2212
(S'ridge'
p2213
I1
tp2214
asS'Earth'
p2215
(lp2216
(S'planet_name_"Earth"'
p2217
I12
tp2218
a(S'name_"Earth"'
p2219
I2
tp2220
a(S'earth'
p2221
I2
tp2222
asS'flushed'
p2223
(lp2224
(S'flush-03'
p2225
I3
tp2226
asS'billion'
p2227
(lp2228
(g13
I1
tp2229
asS'longer'
p2230
(lp2231
(g13
I2
tp2232
a(S'long'
p2233
I1
tp2234
asS'together'
p2235
(lp2236
(S'together'
p2237
I3
tp2238
asS'almanac'
p2239
(lp2240
(S'almanac'
p2241
I1
tp2242
asS'time'
p2243
(lp2244
(S'time'
p2245
I19
tp2246
a(g13
I12
tp2247
a(S'time-to-time'
p2248
I1
tp2249
asS'serious'
p2250
(lp2251
(S'serious'
p2252
I2
tp2253
a(S'serious-41'
p2254
I1
tp2255
asS'dance'
p2256
(lp2257
(S'dance-01'
p2258
I2
tp2259
asS'chair'
p2260
(lp2261
(S'chair'
p2262
I2
tp2263
asS'ballet'
p2264
(lp2265
(S'ballet'
p2266
I1
tp2267
asS'depend'
p2268
(lp2269
(S'depend-01'
p2270
I1
tp2271
asS'Exactly'
p2272
(lp2273
(S'exact'
p2274
I3
tp2275
asS'answered'
p2276
(lp2277
(S'answer-01'
p2278
I15
tp2279
asS'charge'
p2280
(lp2281
(S'charge-05'
p2282
I1
tp2283
asS'Phew'
p2284
(lp2285
(S'phew'
p2286
I1
tp2287
asS'soothes'
p2288
(lp2289
(S'soothe-01'
p2290
I1
tp2291
asS'advantage'
p2292
(lp2293
(S'advantage'
p2294
I1
tp2295
asS'trouble'
p2296
(lp2297
(S'trouble-01'
p2298
I4
tp2299
a(S'trouble'
p2300
I2
tp2301
asS'Where'
p2302
(lp2303
(g13
I4
tp2304
asS'minute'
p2305
(lp2306
(S'temporal-quantity_minute'
p2307
I4
tp2308
asS'cool'
p2309
(lp2310
(S'cool'
p2311
I1
tp2312
asS'Accepted'
p2313
(lp2314
(S'accept-01'
p2315
I1
tp2316
asS'sighed'
p2317
(lp2318
(S'sigh-01'
p2319
I1
tp2320
asS'Just'
p2321
(lp2322
(S'just'
p2323
I2
tp2324
asS'did'
p2325
(lp2326
(g13
I30
tp2327
asS'die'
p2328
(lp2329
(S'die-01'
p2330
I4
tp2331
asS'fragile'
p2332
(lp2333
(S'fragile'
p2334
I3
tp2335
asS'travels'
p2336
(lp2337
(S'travel-01'
p2338
I1
tp2339
asS'tipplers'
p2340
(lp2341
(S'person_tipple-01'
p2342
I1
tp2343
asS'recall'
p2344
(lp2345
(S'thing_recall-02'
p2346
I1
tp2347
asS'quick'
p2348
(lp2349
(S'quick'
p2350
I1
tp2351
asS'311,000,000'
p2352
(lp2353
(g13
I1
tp2354
asS'round'
p2355
(lp2356
(S'round'
p2357
I2
tp2358
asS'drawings'
p2359
(lp2360
(S'draw-01'
p2361
I1
tp2362
asS'revolution'
p2363
(lp2364
(S'revolt-01'
p2365
I1
tp2366
asS'says'
p2367
(lp2368
(S'say-01'
p2369
I1
tp2370
a(S'thing_say-01'
p2371
I1
tp2372
asS'temples'
p2373
(lp2374
(S'temple'
p2375
I1
tp2376
asS'sigh'
p2377
(lp2378
(S'sigh-02'
p2379
I2
tp2380
asS'discover'
p2381
(lp2382
(S'discover-01'
p2383
I2
tp2384
asS'eating'
p2385
(lp2386
(S'eat-01'
p2387
I1
tp2388
asS'rough'
p2389
(lp2390
(S'rough'
p2391
I1
tp2392
asS'appear'
p2393
(lp2394
(S'appear-01'
p2395
I2
tp2396
asS'goes'
p2397
(lp2398
(S'person_go-01'
p2399
I1
tp2400
a(S'go-01'
p2401
I1
tp2402
asS'reply'
p2403
(lp2404
(S'reply-01'
p2405
I2
tp2406
asS'filled'
p2407
(lp2408
(S'fill-01'
p2409
I1
tp2410
asS'understanding'
p2411
(lp2412
(S'understand-01'
p2413
I1
tp2414
a(S'understand-01_-'
p2415
I1
tp2416
asS'water'
p2417
(lp2418
(S'water'
p2419
I16
tp2420
a(S'water-01'
p2421
I1
tp2422
asS'alone'
p2423
(lp2424
(S'alone'
p2425
I6
tp2426
a(g13
I2
tp2427
asS'along'
p2428
(lp2429
(g13
I3
tp2430
a(S'along'
p2431
I1
tp2432
asS'roaring'
p2433
(lp2434
(S'roar-01'
p2435
I1
tp2436
asS'My'
p2437
(lp2438
(g13
I7
tp2439
a(S'arrange-01'
p2440
I1
tp2441
asS'appears'
p2442
(lp2443
(S'appear-01'
p2444
I1
tp2445
asS'change'
p2446
(lp2447
(S'change-01'
p2448
I3
tp2449
asS'wait'
p2450
(lp2451
(S'wait-01'
p2452
I2
tp2453
asS'box'
p2454
(lp2455
(S'box'
p2456
I1
tp2457
asS'boy'
p2458
(lp2459
(S'boy'
p2460
I3
tp2461
asS'thirty'
p2462
(lp2463
(g13
I4
tp2464
asS'baobab'
p2465
(lp2466
(S'baobab'
p2467
I1
tp2468
asS'Tomorrow'
p2469
(lp2470
(S'tomorrow'
p2471
I1
tp2472
asS'Dear'
p2473
(lp2474
(S'dear'
p2475
I1
tp2476
asS'Seen'
p2477
(lp2478
(S'see-01'
p2479
I1
tp2480
asS'emerge'
p2481
(lp2482
(S'emerge-01'
p2483
I1
tp2484
asS'tasks'
p2485
(lp2486
(S'task'
p2487
I1
tp2488
asS'love'
p2489
(lp2490
(S'love-01'
p2491
I10
tp2492
a(S'love-02'
p2493
I1
tp2494
asS'extra'
p2495
(lp2496
(S'extra'
p2497
I1
tp2498
asS'Justice'
p2499
(lp2500
(S'justice'
p2501
I1
tp2502
asS'merely'
p2503
(lp2504
(S'mere'
p2505
I3
tp2506
asS'When'
p2507
(lp2508
(g13
I15
tp2509
asS'verge'
p2510
(lp2511
(S'verge-01'
p2512
I1
tp2513
asS'islet'
p2514
(lp2515
(S'islet'
p2516
I1
tp2517
asS'rarely'
p2518
(lp2519
(S'rare'
p2520
I2
tp2521
asS'crammed'
p2522
(lp2523
(S'cram-01'
p2524
I1
tp2525
asS'Australia'
p2526
(lp2527
(S'country_name_"Australia"'
p2528
I1
tp2529
asS'wealth'
p2530
(lp2531
(S'wealth'
p2532
I1
tp2533
asS'working'
p2534
(lp2535
(S'work-09'
p2536
I1
tp2537
a(S'work-01'
p2538
I1
tp2539
asS'homesick'
p2540
(lp2541
(S'homesick'
p2542
I1
tp2543
asS'angry'
p2544
(lp2545
(S'angry'
p2546
I1
tp2547
asS'visit'
p2548
(lp2549
(S'visit-01'
p2550
I4
tp2551
asS'tears'
p2552
(lp2553
(S'tear-03'
p2554
I2
tp2555
a(S'tear'
p2556
I1
tp2557
asS'by'
p2558
(lp2559
(g13
I29
tp2560
a(S'by'
p2561
I4
tp2562
asS'live'
p2563
(lp2564
(S'live-01'
p2565
I8
tp2566
asS'sleeping'
p2567
(lp2568
(S'sleep-01'
p2569
I1
tp2570
asS'wondering'
p2571
(lp2572
(S'wonder-01'
p2573
I2
tp2574
asS'memory'
p2575
(lp2576
(S'memory'
p2577
I2
tp2578
asS'loafing'
p2579
(lp2580
(S'loaf-01'
p2581
I2
tp2582
asS'Those'
p2583
(lp2584
(g13
I3
tp2585
asS'These'
p2586
(lp2587
(g13
I2
tp2588
asS'apparent'
p2589
(lp2590
(S'apparent'
p2591
I1
tp2592
asS'everywhere'
p2593
(lp2594
(S'everywhere'
p2595
I1
tp2596
asS'hesitated'
p2597
(lp2598
(S'hesitate-01'
p2599
I2
tp2600
asS'effort'
p2601
(lp2602
(g13
I1
tp2603
a(S'effort'
p2604
I1
tp2605
asS'fly'
p2606
(lp2607
(S'fly-01'
p2608
I1
tp2609
asS'pretend'
p2610
(lp2611
(S'pretend-01'
p2612
I2
tp2613
asS'Pacific'
p2614
(lp2615
(S'ocean_name_"Pacific"'
p2616
I1
tp2617
asS'can'
p2618
(lp2619
(S'possible'
p2620
I30
tp2621
a(S'can'
p2622
I1
tp2623
asS'growing'
p2624
(lp2625
(S'grow-01'
p2626
I1
tp2627
a(S'grow-03'
p2628
I1
tp2629
asS'making'
p2630
(lp2631
(S'make-02'
p2632
I2
tp2633
a(g13
I2
tp2634
asS'laughter'
p2635
(lp2636
(S'laugh-01'
p2637
I3
tp2638
asS'heart'
p2639
(lp2640
(S'heart'
p2641
I11
tp2642
asS'crazy'
p2643
(lp2644
(S'crazy'
p2645
I1
tp2646
asS'nursing'
p2647
(lp2648
(S'nurse-01'
p2649
I1
tp2650
asS'hears'
p2651
(lp2652
(S'hear-01'
p2653
I1
tp2654
asS'heard'
p2655
(lp2656
(S'hear-01'
p2657
I2
tp2658
asS'dropped'
p2659
(lp2660
(S'drop-03'
p2661
I1
tp2662
a(S'drop-01'
p2663
I1
tp2664
asS'hides'
p2665
(lp2666
(S'hide-01'
p2667
I1
tp2668
asS'admirer'
p2669
(lp2670
(S'person_admire-01'
p2671
I1
tp2672
asS'drama'
p2673
(lp2674
(S'drama'
p2675
I1
tp2676
asS'Who'
p2677
(lp2678
(g13
I6
tp2679
asS'write'
p2680
(lp2681
(S'write-01'
p2682
I3
tp2683
asS'fourth'
p2684
(lp2685
(g13
I1
tp2686
asS'firmly'
p2687
(lp2688
(S'firm'
p2689
I1
tp2690
asS'Why'
p2691
(lp2692
(g13
I7
tp2693
a(S'concern-02'
p2694
I1
tp2695
asS'explorer'
p2696
(lp2697
(S'person_explore-01'
p2698
I11
tp2699
asS'confess'
p2700
(lp2701
(S'confess-01'
p2702
I1
tp2703
asS'may'
p2704
(lp2705
(S'possible'
p2706
I5
tp2707
a(g13
I1
tp2708
asS'annoyed'
p2709
(lp2710
(S'annoy-01'
p2711
I1
tp2712
asS'rites'
p2713
(lp2714
(S'rite'
p2715
I1
tp2716
asS'produce'
p2717
(lp2718
(S'produce-01'
p2719
I1
tp2720
asS'such'
p2721
(lp2722
(S'such'
p2723
I5
tp2724
asS'revealed'
p2725
(lp2726
(S'reveal-01'
p2727
I1
tp2728
asS'grow'
p2729
(lp2730
(S'grow-01'
p2731
I1
tp2732
a(S'grow-02'
p2733
I1
tp2734
asS'man'
p2735
(lp2736
(S'man'
p2737
I28
tp2738
a(g13
I2
tp2739
asS'pulley'
p2740
(lp2741
(S'pulley'
p2742
I7
tp2743
asS'neck'
p2744
(lp2745
(S'neck'
p2746
I2
tp2747
asS'succeeded'
p2748
(lp2749
(S'succeed-01'
p2750
I2
tp2751
asS'whenever'
p2752
(lp2753
(g13
I1
tp2754
asS'amuse'
p2755
(lp2756
(S'amuse-01'
p2757
I1
tp2758
asS'tale'
p2759
(lp2760
(S'tale'
p2761
I1
tp2762
asS'darkened'
p2763
(lp2764
(S'darken-01'
p2765
I1
tp2766
asS'so'
p2767
(lp2768
(S'so'
p2769
I27
tp2770
a(g13
I15
tp2771
asS'thorns'
p2772
(lp2773
(S'thorn'
p2774
I13
tp2775
asS'pulled'
p2776
(lp2777
(S'pull-01'
p2778
I1
tp2779
asS'talk'
p2780
(lp2781
(S'talk-01'
p2782
I1
tp2783
asS'furnished'
p2784
(lp2785
(S'furnish-01'
p2786
I1
tp2787
asS'indeed'
p2788
(lp2789
(S'indeed'
p2790
I2
tp2791
a(g13
I1
tp2792
asS'pointed'
p2793
(lp2794
(S'pointed'
p2795
I1
tp2796
asS'years'
p2797
(lp2798
(S'temporal-quantity_year'
p2799
I7
tp2800
a(S'year'
p2801
I1
tp2802
asS'course'
p2803
(lp2804
(g13
I1
tp2805
asS'cold'
p2806
(lp2807
(S'cold'
p2808
I3
tp2809
asS'still'
p2810
(lp2811
(S'still'
p2812
I13
tp2813
asS'birds'
p2814
(lp2815
(S'bird'
p2816
I1
tp2817
asS'yawning'
p2818
(lp2819
(S'yawn-01'
p2820
I2
tp2821
asS'interesting'
p2822
(lp2823
(S'interest-01'
p2824
I4
tp2825
asS'torn'
p2826
(lp2827
(S'tear-01'
p2828
I2
tp2829
asS'curls'
p2830
(lp2831
(S'curl'
p2832
I1
tp2833
asS'window'
p2834
(lp2835
(S'window'
p2836
I1
tp2837
asS'dreadfully'
p2838
(lp2839
(S'dreadful'
p2840
I1
tp2841
asS'ugly'
p2842
(lp2843
(S'ugly'
p2844
I1
tp2845
asS'Wait'
p2846
(lp2847
(S'wait-01'
p2848
I1
tp2849
asS'lonely'
p2850
(lp2851
(S'lonely'
p2852
I2
tp2853
asS'underneath'
p2854
(lp2855
(S'underneath'
p2856
I1
tp2857
asS'She'
p2858
(lp2859
(S'she'
p2860
I11
tp2861
asS'half'
p2862
(lp2863
(S'half'
p2864
I1
tp2865
asS'not'
p2866
(lp2867
(g13
I135
tp2868
a(S'and'
p2869
I2
tp2870
a(S'have-concession-91'
p2871
I1
tp2872
a(S'contrast-01'
p2873
I1
tp2874
asS'now'
p2875
(lp2876
(S'now'
p2877
I19
tp2878
a(g13
I2
tp2879
asS'killed'
p2880
(lp2881
(S'kill-01'
p2882
I1
tp2883
asS'down'
p2884
(lp2885
(g13
I12
tp2886
a(S'down'
p2887
I11
tp2888
asS'feverish'
p2889
(lp2890
(S'feverish'
p2891
I1
tp2892
asS'opera'
p2893
(lp2894
(S'opera'
p2895
I1
tp2896
asS'drop'
p2897
(lp2898
(S'drop'
p2899
I1
tp2900
a(S'drop-01'
p2901
I1
tp2902
asS'rock'
p2903
(lp2904
(S'rock'
p2905
I1
tp2906
asS'entirely'
p2907
(lp2908
(S'entire'
p2909
I1
tp2910
asS'square'
p2911
(lp2912
(S'square'
p2913
I1
tp2914
asS'goose'
p2915
(lp2916
(S'goose'
p2917
I1
tp2918
asS'fires'
p2919
(lp2920
(S'fire'
p2921
I1
tp2922
asS'catching'
p2923
(lp2924
(S'catch-04'
p2925
I1
tp2926
asS'year'
p2927
(lp2928
(S'temporal-quantity_year'
p2929
I2
tp2930
a(S'year'
p2931
I2
tp2932
a(g13
I1
tp2933
asS'happen'
p2934
(lp2935
(g13
I1
tp2936
asS'morning'
p2937
(lp2938
(S'morning'
p2939
I27
tp2940
a(g13
I2
tp2941
asS'pills'
p2942
(lp2943
(S'pill'
p2944
I2
tp2945
asS'sunrise'
p2946
(lp2947
(g13
I1
tp2948
a(S'sunrise'
p2949
I1
tp2950
asS'giddy'
p2951
(lp2952
(S'giddy'
p2953
I1
tp2954
asS'living'
p2955
(lp2956
(S'live-01'
p2957
I1
tp2958
asS'shown'
p2959
(lp2960
(S'show-01'
p2961
I1
tp2962
asS'Wheat'
p2963
(lp2964
(S'wheat'
p2965
I1
tp2966
asS'opened'
p2967
(lp2968
(S'open-01'
p2969
I3
tp2970
asS'space'
p2971
(lp2972
(S'space'
p2973
I1
tp2974
asS'thirst'
p2975
(lp2976
(S'thirst-01'
p2977
I3
tp2978
asS'hastily'
p2979
(lp2980
(S'haste'
p2981
I1
tp2982
asS'looking'
p2983
(lp2984
(S'look-01'
p2985
I5
tp2986
a(S'thing_look-01'
p2987
I5
tp2988
asS'seriously'
p2989
(lp2990
(S'serious-41'
p2991
I1
tp2992
asS'squares'
p2993
(lp2994
(S'square'
p2995
I1
tp2996
asS'million'
p2997
(lp2998
(g13
I8
tp2999
asS'seventh'
p3000
(lp3001
(g13
I1
tp3002
asS'complicated'
p3003
(lp3004
(S'complicate-01'
p3005
I1
tp3006
asS'plea'
p3007
(lp3008
(S'plea'
p3009
I1
tp3010
asS'cough'
p3011
(lp3012
(S'cough-01'
p3013
I2
tp3014
asS'explorers'
p3015
(lp3016
(S'person_explore-01'
p3017
I2
tp3018
asS'care'
p3019
(lp3020
(S'care-01'
p3021
I2
tp3022
asS'modest'
p3023
(lp3024
(S'modest'
p3025
I2
tp3026
asS'thriftily'
p3027
(lp3028
(S'thrift'
p3029
I1
tp3030
asS'honest'
p3031
(lp3032
(S'honest'
p3033
I1
tp3034
asS'thing'
p3035
(lp3036
(S'thing'
p3037
I10
tp3038
a(g13
I3
tp3039
asS'butterflies'
p3040
(lp3041
(S'butterfly'
p3042
I3
tp3043
asS'place'
p3044
(lp3045
(S'place'
p3046
I10
tp3047
a(g13
I2
tp3048
a(S'place-01'
p3049
I1
tp3050
asS'think'
p3051
(lp3052
(S'think-01'
p3053
I10
tp3054
asS'waited'
p3055
(lp3056
(S'wait-01'
p3057
I1
tp3058
asS'first'
p3059
(lp3060
(g13
I11
tp3061
a(S'first'
p3062
I2
tp3063
a(S'first-of-all'
p3064
I1
tp3065
asS'Even'
p3066
(lp3067
(S'even'
p3068
I1
tp3069
a(g13
I1
tp3070
asS'There'
p3071
(lp3072
(g13
I14
tp3073
a(S'accommodate-01'
p3074
I1
tp3075
asS'one'
p3076
(lp3077
(g13
I43
tp3078
a(S'1'
I29
tp3079
a(S'one'
p3080
I24
tp3081
asS'simplified'
p3082
(lp3083
(S'simplify-01'
p3084
I1
tp3085
asS'carry'
p3086
(lp3087
(S'carry-01'
p3088
I3
tp3089
a(S'carry-03'
p3090
I1
tp3091
asS'impossible'
p3092
(lp3093
(g13
I1
tp3094
asS'ring'
p3095
(lp3096
(S'ring'
p3097
I1
tp3098
asS'open'
p3099
(lp3100
(S'open-01'
p3101
I1
tp3102
asS'tomorrow'
p3103
(lp3104
(S'tomorrow'
p3105
I1
tp3106
asS'millions'
p3107
(lp3108
(g13
I6
tp3109
asS'sheep'
p3110
(lp3111
(S'sheep'
p3112
I17
tp3113
asS'little'
p3114
(lp3115
(S'little'
p3116
I208
tp3117
a(g13
I2
tp3118
a(S'little-by-little'
p3119
I1
tp3120
asS'silent'
p3121
(lp3122
(S'silent'
p3123
I4
tp3124
asS'bite'
p3125
(lp3126
(S'bite-01'
p3127
I4
tp3128
asS'strategems'
p3129
(lp3130
(S'strategem'
p3131
I1
tp3132
asS'anyone'
p3133
(lp3134
(S'anyone'
p3135
I3
tp3136
asS'tragic'
p3137
(lp3138
(S'tragedy'
p3139
I1
tp3140
asS'Such'
p3141
(lp3142
(S'such'
p3143
I1
tp3144
asS'white'
p3145
(lp3146
(S'white'
p3147
I3
tp3148
asS'friend'
p3149
(lp3150
(S'friend'
p3151
I5
tp3152
a(S'have-rel-role-91_friend'
p3153
I3
tp3154
asS'gives'
p3155
(lp3156
(S'give-01'
p3157
I1
tp3158
asS'eyes'
p3159
(lp3160
(S'eye'
p3161
I5
tp3162
asS'that'
p3163
(lp3164
(g13
I154
tp3165
a(S'that'
p3166
I58
tp3167
a(S'cause-01'
p3168
I1
tp3169
asS'ridiculous'
p3170
(lp3171
(S'ridiculous'
p3172
I1
tp3173
asS'flowers'
p3174
(lp3175
(S'flower'
p3176
I10
tp3177
a(S'thing_flower-01'
p3178
I1
tp3179
asS'than'
p3180
(lp3181
(g13
I11
tp3182
asS'11'
p3183
(lp3184
(S'11'
p3185
I1
tp3186
asS'10'
p3187
(lp3188
(S'10'
p3189
I1
tp3190
asS'13'
p3191
(lp3192
(S'13'
p3193
I1
tp3194
asS'12'
p3195
(lp3196
(S'12'
p3197
I1
tp3198
asS'15'
p3199
(lp3200
(S'15'
p3201
I1
tp3202
asS'14'
p3203
(lp3204
(S'14'
p3205
I1
tp3206
asS'17'
p3207
(lp3208
(S'17'
p3209
I1
tp3210
asS'16'
p3211
(lp3212
(S'16'
p3213
I1
tp3214
asS'19'
p3215
(lp3216
(S'19'
p3217
I1
tp3218
asS'18'
p3219
(lp3220
(S'18'
p3221
I1
tp3222
asS'require'
p3223
(lp3224
(S'require-01'
p3225
I2
tp3226
asS'Am'
p3227
(lp3228
(g13
I1
tp3229
asS'were'
p3230
(lp3231
(g13
I24
tp3232
a(S'go-01'
p3233
I1
tp3234
asS'and'
p3235
(lp3236
(S'and'
p3237
I116
tp3238
a(g13
I44
tp3239
a(S'equal-01'
p3240
I8
tp3241
a(S'person_and'
p3242
I1
tp3243
asS'register'
p3244
(lp3245
(S'register-02'
p3246
I1
tp3247
asS'remained'
p3248
(lp3249
(S'remain-01'
p3250
I2
tp3251
asS'confessed'
p3252
(lp3253
(S'confess-01'
p3254
I1
tp3255
asS'turned'
p3256
(lp3257
(S'turn-01'
p3258
I2
tp3259
a(S'turn-02'
p3260
I1
tp3261
asS'departure'
p3262
(lp3263
(S'depart-01'
p3264
I3
tp3265
asS'say'
p3266
(lp3267
(S'say-01'
p3268
I13
tp3269
a(g13
I2
tp3270
a(S'thing_say-01'
p3271
I1
tp3272
asS'buried'
p3273
(lp3274
(S'bury-01'
p3275
I1
tp3276
asS'spectacle'
p3277
(lp3278
(S'spectacle'
p3279
I1
tp3280
asS'breakfast'
p3281
(lp3282
(S'breakfast-01'
p3283
I2
tp3284
asS'occupied'
p3285
(lp3286
(S'occupy-01'
p3287
I1
tp3288
asS'hastened'
p3289
(lp3290
(S'hasten-01'
p3291
I1
tp3292
asS'sat'
p3293
(lp3294
(S'sit-02'
p3295
I6
tp3296
a(S'sit-01'
p3297
I1
tp3298
asS'Do'
p3299
(lp3300
(g13
I8
tp3301
asS'ideas'
p3302
(lp3303
(S'idea'
p3304
I1
tp3305
asS'note'
p3306
(lp3307
(S'note-02'
p3308
I1
tp3309
asS'take'
p3310
(lp3311
(g13
I3
tp3312
a(S'take-05'
p3313
I2
tp3314
a(S'take-01'
p3315
I1
tp3316
a(S'take-03'
p3317
I1
tp3318
a(S'take-10'
p3319
I1
tp3320
asS'destroy'
p3321
(lp3322
(S'destroy-01'
p3323
I1
tp3324
asS'becoming'
p3325
(lp3326
(g13
I1
tp3327
asS'butterfly'
p3328
(lp3329
(S'butterfly'
p3330
I1
tp3331
asS'begin'
p3332
(lp3333
(S'begin-01'
p3334
I1
tp3335
asS'sure'
p3336
(lp3337
(S'sure'
p3338
I7
tp3339
a(S'know-01'
p3340
I1
tp3341
a(g13
I1
tp3342
asS'Another'
p3343
(lp3344
(S'another'
p3345
I1
tp3346
asS'opposite'
p3347
(lp3348
(S'opposite-41'
p3349
I1
tp3350
asS'track'
p3351
(lp3352
(S'track'
p3353
I1
tp3354
asS'price'
p3355
(lp3356
(g13
I1
tp3357
asS'knew'
p3358
(lp3359
(S'know-01'
p3360
I4
tp3361
a(g13
I1
tp3362
asS'falls'
p3363
(lp3364
(S'fall-01'
p3365
I1
tp3366
asS'balderdash'
p3367
(lp3368
(S'balderdash'
p3369
I1
tp3370
asS'Whomever'
p3371
(lp3372
(g13
I1
tp3373
asS'forever'
p3374
(lp3375
(S'forever'
p3376
I2
tp3377
asS'room'
p3378
(lp3379
(S'room'
p3380
I3
tp3381
a(g13
I1
tp3382
asS'later'
p3383
(lp3384
(S'late'
p3385
I1
tp3386
asS'hungry'
p3387
(lp3388
(S'hunger-01'
p3389
I1
tp3390
asS'sunset'
p3391
(lp3392
(S'sunset'
p3393
I5
tp3394
asS'hear'
p3395
(lp3396
(S'hear-01'
p3397
I7
tp3398
asS'trembled'
p3399
(lp3400
(S'tremble-01'
p3401
I1
tp3402
asS'shop'
p3403
(lp3404
(S'shop'
p3405
I1
tp3406
asS'walking'
p3407
(lp3408
(S'walk-01'
p3409
I4
tp3410
asS'shot'
p3411
(lp3412
(S'shoot-02'
p3413
I1
tp3414
asS'show'
p3415
(lp3416
(S'show-01'
p3417
I2
tp3418
asS'fifty'
p3419
(lp3420
(g13
I4
tp3421
asS'discovered'
p3422
(lp3423
(S'discover-01'
p3424
I1
tp3425
asS'forbidding'
p3426
(lp3427
(S'forbidding'
p3428
I1
tp3429
asS'inconsistent'
p3430
(lp3431
(S'consistent_-'
p3432
I1
tp3433
asS'corner'
p3434
(lp3435
(S'corner'
p3436
I1
tp3437
asS'fifth'
p3438
(lp3439
(g13
I2
tp3440
asS'ground'
p3441
(lp3442
(S'ground'
p3443
I1
tp3444
asS'weapons'
p3445
(lp3446
(S'weapon'
p3447
I1
tp3448
asS'We'
p3449
(lp3450
(S'we'
p3451
I5
tp3452
a(g13
I1
tp3453
asS'treasure'
p3454
(lp3455
(S'treasure'
p3456
I2
tp3457
asS'behind'
p3458
(lp3459
(S'behind'
p3460
I2
tp3461
asS'shimmer'
p3462
(lp3463
(S'shimmer-01'
p3464
I1
tp3465
asS'only'
p3466
(lp3467
(S'only'
p3468
I23
tp3469
a(g13
I2
tp3470
asS'going'
p3471
(lp3472
(g13
I4
tp3473
a(S'go-03'
p3474
I1
tp3475
asS'black'
p3476
(lp3477
(S'blacken-01'
p3478
I1
tp3479
asS'robe'
p3480
(lp3481
(S'robe'
p3482
I1
tp3483
asS'lighted'
p3484
(lp3485
(S'light-01'
p3486
I6
tp3487
a(S'light-02'
p3488
I1
tp3489
asS'get'
p3490
(lp3491
(g13
I3
tp3492
a(S'get-01'
p3493
I2
tp3494
a(S'get-05'
p3495
I1
tp3496
asS'truly'
p3497
(lp3498
(g13
I1
tp3499
asS'Having'
p3500
(lp3501
(g13
I1
tp3502
asS'leather'
p3503
(lp3504
(S'leather'
p3505
I1
tp3506
asS'worried'
p3507
(lp3508
(S'worry-01'
p3509
I2
tp3510
asS'miles'
p3511
(lp3512
(S'distance-quantity_mile'
p3513
I3
tp3514
asS'where'
p3515
(lp3516
(g13
I18
tp3517
asS'worrying'
p3518
(lp3519
(S'worry-01'
p3520
I2
tp3521
asS'seas'
p3522
(lp3523
(S'sea'
p3524
I2
tp3525
asS'disarranged'
p3526
(lp3527
(g13
I1
tp3528
asS'asleep'
p3529
(lp3530
(g13
I3
tp3531
asS'resentfulness'
p3532
(lp3533
(S'resent-01'
p3534
I1
tp3535
asS'wonder'
p3536
(lp3537
(S'wonder-01'
p3538
I1
tp3539
asS'That'
p3540
(lp3541
(S'that'
p3542
I21
tp3543
a(g13
I1
tp3544
asS'colours'
p3545
(lp3546
(S'color'
p3547
I1
tp3548
asS'outside'
p3549
(lp3550
(S'outside'
p3551
I1
tp3552
asS'between'
p3553
(lp3554
(g13
I1
tp3555
asS'moaned'
p3556
(lp3557
(S'moan-01'
p3558
I1
tp3559
asS'across'
p3560
(lp3561
(S'across'
p3562
I3
tp3563
asS'arrival'
p3564
(lp3565
(S'arrive-01'
p3566
I1
tp3567
asS'thunderstruck'
p3568
(lp3569
(S'thunderstruck'
p3570
I2
tp3571
asS'apparition'
p3572
(lp3573
(g13
I1
tp3574
asS'screen'
p3575
(lp3576
(S'screen'
p3577
I3
tp3578
asS'inseparable'
p3579
(lp3580
(S'separate-01'
p3581
I1
tp3582
asS'pluck'
p3583
(lp3584
(S'pluck-01'
p3585
I2
tp3586
asS'Were'
p3587
(lp3588
(g13
I1
tp3589
asS'20'
p3590
(lp3591
(S'20'
p3592
I1
tp3593
asS'come'
p3594
(lp3595
(S'come-01'
p3596
I19
tp3597
a(S'come-03'
p3598
I2
tp3599
a(S'come-04'
p3600
I2
tp3601
a(S'come-21'
p3602
I1
tp3603
a(S'come-09'
p3604
I1
tp3605
a(S'come-13'
p3606
I1
tp3607
asS'wanders'
p3608
(lp3609
(S'wander-01'
p3610
I1
tp3611
asS'Give'
p3612
(lp3613
(S'give-01'
p3614
I1
tp3615
asS'many'
p3616
(lp3617
(S'many'
p3618
I1
tp3619
asS'region'
p3620
(lp3621
(S'region'
p3622
I1
tp3623
asS'according'
p3624
(lp3625
(g13
I1
tp3626
asS'tour'
p3627
(lp3628
(S'tour-01'
p3629
I1
tp3630
asS'railway'
p3631
(lp3632
(S'railway'
p3633
I1
tp3634
asS'comes'
p3635
(lp3636
(S'come-04'
p3637
I1
tp3638
asS'duty'
p3639
(lp3640
(S'duty'
p3641
I1
tp3642
asS'among'
p3643
(lp3644
(g13
I3
tp3645
a(S'among'
p3646
I2
tp3647
asS'loveliest'
p3648
(lp3649
(S'lovely_most'
p3650
I1
tp3651
asS'color'
p3652
(lp3653
(S'color'
p3654
I3
tp3655
a(S'color-01'
p3656
I1
tp3657
asS'stretched'
p3658
(lp3659
(S'stretch-02'
p3660
I1
tp3661
asS'extinct'
p3662
(lp3663
(S'extinct'
p3664
I8
tp3665
asS'vacation'
p3666
(lp3667
(S'vacation'
p3668
I1
tp3669
asS'But'
p3670
(lp3671
(S'contrast-01'
p3672
I71
tp3673
a(S'contrast'
p3674
I6
tp3675
a(g13
I5
tp3676
a(S'have-concession-91'
p3677
I5
tp3678
asS'judging'
p3679
(lp3680
(S'judge-01'
p3681
I1
tp3682
asS'engine'
p3683
(lp3684
(S'engine'
p3685
I4
tp3686
asS'direction'
p3687
(lp3688
(S'direction'
p3689
I1
tp3690
asS'thousand'
p3691
(lp3692
(g13
I9
tp3693
asS'drawer'
p3694
(lp3695
(S'drawer'
p3696
I1
tp3697
asS'observe'
p3698
(lp3699
(S'observe-01'
p3700
I1
tp3701
asS'those'
p3702
(lp3703
(g13
I11
tp3704
asS'case'
p3705
(lp3706
(g13
I1
tp3707
asS'myself'
p3708
(lp3709
(g13
I15
tp3710
asS'these'
p3711
(lp3712
(g13
I7
tp3713
asS'single'
p3714
(lp3715
(S'single'
p3716
I6
tp3717
a(g13
I2
tp3718
asS"n't"
p3719
(lp3720
(g13
I23
tp3721
asS'cast'
p3722
(lp3723
(S'cast-01'
p3724
I2
tp3725
a(g13
I1
tp3726
asS'tragedy'
p3727
(lp3728
(S'tragedy'
p3729
I1
tp3730
asS'shops'
p3731
(lp3732
(S'shop'
p3733
I1
tp3734
asS'recitals'
p3735
(lp3736
(S'thing_recite-01'
p3737
I1
tp3738
asS'quiet'
p3739
(lp3740
(S'quiet-41'
p3741
I1
tp3742
asS'someone'
p3743
(lp3744
(S'someone'
p3745
I1
tp3746
asS'return'
p3747
(lp3748
(S'return-01'
p3749
I3
tp3750
asS'ship'
p3751
(lp3752
(S'ship'
p3753
I1
tp3754
asS'movements'
p3755
(lp3756
(S'move-01'
p3757
I1
tp3758
asS'different'
p3759
(lp3760
(S'differ-02'
p3761
I4
tp3762
a(S'person_differ-02'
p3763
I1
tp3764
a(S'resemble-01'
p3765
I1
tp3766
asS'shuts'
p3767
(lp3768
(S'shut-01'
p3769
I1
tp3770
asS'harsh'
p3771
(lp3772
(S'harsh'
p3773
I1
tp3774
asS'reminded'
p3775
(lp3776
(S'remind-01'
p3777
I1
tp3778
asS'same'
p3779
(lp3780
(S'same-41'
p3781
I9
tp3782
a(g13
I3
tp3783
a(S'same'
p3784
I1
tp3785
asS'poetic'
p3786
(lp3787
(S'poetry'
p3788
I1
tp3789
asS'inquiry'
p3790
(lp3791
(S'inquire-01'
p3792
I3
tp3793
asS'grain'
p3794
(lp3795
(S'grain'
p3796
I2
tp3797
asS'breakdown'
p3798
(lp3799
(S'break-12'
p3800
I1
tp3801
asS'I'
(lp3802
(S'i'
I283
tp3803
a(g13
I126
tp3804
asS'weed'
p3805
(lp3806
(S'weed'
p3807
I1
tp3808
asS'running'
p3809
(lp3810
(S'run-02'
p3811
I1
tp3812
asS'scorned'
p3813
(lp3814
(S'scorn-01'
p3815
I1
tp3816
asS'muffler'
p3817
(lp3818
(S'muffler'
p3819
I1
tp3820
asS'swallow'
p3821
(lp3822
(S'swallow-01'
p3823
I1
tp3824
asS'volcanoes'
p3825
(lp3826
(S'volcano'
p3827
I12
tp3828
asS'Is'
p3829
(lp3830
(g13
I2
tp3831
a(S'endanger-01'
p3832
I1
tp3833
a(S'have-03'
p3834
I1
tp3835
asS'It'
p3836
(lp3837
(S'it'
p3838
I43
tp3839
a(g13
I37
tp3840
asS'without'
p3841
(lp3842
(g13
I9
tp3843
asS'solve'
p3844
(lp3845
(S'solve-01'
p3846
I1
tp3847
asS'In'
p3848
(lp3849
(g13
I4
tp3850
a(S'location'
p3851
I1
tp3852
asS'If'
p3853
(lp3854
(g13
I15
tp3855
a(S'wise'
p3856
I1
tp3857
a(S'cause-01'
p3858
I1
tp3859
asS'peace'
p3860
(lp3861
(g13
I1
tp3862
asS'being'
p3863
(lp3864
(g13
I3
tp3865
a(S'being'
p3866
I1
tp3867
asS'actions'
p3868
(lp3869
(g13
I1
tp3870
asS'tools'
p3871
(lp3872
(S'tool'
p3873
I1
tp3874
asS'touch'
p3875
(lp3876
(S'person_touch-01'
p3877
I1
tp3878
asS'guides'
p3879
(lp3880
(S'guide-01'
p3881
I1
tp3882
asS'death'
p3883
(lp3884
(S'die-01'
p3885
I3
tp3886
asS'thinking'
p3887
(lp3888
(S'think-01'
p3889
I2
tp3890
asS'rose'
p3891
(lp3892
(S'rose'
p3893
I12
tp3894
a(g13
I2
tp3895
asS'seems'
p3896
(lp3897
(S'seem-01'
p3898
I2
tp3899
asS'except'
p3900
(lp3901
(g13
I1
tp3902
a(S'except-01'
p3903
I1
tp3904
asS'lets'
p3905
(lp3906
(S'let-01'
p3907
I1
tp3908
asS'pill'
p3909
(lp3910
(S'pill'
p3911
I1
tp3912
asS'Abruptly'
p3913
(lp3914
(S'abrupt'
p3915
I1
tp3916
asS'kingdom'
p3917
(lp3918
(S'kingdom'
p3919
I1
tp3920
asS'around'
p3921
(lp3922
(S'around'
p3923
I6
tp3924
a(g13
I2
tp3925
asS'easily'
p3926
(lp3927
(g13
I4
tp3928
asS'disappearance'
p3929
(lp3930
(S'disappear-01'
p3931
I2
tp3932
asS'sums'
p3933
(lp3934
(S'sum'
p3935
I1
tp3936
asS'politely'
p3937
(lp3938
(S'polite-41'
p3939
I2
tp3940
asS'world'
p3941
(lp3942
(S'world'
p3943
I11
tp3944
asS'disappointed'
p3945
(lp3946
(S'disappoint-01'
p3947
I1
tp3948
asS'dare'
p3949
(lp3950
(S'dare-01'
p3951
I2
tp3952
asS'acquainted'
p3953
(lp3954
(S'acquaint-01'
p3955
I1
tp3956
asS'bracelet'
p3957
(lp3958
(S'bracelet'
p3959
I1
tp3960
asS'facing'
p3961
(lp3962
(S'face-01'
p3963
I1
tp3964
asS'chamber'
p3965
(lp3966
(S'chamber'
p3967
I1
tp3968
asS'miraculous'
p3969
(lp3970
(S'miraculous'
p3971
I1
tp3972
asS'either'
p3973
(lp3974
(g13
I1
tp3975
a(S'either'
p3976
I1
tp3977
asS'clap'
p3978
(lp3979
(S'clap-01'
p3980
I1
tp3981
asS'twelve'
p3982
(lp3983
(g13
I1
tp3984
asS'doll'
p3985
(lp3986
(S'doll'
p3987
I1
tp3988
asS'table'
p3989
(lp3990
(S'table'
p3991
I1
tp3992
asS'memories'
p3993
(lp3994
(S'memory'
p3995
I1
tp3996
asS'Men'
p3997
(lp3998
(S'man'
p3999
I6
tp4000
asS'On'
p4001
(lp4002
(g13
I9
tp4003
a(S'be-located-at-91'
p4004
I2
tp4005
asS'Chapter'
p4006
(lp4007
(S'chapter'
p4008
I21
tp4009
asS'wheat'
p4010
(lp4011
(S'wheat'
p4012
I3
tp4013
asS'confided'
p4014
(lp4015
(S'confide-01'
p4016
I1
tp4017
asS'seconds'
p4018
(lp4019
(S'temporal-quantity_second'
p4020
I1
tp4021
asS'sixth'
p4022
(lp4023
(g13
I1
tp4024
asS'Goodbye'
p4025
(lp4026
(S'goodbye'
p4027
I6
tp4028
asS'exciting'
p4029
(lp4030
(S'excite-01'
p4031
I1
tp4032
asS'handsomest'
p4033
(lp4034
(S'handsome_most'
p4035
I1
tp4036
asS'throw'
p4037
(lp4038
(S'throw-01'
p4039
I1
tp4040
asS'on'
p4041
(lp4042
(g13
I67
tp4043
a(S'on'
p4044
I2
tp4045
a(S'and'
p4046
I1
tp4047
asS'stone'
p4048
(lp4049
(S'stone'
p4050
I2
tp4051
asS'Snakes'
p4052
(lp4053
(S'snake'
p4054
I1
tp4055
asS'roar'
p4056
(lp4057
(S'roar-01'
p4058
I1
tp4059
asS'island'
p4060
(lp4061
(S'island'
p4062
I1
tp4063
asS'tremendous'
p4064
(lp4065
(S'tremendous'
p4066
I1
tp4067
asS'whence'
p4068
(lp4069
(g13
I1
tp4070
asS'journey'
p4071
(lp4072
(S'journey-01'
p4073
I6
tp4074
asS'stand'
p4075
(lp4076
(S'stand-07'
p4077
I1
tp4078
a(S'stand-01'
p4079
I1
tp4080
asS'act'
p4081
(lp4082
(S'act-02'
p4083
I1
tp4084
asS'mean'
p4085
(lp4086
(S'mean-01'
p4087
I12
tp4088
asS'or'
p4089
(lp4090
(S'or'
p4091
I17
tp4092
a(g13
I7
tp4093
asS'road'
p4094
(lp4095
(S'road'
p4096
I1
tp4097
asS'2,000,000,000'
p4098
(lp4099
(g13
I1
tp4100
asS'No'
p4101
(lp4102
(S'no'
p4103
I7
tp4104
a(g13
I2
tp4105
asS'image'
p4106
(lp4107
(S'image'
p4108
I1
tp4109
asS'dreaming'
p4110
(lp4111
(S'dream-01'
p4112
I3
tp4113
asS'your'
p4114
(lp4115
(g13
I28
tp4116
asS'her'
p4117
(lp4118
(g13
I22
tp4119
a(S'he'
p4120
I5
tp4121
asS'shells'
p4122
(lp4123
(S'shell'
p4124
I1
tp4125
asS'there'
p4126
(lp4127
(g13
I20
tp4128
a(S'there'
p4129
I11
tp4130
a(S'be-located-at-91'
p4131
I1
tp4132
asS'caterpillars'
p4133
(lp4134
(S'caterpillar'
p4135
I3
tp4136
asS'Ashamed'
p4137
(lp4138
(S'shame-01'
p4139
I1
tp4140
a(g13
I1
tp4141
asS'resolute'
p4142
(lp4143
(S'resolute'
p4144
I1
tp4145
asS'ago'
p4146
(lp4147
(g13
I5
tp4148
asS'complete'
p4149
(lp4150
(S'complete'
p4151
I3
tp4152
a(S'complete-01'
p4153
I2
tp4154
asS'enough'
p4155
(lp4156
(S'enough'
p4157
I5
tp4158
a(g13
I1
tp4159
asS'regard'
p4160
(lp4161
(S'regard-01'
p4162
I1
tp4163
asS'hesitancy'
p4164
(lp4165
(S'hesitate-01'
p4166
I1
tp4167
asS'with'
p4168
(lp4169
(g13
I72
tp4170
asS'happening'
p4171
(lp4172
(g13
I2
tp4173
asS'rush'
p4174
(lp4175
(S'rush-01'
p4176
I1
tp4177
asS'rage'
p4178
(lp4179
(g13
I1
tp4180
asS'bucket'
p4181
(lp4182
(S'bucket'
p4183
I3
tp4184
asS'sadness'
p4185
(lp4186
(g13
I1
tp4187
asS'grass'
p4188
(lp4189
(S'grass'
p4190
I3
tp4191
asS'agree'
p4192
(lp4193
(S'agree-01'
p4194
I1
tp4195
asS'affection'
p4196
(lp4197
(S'affection'
p4198
I1
tp4199
asS'gone'
p4200
(lp4201
(S'go-02'
p4202
I2
tp4203
a(S'go-15'
p4204
I1
tp4205
a(g13
I1
tp4206
a(S'go-18'
p4207
I1
tp4208
asS'certain'
p4209
(lp4210
(S'certain'
p4211
I2
tp4212
asS'describe'
p4213
(lp4214
(S'describe-01'
p4215
I1
tp4216
asS'moved'
p4217
(lp4218
(S'move-05'
p4219
I1
tp4220
asS'deep'
p4221
(lp4222
(S'deep'
p4223
I1
tp4224
asS'an'
p4225
(lp4226
(g13
I33
tp4227
asS'How'
p4228
(lp4229
(g13
I4
tp4230
asS'as'
p4231
(lp4232
(g13
I57
tp4233
a(S'resemble-01'
p4234
I4
tp4235
asS'at'
p4236
(lp4237
(g13
I77
tp4238
a(S'and'
p4239
I1
tp4240
a(S'at'
p4241
I1
tp4242
asS'planets'
p4243
(lp4244
(S'planet'
p4245
I1
tp4246
asS'watched'
p4247
(lp4248
(S'watch-03'
p4249
I1
tp4250
a(S'watch-01'
p4251
I1
tp4252
asS'moves'
p4253
(lp4254
(S'move-05'
p4255
I1
tp4256
asS'fill'
p4257
(lp4258
(S'fill-01'
p4259
I1
tp4260
asS'abyss'
p4261
(lp4262
(S'abyss'
p4263
I1
tp4264
asS'drafts'
p4265
(lp4266
(S'draft'
p4267
I2
tp4268
a(S'thing_draft-01'
p4269
I1
tp4270
asS'bored'
p4271
(lp4272
(S'bore-02'
p4273
I2
tp4274
asS'As'
p4275
(lp4276
(g13
I8
tp4277
asS'field'
p4278
(lp4279
(S'field'
p4280
I1
tp4281
asS'1440'
p4282
(lp4283
(S'1440'
p4284
I1
tp4285
asS'instantly'
p4286
(lp4287
(S'instant'
p4288
I1
tp4289
asS'you'
p4290
(lp4291
(S'you'
p4292
I155
tp4293
a(g13
I46
tp4294
asS'poor'
p4295
(lp4296
(S'poor'
p4297
I2
tp4298
asS'passerby'
p4299
(lp4300
(S'person_pass-17'
p4301
I1
tp4302
asS'oneself'
p4303
(lp4304
(g13
I1
tp4305
asS'inquired'
p4306
(lp4307
(S'inquire-01'
p4308
I2
tp4309
asS'shelter'
p4310
(lp4311
(S'shelter-01'
p4312
I2
tp4313
asS'remarked'
p4314
(lp4315
(S'remark-01'
p4316
I1
tp4317
asS'gifts'
p4318
(lp4319
(S'gift'
p4320
I1
tp4321
asS'important'
p4322
(lp4323
(S'important'
p4324
I10
tp4325
asS'recognise'
p4326
(lp4327
(S'recognize-01'
p4328
I1
tp4329
asS'fasten'
p4330
(lp4331
(S'fasten-01'
p4332
I1
tp4333
asS'decorated'
p4334
(lp4335
(S'decorate-01'
p4336
I1
tp4337
asS'Majesty'
p4338
(lp4339
(S'majesty'
p4340
I1
tp4341
asS'sobbing'
p4342
(lp4343
(S'sob-01'
p4344
I1
tp4345
asS'moonlight'
p4346
(lp4347
(S'moon'
p4348
I2
tp4349
a(S'moonlight'
p4350
I1
tp4351
asS'burrow'
p4352
(lp4353
(S'burrow'
p4354
I1
tp4355
asS'all'
p4356
(lp4357
(S'all'
p4358
I58
tp4359
a(g13
I23
tp4360
a(S'person_all'
p4361
I1
tp4362
asS'forget'
p4363
(lp4364
(S'forget-01'
p4365
I2
tp4366
asS'asteroids'
p4367
(lp4368
(S'asteroid'
p4369
I1
tp4370
asS'weariness'
p4371
(lp4372
(S'weary-01'
p4373
I1
tp4374
asS'month'
p4375
(lp4376
(S'temporal-quantity_month'
p4377
I3
tp4378
asS'follow'
p4379
(lp4380
(S'follow-02'
p4381
I2
tp4382
asS'meditation'
p4383
(lp4384
(S'meditate-01'
p4385
I1
tp4386
asS'children'
p4387
(lp4388
(S'child'
p4389
I3
tp4390
asS'wakened'
p4391
(lp4392
(S'waken-01'
p4393
I1
tp4394
asS'to'
p4395
(lp4396
(g13
I354
tp4397
a(S'obligate-01'
p4398
I1
tp4399
asS'smile'
p4400
(lp4401
(S'smile-01'
p4402
I1
tp4403
a(S'smile'
p4404
I1
tp4405
asS'sound'
p4406
(lp4407
(S'sound-02'
p4408
I4
tp4409
asS'song'
p4410
(lp4411
(g13
I2
tp4412
asS'very'
p4413
(lp4414
(S'very'
p4415
I59
tp4416
asS'horror'
p4417
(lp4418
(g13
I2
tp4419
asS'fat'
p4420
(lp4421
(S'fat'
p4422
I1
tp4423
asS'worst'
p4424
(lp4425
(S'bad'
p4426
I1
tp4427
asS'minded'
p4428
(lp4429
(g13
I1
tp4430
asS'heaven'
p4431
(lp4432
(S'heaven'
p4433
I2
tp4434
asS'--'
p4435
(lp4436
(g13
I6
tp4437
asS'large'
p4438
(lp4439
(S'large'
p4440
I4
tp4441
asS'sand'
p4442
(lp4443
(S'sand'
p4444
I9
tp4445
asS'baobabs'
p4446
(lp4447
(S'baobab'
p4448
I4
tp4449
asS'small'
p4450
(lp4451
(S'small'
p4452
I9
tp4453
asS'locomotive'
p4454
(lp4455
(S'locomotive'
p4456
I1
tp4457
asS'neighborhood'
p4458
(lp4459
(S'neighborhood'
p4460
I1
tp4461
asS'ten'
p4462
(lp4463
(g13
I1
tp4464
asS'Only'
p4465
(lp4466
(S'only'
p4467
I3
tp4468
asS'invention'
p4469
(lp4470
(S'invent-01'
p4471
I1
tp4472
asS'creatures'
p4473
(lp4474
(S'creature'
p4475
I2
tp4476
asS'trick'
p4477
(lp4478
(S'trick-01'
p4479
I1
tp4480
asS'what'
p4481
(lp4482
(g13
I39
tp4483
a(S'amr-unknown'
p4484
I2
tp4485
asS'stood'
p4486
(lp4487
(S'stand-01'
p4488
I1
tp4489
asS'darkness'
p4490
(lp4491
(S'darkness'
p4492
I1
tp4493
asS'sweetly'
p4494
(lp4495
(S'sweet'
p4496
I2
tp4497
asS'deeply'
p4498
(lp4499
(S'deep'
p4500
I2
tp4501
asS'anniversary'
p4502
(lp4503
(S'anniversary'
p4504
I2
tp4505
asS'frightens'
p4506
(lp4507
(S'frighten-01'
p4508
I1
tp4509
asS'learned'
p4510
(lp4511
(S'learn-01'
p4512
I1
tp4513
asS'public'
p4514
(lp4515
(S'public'
p4516
I2
tp4517
asS'full'
p4518
(lp4519
(S'full'
p4520
I2
tp4521
asS'certainly'
p4522
(lp4523
(S'certain'
p4524
I3
tp4525
asS'hours'
p4526
(lp4527
(S'hour'
p4528
I1
tp4529
a(S'temporal-quantity_hour'
p4530
I1
tp4531
asS'tracks'
p4532
(lp4533
(g13
I1
tp4534
asS'relaxation'
p4535
(lp4536
(S'relax-01'
p4537
I1
tp4538
asS'legend'
p4539
(lp4540
(S'legend'
p4541
I1
tp4542
asS'gleams'
p4543
(lp4544
(S'gleam-01'
p4545
I1
tp4546
asS'amount'
p4547
(lp4548
(S'amount-01'
p4549
I1
tp4550
asS'luck'
p4551
(lp4552
(S'luck'
p4553
I1
tp4554
asS'sweetness'
p4555
(lp4556
(S'sweetness'
p4557
I2
tp4558
a(S'sweet'
p4559
I1
tp4560
asS'flash'
p4561
(lp4562
(S'flash'
p4563
I1
tp4564
asS'suddenly'
p4565
(lp4566
(S'sudden'
p4567
I3
tp4568
asS'caravan'
p4569
(lp4570
(S'caravan-01'
p4571
I1
tp4572
asS'ask'
p4573
(lp4574
(S'ask-02'
p4575
I2
tp4576
a(S'ask-01'
p4577
I2
tp4578
asS'empties'
p4579
(lp4580
(S'empty-01'
p4581
I1
tp4582
asS'establish'
p4583
(lp4584
(S'establish-01'
p4585
I2
tp4586
asS'Europe'
p4587
(lp4588
(S'continent_name_"Europe"'
p4589
I1
tp4590
asS'eye'
p4591
(lp4592
(S'eye'
p4593
I3
tp4594
asS'takes'
p4595
(lp4596
(S'take-05'
p4597
I1
tp4598
asS'two'
p4599
(lp4600
(g13
I8
tp4601
a(S'2'
I7
tp4602
a(S'person_2'
p4603
I1
tp4604
asS'fragrance'
p4605
(lp4606
(S'fragrance'
p4607
I2
tp4608
asS'mysterious'
p4609
(lp4610
(S'mysterious'
p4611
I1
tp4612
a(S'mystery'
p4613
I1
tp4614
asS'more'
p4615
(lp4616
(S'more'
p4617
I26
tp4618
a(g13
I10
tp4619
asS'diamond'
p4620
(lp4621
(S'diamond'
p4622
I1
tp4623
asS'knows'
p4624
(lp4625
(S'know-01'
p4626
I8
tp4627
asS'excuse'
p4628
(lp4629
(S'excuse-01'
p4630
I4
tp4631
asS'landed'
p4632
(lp4633
(S'land-01'
p4634
I1
tp4635
asS'moistened'
p4636
(lp4637
(S'moisten-01'
p4638
I1
tp4639
asS'So'
p4640
(lp4641
(g13
I11
tp4642
a(S'cause-01'
p4643
I3
tp4644
asS'known'
p4645
(lp4646
(S'know-01'
p4647
I6
tp4648
asS'7000'
p4649
(lp4650
(S'7000'
p4651
I1
tp4652
asS'hurry'
p4653
(lp4654
(S'hurry-01'
p4655
I3
tp4656
asS'glad'
p4657
(lp4658
(S'glad'
p4659
I3
tp4660
asS'hour'
p4661
(lp4662
(S'hour'
p4663
I5
tp4664
asS'science'
p4665
(lp4666
(S'science'
p4667
I1
tp4668
asS'Tonight'
p4669
(lp4670
(S'tonight'
p4671
I2
tp4672
asS'sudden'
p4673
(lp4674
(S'sudden'
p4675
I1
tp4676
asS'Your'
p4677
(lp4678
(g13
I6
tp4679
asS'beautiful'
p4680
(lp4681
(S'beautiful'
p4682
I11
tp4683
asS'lives'
p4684
(lp4685
(S'live-01'
p4686
I1
tp4687
asS'gravely'
p4688
(lp4689
(S'grave'
p4690
I1
tp4691
asS'neglected'
p4692
(lp4693
(S'neglect-01'
p4694
I2
tp4695
asS'sense'
p4696
(lp4697
(S'sense-01'
p4698
I3
tp4699
a(g13
I1
tp4700
asS'condemn'
p4701
(lp4702
(S'condemn-01'
p4703
I2
tp4704
asS'!'
(lp4705
(g13
I101
tp4706
asS'huge'
p4707
(lp4708
(S'huge'
p4709
I1
tp4710
asS'needs'
p4711
(lp4712
(S'thing_need-01'
p4713
I1
tp4714
a(S'need-01'
p4715
I1
tp4716
asS'Anything'
p4717
(lp4718
(S'anything'
p4719
I1
tp4720
asS'awkward'
p4721
(lp4722
(S'awkward'
p4723
I1
tp4724
asS'rather'
p4725
(lp4726
(S'rather'
p4727
I2
tp4728
asS'comfort'
p4729
(lp4730
(S'comfort-01'
p4731
I1
tp4732
asS'unlucky'
p4733
(lp4734
(S'lucky_-'
p4735
I2
tp4736
asS'extinguished'
p4737
(lp4738
(S'extinguish-01'
p4739
I1
tp4740
asS'creature'
p4741
(lp4742
(S'creature'
p4743
I2
tp4744
asS'waved'
p4745
(lp4746
(S'wave-02'
p4747
I1
tp4748
asS'simplicity'
p4749
(lp4750
(S'simple'
p4751
I1
tp4752
asS'plant'
p4753
(lp4754
(S'plant'
p4755
I1
tp4756
asS'plans'
p4757
(lp4758
(S'plan-01'
p4759
I1
tp4760
asS'our'
p4761
(lp4762
(g13
I3
tp4763
asS'Admire'
p4764
(lp4765
(S'admire-01'
p4766
I1
tp4767
asS'plane'
p4768
(lp4769
(S'plane'
p4770
I2
tp4771
asS'coming'
p4772
(lp4773
(S'come-01'
p4774
I4
tp4775
a(S'come-02'
p4776
I1
tp4777
asS'bloom'
p4778
(lp4779
(S'bloom-01'
p4780
I2
tp4781
asS'a'
(lp4782
(g13
I285
tp4783
asS'Flies'
p4784
(lp4785
(S'fly'
p4786
I1
tp4787
asS'short'
p4788
(lp4789
(S'short'
p4790
I1
tp4791
asS'crowded'
p4792
(lp4793
(S'crowd-02'
p4794
I1
tp4795
asS'courteously'
p4796
(lp4797
(S'courtesy'
p4798
I1
tp4799
a(S'courteous'
p4800
I1
tp4801
asS'eats'
p4802
(lp4803
(S'eat-01'
p4804
I3
tp4805
asS')'
(lp4806
(g13
I4
tp4807
asS'pleasure'
p4808
(lp4809
(S'pleasure'
p4810
I1
tp4811
a(S'please-01'
p4812
I1
tp4813
asS'dream'
p4814
(lp4815
(S'dream-01'
p4816
I2
tp4817
asS'replied'
p4818
(lp4819
(S'reply-01'
p4820
I19
tp4821
asS'What'
p4822
(lp4823
(g13
I31
tp4824
a(S'see-01'
p4825
I1
tp4826
asS'help'
p4827
(lp4828
(S'help-01'
p4829
I3
tp4830
a(S'help-02'
p4831
I1
tp4832
asS'soon'
p4833
(lp4834
(S'soon'
p4835
I3
tp4836
asS'held'
p4837
(lp4838
(S'hold-01'
p4839
I1
tp4840
asS'paper'
p4841
(lp4842
(S'paper'
p4843
I2
tp4844
asS'through'
p4845
(lp4846
(g13
I2
tp4847
a(S'through'
p4848
I1
tp4849
asS'existence'
p4850
(lp4851
(S'exist-01'
p4852
I1
tp4853
asS'smiling'
p4854
(lp4855
(S'smile-01'
p4856
I1
tp4857
asS'suffer'
p4858
(lp4859
(S'suffer-01'
p4860
I3
tp4861
asS'its'
p4862
(lp4863
(g13
I4
tp4864
a(S'it'
p4865
I2
tp4866
asS'roots'
p4867
(lp4868
(S'root'
p4869
I1
tp4870
asS'24'
p4871
(lp4872
(S'24'
p4873
I1
tp4874
asS'25'
p4875
(lp4876
(S'25'
p4877
I1
tp4878
asS'26'
p4879
(lp4880
(S'26'
p4881
I1
tp4882
asS'27'
p4883
(lp4884
(S'27'
p4885
I1
tp4886
asS'rapidly'
p4887
(lp4888
(S'rapid'
p4889
I1
tp4890
asS'21'
p4891
(lp4892
(S'21'
p4893
I1
tp4894
asS'22'
p4895
(lp4896
(S'22'
p4897
I1
tp4898
asS'23'
p4899
(lp4900
(S'23'
p4901
I1
tp4902
asS'exact'
p4903
(lp4904
(S'exact'
p4905
I1
tp4906
asS'deeds'
p4907
(lp4908
(g13
I1
tp4909
asS'actually'
p4910
(lp4911
(S'actual'
p4912
I1
tp4913
asS'absence'
p4914
(lp4915
(S'absent-01'
p4916
I1
tp4917
asS'misunderstandings'
p4918
(lp4919
(S'thing_misunderstand-01'
p4920
I1
tp4921
asS'speech'
p4922
(lp4923
(S'speak-01'
p4924
I1
tp4925
asS'might'
p4926
(lp4927
(S'possible'
p4928
I2
tp4929
a(g13
I1
tp4930
asS'colleague'
p4931
(lp4932
(S'colleague'
p4933
I1
tp4934
asS'evening'
p4935
(lp4936
(S'evening'
p4937
I10
tp4938
asS'somebody'
p4939
(lp4940
(S'somebody'
p4941
I1
tp4942
asS'Ambassador'
p4943
(lp4944
(S'have-org-role-91_ambassador'
p4945
I1
tp4946
asS'Please'
p4947
(lp4948
(S'please'
p4949
I2
tp4950
a(g13
I1
tp4951
asS'noticing'
p4952
(lp4953
(S'notice-01'
p4954
I1
tp4955
asS'obeyed'
p4956
(lp4957
(S'obey-01'
p4958
I2
tp4959
asS'weeds'
p4960
(lp4961
(S'weed'
p4962
I1
tp4963
asS'foot'
p4964
(lp4965
(S'foot'
p4966
I1
tp4967
asS'mystery'
p4968
(lp4969
(S'mystery'
p4970
I1
tp4971
asS'reassured'
p4972
(lp4973
(S'reassure-01'
p4974
I1
tp4975
asS'always'
p4976
(lp4977
(S'always'
p4978
I10
tp4979
asS'stopped'
p4980
(lp4981
(S'stop-01'
p4982
I2
tp4983
asS'blest'
p4984
(lp4985
(S'bless-01'
p4986
I1
tp4987
asS'found'
p4988
(lp4989
(S'find-01'
p4990
I7
tp4991
a(S'find-03'
p4992
I1
tp4993
asS'friendship'
p4994
(lp4995
(S'friendship'
p4996
I1
tp4997
asS'heavy'
p4998
(lp4999
(S'heavy'
p5000
I3
tp5001
asS'week'
p5002
(lp5003
(S'temporal-quantity_week'
p5004
I4
tp5005
asS'harm'
p5006
(lp5007
(S'harm-01'
p5008
I1
tp5009
asS'house'
p5010
(lp5011
(S'house'
p5012
I4
tp5013
asS'idea'
p5014
(lp5015
(S'idea'
p5016
I4
tp5017
asS'foxes'
p5018
(lp5019
(S'fox'
p5020
I2
tp5021
asS'beyond'
p5022
(lp5023
(S'beyond'
p5024
I1
tp5025
asS'really'
p5026
(lp5027
(S'real'
p5028
I4
tp5029
asS'leave'
p5030
(lp5031
(S'leave-01'
p5032
I6
tp5033
asS'flower'
p5034
(lp5035
(S'flower'
p5036
I45
tp5037
a(S'thing_flower-01'
p5038
I3
tp5039
a(S'flower-01'
p5040
I3
tp5041
a(g13
I3
tp5042
asS'since'
p5043
(lp5044
(S'since'
p5045
I4
tp5046
a(g13
I2
tp5047
asS'fountain'
p5048
(lp5049
(S'fountain'
p5050
I1
tp5051
asS'7'
(lp5052
(S'7'
I1
tp5053
asS'blundering'
p5054
(lp5055
(S'blunder-01'
p5056
I1
tp5057
asS'salute'
p5058
(lp5059
(S'salute-01'
p5060
I3
tp5061
asS'disobedience'
p5062
(lp5063
(S'disobey-01'
p5064
I1
tp5065
asS'guess'
p5066
(lp5067
(S'guess-01'
p5068
I1
tp5069
asS'dune'
p5070
(lp5071
(S'dune'
p5072
I1
tp5073
asS'extraordinary'
p5074
(lp5075
(S'extraordinary'
p5076
I3
tp5077
asS'reason'
p5078
(lp5079
(S'reason-01'
p5080
I1
tp5081
a(S'reason'
p5082
I1
tp5083
asS'monotony'
p5084
(lp5085
(S'monotony'
p5086
I1
tp5087
asS'imagine'
p5088
(lp5089
(S'imagine-01'
p5090
I1
tp5091
asS'put'
p5092
(lp5093
(S'put-01'
p5094
I9
tp5095
a(S'put-09'
p5096
I6
tp5097
a(S'put-03'
p5098
I1
tp5099
a(g13
I1
tp5100
asS'beginning'
p5101
(lp5102
(S'begin-01'
p5103
I3
tp5104
asS'bushes'
p5105
(lp5106
(S'bush'
p5107
I1
tp5108
asS'Eh'
p5109
(lp5110
(S'eh'
p5111
I1
tp5112
asS'terrible'
p5113
(lp5114
(S'terrible-41'
p5115
I2
tp5116
asS'businessmen'
p5117
(lp5118
(S'businessman'
p5119
I1
tp5120
asS'consequence'
p5121
(lp5122
(S'consequence'
p5123
I12
tp5124
a(g13
I1
tp5125
asS'fallen'
p5126
(lp5127
(S'fall-04'
p5128
I1
tp5129
asS'gazed'
p5130
(lp5131
(S'gaze-01'
p5132
I3
tp5133
asS'feel'
p5134
(lp5135
(S'feel-01'
p5136
I2
tp5137
asS'number'
p5138
(lp5139
(g13
I1
tp5140
a(S'number'
p5141
I1
tp5142
asS'fancy'
p5143
(lp5144
(S'fancy-01'
p5145
I1
tp5146
asS'traveled'
p5147
(lp5148
(S'travel-01'
p5149
I1
tp5150
asS'feet'
p5151
(lp5152
(S'foot'
p5153
I2
tp5154
asS'murmured'
p5155
(lp5156
(S'murmur-01'
p5157
I1
tp5158
asS'done'
p5159
(lp5160
(S'do-02'
p5161
I3
tp5162
asS'regret'
p5163
(lp5164
(S'regret-01'
p5165
I2
tp5166
asS'passes'
p5167
(lp5168
(S'pass-03'
p5169
I1
tp5170
asS'story'
p5171
(lp5172
(S'story'
p5173
I2
tp5174
asS'"'
(lp5175
(g13
I1112
tp5176
a(S'and'
p5177
I1
tp5178
asS'watches'
p5179
(lp5180
(S'watch-01'
p5181
I1
tp5182
asS'blossom'
p5183
(lp5184
(S'blossom'
p5185
I1
tp5186
asS'twenty'
p5187
(lp5188
(g13
I8
tp5189
a(S'be-temporally-at-91'
p5190
I1
tp5191
asS'obedience'
p5192
(lp5193
(g13
I1
tp5194
asS'least'
p5195
(lp5196
(g13
I1
tp5197
asS'scholars'
p5198
(lp5199
(S'scholar'
p5200
I1
tp5201
asS'wonderful'
p5202
(lp5203
(S'wonderful'
p5204
I2
tp5205
asS'calculations'
p5206
(lp5207
(S'you'
p5208
I1
tp5209
asS'hundred'
p5210
(lp5211
(g13
I18
tp5212
a(S'numerical-quantity'
p5213
I1
tp5214
asS'selling'
p5215
(lp5216
(S'sell-01'
p5217
I1
tp5218
asS'part'
p5219
(lp5220
(g13
I1
tp5221
asS'favorable'
p5222
(lp5223
(S'favorable'
p5224
I2
tp5225
asS'rifle'
p5226
(lp5227
(S'rifle'
p5228
I1
tp5229
asS'obstructed'
p5230
(lp5231
(S'obstruct-01'
p5232
I1
tp5233
asS'believe'
p5234
(lp5235
(S'believe-01'
p5236
I7
tp5237
asS'grace'
p5238
(lp5239
(S'grace'
p5240
I1
tp5241
asS'king'
p5242
(lp5243
(S'king'
p5244
I32
tp5245
a(g13
I1
tp5246
asS'kind'
p5247
(lp5248
(S'kind'
p5249
I2
tp5250
a(g13
I1
tp5251
asS'grew'
p5252
(lp5253
(g13
I1
tp5254
asS'double'
p5255
(lp5256
(S'double'
p5257
I1
tp5258
asS'switchman'
p5259
(lp5260
(S'switchman'
p5261
I8
tp5262
asS'contrary'
p5263
(lp5264
(S'contrary-41'
p5265
I1
tp5266
asS'toward'
p5267
(lp5268
(S'toward'
p5269
I3
tp5270
a(g13
I2
tp5271
asS'treated'
p5272
(lp5273
(S'treat-04'
p5274
I1
tp5275
asS'trudged'
p5276
(lp5277
(S'trudge-01'
p5278
I1
tp5279
asS'suspicious'
p5280
(lp5281
(S'suspicious'
p5282
I1
tp5283
asS'alike'
p5284
(lp5285
(S'alike'
p5286
I3
tp5287
asS'cleaned'
p5288
(lp5289
(S'clean-03'
p5290
I3
tp5291
asS'orders'
p5292
(lp5293
(S'order-01'
p5294
I8
tp5295
a(S'thing_order-01'
p5296
I2
tp5297
a(S'order'
p5298
I1
tp5299
a(S'order-02'
p5300
I1
tp5301
asS'mountain'
p5302
(lp5303
(S'mountain'
p5304
I5
tp5305
asS'also'
p5306
(lp5307
(S'also'
p5308
I12
tp5309
a(g13
I2
tp5310
asS'breeze'
p5311
(lp5312
(S'breeze'
p5313
I1
tp5314
asS'With'
p5315
(lp5316
(g13
I1
tp5317
asS'Geographies'
p5318
(lp5319
(S'geography'
p5320
I1
tp5321
asS'play'
p5322
(lp5323
(S'play-01'
p5324
I2
tp5325
a(S'play-02'
p5326
I1
tp5327
asS'added'
p5328
(lp5329
(S'add-01'
p5330
I11
tp5331
asS'trains'
p5332
(lp5333
(S'train'
p5334
I2
tp5335
asS'reach'
p5336
(lp5337
(g13
I1
tp5338
a(S'reach-02'
p5339
I1
tp5340
a(S'reach-03'
p5341
I1
tp5342
asS'depths'
p5343
(lp5344
(S'depth'
p5345
I1
tp5346
asS'most'
p5347
(lp5348
(S'most'
p5349
I9
tp5350
asS'eaten'
p5351
(lp5352
(S'eat-01'
p5353
I3
tp5354
asS'nothing'
p5355
(lp5356
(S'nothing'
p5357
I23
tp5358
a(g13
I5
tp5359
a(S'nothing-but'
p5360
I1
tp5361
asS'The'
p5362
(lp5363
(g13
I87
tp5364
a(S'disturb-01'
p5365
I1
tp5366
asS'extremely'
p5367
(lp5368
(S'extreme'
p5369
I2
tp5370
asS'achievement'
p5371
(lp5372
(S'thing_achieve-01'
p5373
I1
tp5374
asS'stately'
p5375
(lp5376
(S'stately'
p5377
I1
tp5378
asS'understands'
p5379
(lp5380
(S'understand-01'
p5381
I1
tp5382
asS'clear'
p5383
(lp5384
(g13
I1
tp5385
asS'sometimes'
p5386
(lp5387
(S'sometimes'
p5388
I6
tp5389
asS'reflections'
p5390
(lp5391
(S'reflect-02'
p5392
I1
tp5393
asS'clean'
p5394
(lp5395
(S'clean-03'
p5396
I3
tp5397
asS'stones'
p5398
(lp5399
(S'stone'
p5400
I2
tp5401
asS'gold'
p5402
(lp5403
(S'gold'
p5404
I2
tp5405
asS'carefully'
p5406
(lp5407
(S'careful'
p5408
I3
tp5409
asS'Has'
p5410
(lp5411
(S'have-03'
p5412
I2
tp5413
a(g13
I1
tp5414
asS'find'
p5415
(lp5416
(S'find-01'
p5417
I6
tp5418
a(g13
I1
tp5419
a(S'thing_find-01'
p5420
I1
tp5421
asS'occupation'
p5422
(lp5423
(S'occupation'
p5424
I1
tp5425
asS'deserts'
p5426
(lp5427
(S'desert'
p5428
I3
tp5429
asS'justice'
p5430
(lp5431
(S'justice'
p5432
I1
tp5433
asS'ruin'
p5434
(lp5435
(S'ruin-01'
p5436
I1
tp5437
asS'unhappy'
p5438
(lp5439
(S'happy_-'
p5440
I2
tp5441
asS'eruptions'
p5442
(lp5443
(S'erupt-01'
p5444
I2
tp5445
asS'8'
(lp5446
(S'8'
I1
tp5447
asS'his'
p5448
(lp5449
(g13
I93
tp5450
a(S'and'
p5451
I1
tp5452
asS'Thirty'
p5453
(lp5454
(g13
I2
tp5455
asS'express'
p5456
(lp5457
(S'express-02'
p5458
I3
tp5459
a(S'express'
p5460
I1
tp5461
asS'impregnable'
p5462
(lp5463
(g13
I1
tp5464
asS'While'
p5465
(lp5466
(g13
I1
tp5467
asS'courage'
p5468
(lp5469
(S'courage'
p5470
I2
tp5471
asS'rest'
p5472
(lp5473
(S'rest-01'
p5474
I3
tp5475
a(S'rest'
p5476
I2
tp5477
asS'closely'
p5478
(lp5479
(S'close'
p5480
I1
tp5481
asS'During'
p5482
(lp5483
(g13
I1
tp5484
asS'silk'
p5485
(lp5486
(S'silk'
p5487
I1
tp5488
asS'him'
p5489
(lp5490
(g13
I58
tp5491
asS'chimney'
p5492
(lp5493
(S'chimney'
p5494
I1
tp5495
asS'cry'
p5496
(lp5497
(S'cry-02'
p5498
I3
tp5499
a(S'cry-03'
p5500
I1
tp5501
asS'common'
p5502
(lp5503
(S'common'
p5504
I2
tp5505
asS'wrote'
p5506
(lp5507
(S'write-01'
p5508
I1
tp5509
asS'bulky'
p5510
(lp5511
(S'bulk'
p5512
I1
tp5513
asS'900,000'
p5514
(lp5515
(g13
I1
tp5516
asS'set'
p5517
(lp5518
(S'set-07'
p5519
I4
tp5520
a(g13
I3
tp5521
a(S'set-08'
p5522
I1
tp5523
a(S'set-01'
p5524
I1
tp5525
a(S'set-11'
p5526
I1
tp5527
asS'For'
p5528
(lp5529
(g13
I9
tp5530
a(S'opine-01'
p5531
I4
tp5532
a(S'cause-01'
p5533
I1
tp5534
asS'tended'
p5535
(lp5536
(S'tend-01'
p5537
I1
tp5538
asS'see'
p5539
(lp5540
(S'see-01'
p5541
I22
tp5542
a(g13
I1
tp5543
asS'migration'
p5544
(lp5545
(S'migrate-01'
p5546
I1
tp5547
asS'sea'
p5548
(lp5549
(S'sea'
p5550
I3
tp5551
asS'close'
p5552
(lp5553
(S'close'
p5554
I2
tp5555
a(S'close-41'
p5556
I1
tp5557
asS'knees'
p5558
(lp5559
(S'knee'
p5560
I2
tp5561
asS'visiting'
p5562
(lp5563
(S'visit-01'
p5564
I1
tp5565
asS'please'
p5566
(lp5567
(S'please'
p5568
I2
tp5569
a(S'please-01'
p5570
I1
tp5571
asS'smallest'
p5572
(lp5573
(S'small_most'
p5574
I1
tp5575
asS'flame'
p5576
(lp5577
(S'flame-01'
p5578
I2
tp5579
asS'rite'
p5580
(lp5581
(S'rite'
p5582
I2
tp5583
asS'conditions'
p5584
(lp5585
(S'condition'
p5586
I2
tp5587
asS'Clad'
p5588
(lp5589
(S'clad-01'
p5590
I1
tp5591
asS'endure'
p5592
(lp5593
(S'endure-01'
p5594
I1
tp5595
asS'na\xc3\xafve'
p5596
(lp5597
(S'naive'
p5598
I2
tp5599
a(g13
I1
tp5600
asS'sold'
p5601
(lp5602
(S'sell-01'
p5603
I1
tp5604
asS'spray'
p5605
(lp5606
(S'spray'
p5607
I1
tp5608
asS'succeed'
p5609
(lp5610
(S'succeed-01'
p5611
I1
tp5612
asS'admirers'
p5613
(lp5614
(S'person_admire-01'
p5615
I1
tp5616
asS'African'
p5617
(lp5618
(S'continent_name_"Africa"'
p5619
I1
tp5620
asS'invisible'
p5621
(lp5622
(g13
I4
tp5623
asS'both'
p5624
(lp5625
(S'both'
p5626
I2
tp5627
a(g13
I1
tp5628
asS'last'
p5629
(lp5630
(g13
I6
tp5631
a(S'last'
p5632
I6
tp5633
a(S'last-01'
p5634
I1
tp5635
asS'riddles'
p5636
(lp5637
(S'riddle'
p5638
I1
tp5639
asS'became'
p5640
(lp5641
(S'become-01'
p5642
I1
tp5643
asS'forgotten'
p5644
(lp5645
(S'forget-01'
p5646
I2
tp5647
asS'Yes'
p5648
(lp5649
(g13
I11
tp5650
a(S'yes'
p5651
I9
tp5652
asS'whole'
p5653
(lp5654
(S'whole'
p5655
I3
tp5656
asS'finds'
p5657
(lp5658
(S'find-01'
p5659
I1
tp5660
asS'Certainly'
p5661
(lp5662
(S'certain'
p5663
I3
tp5664
asS'danced'
p5665
(lp5666
(S'dance-01'
p5667
I1
tp5668
asS'drunk'
p5669
(lp5670
(S'drink-01'
p5671
I1
tp5672
asS'simple'
p5673
(lp5674
(S'simple'
p5675
I3
tp5676
asS'sweet'
p5677
(lp5678
(S'sweet'
p5679
I2
tp5680
asS'whatever'
p5681
(lp5682
(g13
I1
tp5683
asS'regulated'
p5684
(lp5685
(S'regulate-01'
p5686
I1
tp5687
asS'village'
p5688
(lp5689
(S'village'
p5690
I3
tp5691
asS'raise'
p5692
(lp5693
(S'raise-01'
p5694
I2
tp5695
a(S'raise-03'
p5696
I2
tp5697
asS'dug'
p5698
(lp5699
(S'dig-01'
p5700
I1
tp5701
asS'whom'
p5702
(lp5703
(g13
I3
tp5704
asS'secret'
p5705
(lp5706
(S'secret'
p5707
I5
tp5708
a(g13
I1
tp5709
asS'meeting'
p5710
(lp5711
(S'meet-01'
p5712
I1
tp5713
asS'empty'
p5714
(lp5715
(S'empty'
p5716
I2
tp5717
asS'lived'
p5718
(lp5719
(S'live-01'
p5720
I1
tp5721
asS'precision'
p5722
(lp5723
(S'precise'
p5724
I1
tp5725
asS'else'
p5726
(lp5727
(S'else'
p5728
I5
tp5729
asS'awake'
p5730
(lp5731
(S'awake-01'
p5732
I1
tp5733
asS'towns'
p5734
(lp5735
(S'town'
p5736
I3
tp5737
asS'look'
p5738
(lp5739
(S'look-01'
p5740
I21
tp5741
a(S'look-02'
p5742
I3
tp5743
a(g13
I1
tp5744
asS'frozen'
p5745
(lp5746
(S'freeze-01'
p5747
I1
tp5748
asS'admire'
p5749
(lp5750
(S'admire-01'
p5751
I4
tp5752
asS'forgetting'
p5753
(lp5754
(S'forget-01'
p5755
I1
tp5756
asS'while'
p5757
(lp5758
(S'while-01'
p5759
I1
tp5760
asS'fun'
p5761
(lp5762
(S'fun'
p5763
I1
tp5764
asS'real'
p5765
(lp5766
(S'real'
p5767
I1
tp5768
asS'itself'
p5769
(lp5770
(g13
I1
tp5771
asS'loosened'
p5772
(lp5773
(S'loosen-01'
p5774
I1
tp5775
asS'ready'
p5776
(lp5777
(S'ready-01'
p5778
I3
tp5779
a(g13
I1
tp5780
asS'funny'
p5781
(lp5782
(S'funny'
p5783
I3
tp5784
asS'rheumatism'
p5785
(lp5786
(S'rheumatism'
p5787
I1
tp5788
asS'belong'
p5789
(lp5790
(S'belong-01'
p5791
I2
tp5792
asS'9'
(lp5793
(S'9'
I1
tp5794
asS'advise'
p5795
(lp5796
(S'advise-01'
p5797
I1
tp5798
a(g5208
I1
tp5799
asS'forgiveness'
p5800
(lp5801
(S'forgive-01'
p5802
I1
tp5803
asS'used'
p5804
(lp5805
(S'use-01'
p5806
I1
tp5807
a(g13
I1
tp5808
asS'Then'
p5809
(lp5810
(S'then'
p5811
I23
tp5812
a(g13
I8
tp5813
a(S'have-purpose-91'
p5814
I1
tp5815
asS'moment'
p5816
(lp5817
(S'moment'
p5818
I8
tp5819
asS'arrived'
p5820
(lp5821
(S'arrive-01'
p5822
I2
tp5823
asS'boa'
p5824
(lp5825
(g13
I2
tp5826
asS'timid'
p5827
(lp5828
(S'timid'
p5829
I1
tp5830
asS'task'
p5831
(lp5832
(S'task-01'
p5833
I1
tp5834
asS'chickens'
p5835
(lp5836
(S'chicken'
p5837
I5
tp5838
asS'anybody'
p5839
(lp5840
(S'anybody'
p5841
I1
tp5842
asS'obviously'
p5843
(lp5844
(S'obvious'
p5845
I1
tp5846
asS'person'
p5847
(lp5848
(S'person'
p5849
I1
tp5850
asS'edge'
p5851
(lp5852
(S'edge'
p5853
I1
tp5854
asS'convenient'
p5855
(lp5856
(S'convenient'
p5857
I1
tp5858
asS'toil'
p5859
(lp5860
(S'toil-01'
p5861
I1
tp5862
asS'entry'
p5863
(lp5864
(g13
I1
tp5865
asS'spend'
p5866
(lp5867
(S'spend-02'
p5868
I1
tp5869
asS'things'
p5870
(lp5871
(S'thing'
p5872
I6
tp5873
asS'Thirst'
p5874
(lp5875
(S'thirst-01'
p5876
I1
tp5877
asS'na\xc3\xafvely'
p5878
(lp5879
(g13
I1
tp5880
asS'questions'
p5881
(lp5882
(S'question-01'
p5883
I3
tp5884
a(S'question'
p5885
I2
tp5886
asS'useful'
p5887
(lp5888
(S'useful'
p5889
I1
tp5890
asS'prince'
p5891
(lp5892
(S'prince'
p5893
I161
tp5894
a(g13
I1
tp5895
asS'tamed'
p5896
(lp5897
(S'tame-01'
p5898
I7
tp5899
a(S'thing_tame-01'
p5900
I1
tp5901
asS'North Pole'
p5902
(lp5903
(S'world-region_name_"North"_"Pole"'
p5904
I1
tp5905
asS'source'
p5906
(lp5907
(S'source-01'
p5908
I1
tp5909
asS'location'
p5910
(lp5911
(S'location'
p5912
I1
tp5913
asS'crying'
p5914
(lp5915
(S'cry-02'
p5916
I2
tp5917
asS'tames'
p5918
(lp5919
(S'tame-01'
p5920
I1
tp5921
asS'Embarassed'
p5922
(lp5923
(S'embarrass-01'
p5924
I1
tp5925
asS'excited'
p5926
(lp5927
(S'excite-01'
p5928
I1
tp5929
asS'surprised'
p5930
(lp5931
(S'surprise-01'
p5932
I2
tp5933
asS'Minister'
p5934
(lp5935
(S'minister'
p5936
I1
tp5937
a(S'have-org-role-91_minister'
p5938
I1
tp5939
asS'...'
p5940
(lp5941
(g13
I123
tp5942
a(S'and'
p5943
I2
tp5944
a(S'say-01'
p5945
I1
tp5946
a(S'do-02'
p5947
I1
tp5948
asS'Oh'
p5949
(lp5950
(S'oh'
p5951
I10
tp5952
a(g13
I3
tp5953
a(S'Oh'
p5954
I1
tp5955
asS'Of'
p5956
(lp5957
(g13
I2
tp5958
asS'saluted'
p5959
(lp5960
(S'salute-01'
p5961
I1
tp5962
asS'matters'
p5963
(lp5964
(S'matter'
p5965
I8
tp5966
a(S'matter-01'
p5967
I1
tp5968
asS'game'
p5969
(lp5970
(S'game'
p5971
I1
tp5972
asS'necessary'
p5973
(lp5974
(g13
I2
tp5975
asS'bit'
p5976
(lp5977
(S'bit'
p5978
I1
tp5979
asS'sharpened'
p5980
(lp5981
(S'sharpen-01'
p5982
I2
tp5983
asS'salutes'
p5984
(lp5985
(S'salute-01'
p5986
I1
tp5987
asS'wings'
p5988
(lp5989
(S'wing'
p5990
I1
tp5991
asS'knock'
p5992
(lp5993
(S'knock-03'
p5994
I1
tp5995
asS'Whatever'
p5996
(lp5997
(g13
I1
tp5998
asS'foolish'
p5999
(lp6000
(S'foolish'
p6001
I1
tp6002
asS'essential'
p6003
(lp6004
(S'essential'
p6005
I2
tp6006
asS'sketch'
p6007
(lp6008
(S'sketch-01'
p6009
I1
tp6010
asS'often'
p6011
(lp6012
(S'often'
p6013
I2
tp6014
asS'spring'
p6015
(lp6016
(S'spring'
p6017
I3
tp6018
asS'some'
p6019
(lp6020
(S'some'
p6021
I17
tp6022
a(S'someone'
p6023
I3
tp6024
a(g13
I3
tp6025
asS'back'
p6026
(lp6027
(S'back'
p6028
I17
tp6029
a(g13
I5
tp6030
asS'metres'
p6031
(lp6032
(S'distance-quantity_metre'
p6033
I1
tp6034
asS'understood'
p6035
(lp6036
(S'understand-01'
p6037
I1
tp6038
asS'lips'
p6039
(lp6040
(S'lip'
p6041
I2
tp6042
asS'curious'
p6043
(lp6044
(S'curious-41'
p6045
I1
tp6046
asS'pale'
p6047
(lp6048
(S'pale'
p6049
I1
tp6050
asS'Yawns'
p6051
(lp6052
(S'yawn-01'
p6053
I1
tp6054
asS'Nothing'
p6055
(lp6056
(S'nothing'
p6057
I2
tp6058
asS'laughing'
p6059
(lp6060
(S'laugh-01'
p6061
I3
tp6062
asS'be'
p6063
(lp6064
(g13
I87
tp6065
a(S'exemplify-01'
p6066
I2
tp6067
a(S'be-02'
p6068
I1
tp6069
asS'run'
p6070
(lp6071
(g13
I1
tp6072
a(S'run-02'
p6073
I1
tp6074
asS'Look'
p6075
(lp6076
(S'look-01'
p6077
I3
tp6078
asS'remembered'
p6079
(lp6080
(S'remember-01'
p6081
I3
tp6082
asS'windowpanes'
p6083
(lp6084
(S'windowpane'
p6085
I1
tp6086
asS'confidence'
p6087
(lp6088
(g13
I1
tp6089
asS'step'
p6090
(lp6091
(S'step-01'
p6092
I3
tp6093
a(g13
I1
tp6094
asS'nowhere'
p6095
(lp6096
(S'nowhere'
p6097
I1
tp6098
asS'lasts'
p6099
(lp6100
(S'last-01'
p6101
I1
tp6102
asS'become'
p6103
(lp6104
(S'become-01'
p6105
I3
tp6106
a(g13
I1
tp6107
asS'refuses'
p6108
(lp6109
(S'refuse-01'
p6110
I1
tp6111
asS'peevishly'
p6112
(lp6113
(S'peevish'
p6114
I1
tp6115
asS'Russia'
p6116
(lp6117
(S'country_name_"Russia"'
p6118
I1
tp6119
asS'shine'
p6120
(lp6121
(S'shine-01'
p6122
I1
tp6123
asS'anything'
p6124
(lp6125
(S'anything'
p6126
I13
tp6127
a(g13
I2
tp6128
asS'yawn'
p6129
(lp6130
(S'yawn-01'
p6131
I3
tp6132
asS'frightful'
p6133
(lp6134
(S'frighten-01'
p6135
I1
tp6136
asS'piled'
p6137
(lp6138
(S'pile-01'
p6139
I1
tp6140
asS'silence'
p6141
(lp6142
(S'silence'
p6143
I5
tp6144
a(S'silent'
p6145
I2
tp6146
a(S'silence-01'
p6147
I1
tp6148
asS'into'
p6149
(lp6150
(g13
I13
tp6151
a(S'into'
p6152
I1
tp6153
asS'Minster'
p6154
(lp6155
(S'minister'
p6156
I1
tp6157
asS'Everything'
p6158
(lp6159
(S'everything'
p6160
I1
tp6161
asS'Matters'
p6162
(lp6163
(S'matter'
p6164
I1
tp6165
asS'question'
p6166
(lp6167
(S'question'
p6168
I3
tp6169
a(S'question-01'
p6170
I3
tp6171
a(S'thing_question-01'
p6172
I3
tp6173
a(g13
I3
tp6174
asS'long'
p6175
(lp6176
(S'long'
p6177
I10
tp6178
a(g13
I1
tp6179
asS'occupy'
p6180
(lp6181
(S'occupy-01'
p6182
I1
tp6183
asS'Every'
p6184
(lp6185
(g13
I1
tp6186
asS':'
(lp6187
(g13
I63
tp6188
asS'Come'
p6189
(lp6190
(S'come-01'
p6191
I3
tp6192
asS'mountains'
p6193
(lp6194
(S'mountain'
p6195
I5
tp6196
asS'himself'
p6197
(lp6198
(g13
I28
tp6199
asS'boys'
p6200
(lp6201
(S'boy'
p6202
I1
tp6203
asS'properly'
p6204
(lp6205
(S'proper'
p6206
I1
tp6207
asS'alive'
p6208
(lp6209
(g13
I2
tp6210
asS'upright'
p6211
(lp6212
(S'upright'
p6213
I2
tp6214
asS'embarassed'
p6215
(lp6216
(S'embarrass-01'
p6217
I1
tp6218
asS'directed'
p6219
(lp6220
(S'direct-01'
p6221
I1
tp6222
asS'Africa'
p6223
(lp6224
(S'continent_name_"Africa"'
p6225
I2
tp6226
asS'up'
p6227
(lp6228
(g13
I15
tp6229
a(S'up'
p6230
I8
tp6231
asS'us'
p6232
(lp6233
(g13
I8
tp6234
a(S'be-located-at-91'
p6235
I1
tp6236
asS'planet'
p6237
(lp6238
(S'planet'
p6239
I53
tp6240
asS"'re"
p6241
(lp6242
(g13
I1
tp6243
asS'today'
p6244
(lp6245
(S'today'
p6246
I1
tp6247
asS'faded'
p6248
(lp6249
(S'fade-01'
p6250
I1
tp6251
asS'called'
p6252
(lp6253
(S'call-07'
p6254
I1
tp6255
asS'ordered'
p6256
(lp6257
(S'order-01'
p6258
I3
tp6259
a(S'thing_order-01'
p6260
I1
tp6261
a(g13
I1
tp6262
asS'Perhaps'
p6263
(lp6264
(S'possible'
p6265
I2
tp6266
a(g13
I1
tp6267
asS'To'
p6268
(lp6269
(g13
I7
tp6270
a(S'opine-01'
p6271
I5
tp6272
a(S'belong-01'
p6273
I1
tp6274
asS'consulted'
p6275
(lp6276
(S'consult-01'
p6277
I1
tp6278
asS'462,511'
p6279
(lp6280
(g13
I1
tp6281
asS'May'
p6282
(lp6283
(g13
I1
tp6284
asS'malicious'
p6285
(lp6286
(S'malicious'
p6287
I1
tp6288
asS'thanks'
p6289
(lp6290
(S'thank-01'
p6291
I1
tp6292
asS'nice'
p6293
(lp6294
(S'nice'
p6295
I1
tp6296
asS'draw'
p6297
(lp6298
(S'draw-01'
p6299
I3
tp6300
asS'problems'
p6301
(lp6302
(S'problem'
p6303
I1
tp6304
asS'prepared'
p6305
(lp6306
(S'prepare-02'
p6307
I1
tp6308
asS'meaning'
p6309
(lp6310
(S'mean-01'
p6311
I1
tp6312
asS'smiled'
p6313
(lp6314
(S'smile-01'
p6315
I1
tp6316
asS'desert'
p6317
(lp6318
(S'desert'
p6319
I13
tp6320
asS'thundered'
p6321
(lp6322
(S'thunder-01'
p6323
I1
tp6324
asS'land'
p6325
(lp6326
(S'land'
p6327
I1
tp6328
asS'happier'
p6329
(lp6330
(S'happy'
p6331
I2
tp6332
asS'Ah'
p6333
(lp6334
(S'ah'
p6335
I13
tp6336
a(S'ah-01'
p6337
I2
tp6338
a(S'and'
p6339
I1
tp6340
asS'holes'
p6341
(lp6342
(S'hole'
p6343
I1
tp6344
asS'walked'
p6345
(lp6346
(S'walk-01'
p6347
I1
tp6348
asS'responded'
p6349
(lp6350
(S'respond-01'
p6351
I2
tp6352
asS'reproaches'
p6353
(lp6354
(S'reproach-01'
p6355
I1
tp6356
asS'train'
p6357
(lp6358
(S'train'
p6359
I1
tp6360
asS'Sahara'
p6361
(lp6362
(S'desert_name_"Sahara"'
p6363
I2
tp6364
asS'At'
p6365
(lp6366
(g13
I7
tp6367
a(S'resemble-01'
p6368
I1
tp6369
asS'far'
p6370
(lp6371
(S'far'
p6372
I7
tp6373
asS'fresh'
p6374
(lp6375
(S'fresh'
p6376
I6
tp6377
asS'requires'
p6378
(lp6379
(S'require-01'
p6380
I2
tp6381
asS'having'
p6382
(lp6383
(g13
I5
tp6384
a(S'have-03'
p6385
I1
tp6386
asS'once'
p6387
(lp6388
(g13
I7
tp6389
a(S'once'
p6390
I5
tp6391
a(S'once-more'
p6392
I1
tp6393
asS'lamplighter'
p6394
(lp6395
(S'lamp'
p6396
I12
tp6397
asS'go'
p6398
(lp6399
(S'go-02'
p6400
I8
tp6401
a(S'go-01'
p6402
I3
tp6403
a(S'go-15'
p6404
I2
tp6405
a(g13
I2
tp6406
a(S'go-19'
p6407
I1
tp6408
a(S'go-17'
p6409
I1
tp6410
a(S'go-13'
p6411
I1
tp6412
asS'conversation'
p6413
(lp6414
(S'converse-01'
p6415
I2
tp6416
asS'seemed'
p6417
(lp6418
(S'seem-01'
p6419
I7
tp6420
asS'concerned'
p6421
(lp6422
(S'concern-01'
p6423
I3
tp6424
a(S'concern-02'
p6425
I1
tp6426
asS'avoid'
p6427
(lp6428
(S'avoid-01'
p6429
I1
tp6430
asS'young'
p6431
(lp6432
(S'young'
p6433
I1
tp6434
asS'send'
p6435
(lp6436
(S'send-03'
p6437
I2
tp6438
a(S'send-01'
p6439
I1
tp6440
asS'Words'
p6441
(lp6442
(S'word'
p6443
I1
tp6444
asS'Not'
p6445
(lp6446
(g13
I1
tp6447
asS'Now'
p6448
(lp6449
(S'now'
p6450
I5
tp6451
asS'wished'
p6452
(lp6453
(S'wish-01'
p6454
I2
tp6455
asS'coquettish'
p6456
(lp6457
(S'coquet'
p6458
I1
tp6459
asS'wishes'
p6460
(lp6461
(S'wish-01'
p6462
I2
tp6463
asS'putting'
p6464
(lp6465
(S'put-01'
p6466
I1
tp6467
asS'yourselves'
p6468
(lp6469
(g13
I1
tp6470
asS'drinking'
p6471
(lp6472
(S'drink-01'
p6473
I5
tp6474
asS'continued'
p6475
(lp6476
(S'continue-01'
p6477
I6
tp6478
a(S'continue-02'
p6479
I3
tp6480
asS'entire'
p6481
(lp6482
(S'entire'
p6483
I1
tp6484
asS'notes'
p6485
(lp6486
(S'note-02'
p6487
I1
tp6488
asS'watered'
p6489
(lp6490
(S'water-01'
p6491
I2
tp6492
asS'try'
p6493
(lp6494
(S'try-01'
p6495
I1
tp6496
asS'tenderness'
p6497
(lp6498
(S'tender'
p6499
I2
tp6500
asS'rivers'
p6501
(lp6502
(S'river'
p6503
I3
tp6504
asS'fold'
p6505
(lp6506
(S'fold'
p6507
I1
tp6508
asS'assembly'
p6509
(lp6510
(S'assemble-02'
p6511
I1
tp6512
asS'odd'
p6513
(lp6514
(S'odd'
p6515
I2
tp6516
asS'heavens'
p6517
(lp6518
(S'heaven'
p6519
I2
tp6520
asS'power'
p6521
(lp6522
(S'power'
p6523
I1
tp6524
asS'giving'
p6525
(lp6526
(S'give-01'
p6527
I1
tp6528
asS'waiting'
p6529
(lp6530
(S'wait-01'
p6531
I1
tp6532
asS'irreparable'
p6533
(lp6534
(g13
I1
tp6535
asS';'
(lp6536
(S'and'
p6537
I18
tp6538
a(g13
I16
tp6539
asS'America'
p6540
(lp6541
(g13
I1
tp6542
asS'bird'
p6543
(lp6544
(S'bird'
p6545
I3
tp6546
asS'exercise'
p6547
(lp6548
(S'exercise-02'
p6549
I1
tp6550
a(S'exercise'
p6551
I1
tp6552
asS'body'
p6553
(lp6554
(S'body'
p6555
I3
tp6556
asS'chose'
p6557
(lp6558
(S'choose-01'
p6559
I1
tp6560
asS'exchange'
p6561
(lp6562
(S'exchange-01'
p6563
I1
tp6564
asS'gathered'
p6565
(lp6566
(S'gather-01'
p6567
I1
tp6568
asS'believed'
p6569
(lp6570
(S'believe-01'
p6571
I1
tp6572
asS'objects'
p6573
(lp6574
(S'object'
p6575
I3
tp6576
a(g13
I1
tp6577
asS'let'
p6578
(lp6579
(S'let-01'
p6580
I7
tp6581
asS'conceited'
p6582
(lp6583
(S'conceit'
p6584
I10
tp6585
a(S'conceited'
p6586
I1
tp6587
asS'others'
p6588
(lp6589
(S'other'
p6590
I3
tp6591
a(S'person_other'
p6592
I1
tp6593
a(g13
I1
tp6594
asS'invented'
p6595
(lp6596
(S'invent-01'
p6597
I1
tp6598
asS'fifteen'
p6599
(lp6600
(g13
I1
tp6601
asS'Clap'
p6602
(lp6603
(S'clap-01'
p6604
I1
tp6605
asS'great'
p6606
(lp6607
(S'great'
p6608
I7
tp6609
asS'receive'
p6610
(lp6611
(g13
I1
tp6612
asS'larger'
p6613
(lp6614
(S'large'
p6615
I1
tp6616
asS'makes'
p6617
(lp6618
(S'make-02'
p6619
I4
tp6620
a(g13
I3
tp6621
asS'daybreak'
p6622
(lp6623
(S'daybreak'
p6624
I2
tp6625
asS'apple'
p6626
(lp6627
(S'apple'
p6628
I1
tp6629
asS'danger'
p6630
(lp6631
(g13
I3
tp6632
a(S'danger'
p6633
I1
tp6634
asS'forbid'
p6635
(lp6636
(S'forbid-01'
p6637
I1
tp6638
asS'Midnight Mass'
p6639
(lp6640
(S'event_name_"Midnight"_"Mass"'
p6641
I1
tp6642
asS'330'
p6643
(lp6644
(S'name_330'
p6645
I1
tp6646
asS'wit'
p6647
(lp6648
(S'wit'
p6649
I1
tp6650
asS'singing'
p6651
(lp6652
(S'sing-01'
p6653
I1
tp6654
asS'standing'
p6655
(lp6656
(S'stand-01'
p6657
I2
tp6658
asS'use'
p6659
(lp6660
(S'use-01'
p6661
I9
tp6662
a(g13
I2
tp6663
asS'from'
p6664
(lp6665
(g13
I37
tp6666
a(S'from'
p6667
I2
tp6668
a(S'and'
p6669
I1
tp6670
asS'Hum'
p6671
(lp6672
(S'hum'
p6673
I8
tp6674
asS'next'
p6675
(lp6676
(S'next'
p6677
I3
tp6678
asS'eleven'
p6679
(lp6680
(g13
I1
tp6681
asS'doubt'
p6682
(lp6683
(g13
I1
tp6684
a(S'doubt-01'
p6685
I1
tp6686
asS'weeping'
p6687
(lp6688
(S'weep-01'
p6689
I1
tp6690
asS'themselves'
p6691
(lp6692
(g13
I3
tp6693
asS'stage'
p6694
(lp6695
(S'stage'
p6696
I1
tp6697
asS'touched'
p6698
(lp6699
(S'touch-01'
p6700
I1
tp6701
asS'sort'
p6702
(lp6703
(S'sort'
p6704
I2
tp6705
a(S'sort-01'
p6706
I1
tp6707
asS'pencil'
p6708
(lp6709
(S'pencil'
p6710
I3
tp6711
asS'pretty'
p6712
(lp6713
(S'pretty'
p6714
I1
tp6715
asS'started'
p6716
(lp6717
(S'start-01'
p6718
I1
tp6719
asS'becomes'
p6720
(lp6721
(S'become-01'
p6722
I1
tp6723
asS'impress'
p6724
(lp6725
(S'impress-01'
p6726
I1
tp6727
asS'occurred'
p6728
(lp6729
(g13
I1
tp6730
asS'charming'
p6731
(lp6732
(S'charm-01'
p6733
I1
tp6734
asS'carrying'
p6735
(lp6736
(S'carry-01'
p6737
I1
tp6738
asS'ashamed'
p6739
(lp6740
(g13
I2
tp6741
asS'recount'
p6742
(lp6743
(S'recount-01'
p6744
I1
tp6745
asS'had'
p6746
(lp6747
(g13
I48
tp6748
a(S'have-03'
p6749
I12
tp6750
a(S'have-frequency-91'
p6751
I1
tp6752
a(S'person_have-org-role-91'
p6753
I1
tp6754
a(S'person_have-rel-role-91'
p6755
I1
tp6756
asS'account'
p6757
(lp6758
(S'account'
p6759
I1
tp6760
asS'animals'
p6761
(lp6762
(S'animal'
p6763
I2
tp6764
asS'panted'
p6765
(lp6766
(S'pant-01'
p6767
I1
tp6768
asS'locks'
p6769
(lp6770
(S'lock'
p6771
I1
tp6772
asS'this'
p6773
(lp6774
(S'this'
p6775
I43
tp6776
a(g13
I6
tp6777
asS'pour'
p6778
(lp6779
(S'pour-01'
p6780
I1
tp6781
asS'anywhere'
p6782
(lp6783
(S'anywhere'
p6784
I2
tp6785
asS'crossed'
p6786
(lp6787
(S'cross-02'
p6788
I1
tp6789
asS'praise'
p6790
(lp6791
(S'praise-01'
p6792
I1
tp6793
asS'of'
p6794
(lp6795
(g13
I231
tp6796
a(S'include-91'
p6797
I8
tp6798
a(S'person_include-91'
p6799
I2
tp6800
a(S'thing_include-91'
p6801
I2
tp6802
asS'meet'
p6803
(lp6804
(S'meet-03'
p6805
I1
tp6806
asS'point'
p6807
(lp6808
(S'point'
p6809
I1
tp6810
asS'wearing'
p6811
(lp6812
(S'wear-01'
p6813
I1
tp6814
asS'thirsty'
p6815
(lp6816
(S'thirst-01'
p6817
I4
tp6818
asS'lock'
p6819
(lp6820
(S'lock-01'
p6821
I1
tp6822
asS'high'
p6823
(lp6824
(S'high'
p6825
I2
tp6826
asS'pulling'
p6827
(lp6828
(S'pull-01'
p6829
I1
tp6830
asS'something'
p6831
(lp6832
(S'something'
p6833
I4
tp6834
a(g13
I1
tp6835
asS'Christmas'
p6836
(lp6837
(S'festival_name_"Christmas"'
p6838
I1
tp6839
asS'sit'
p6840
(lp6841
(S'sit-02'
p6842
I2
tp6843
a(S'sit-01'
p6844
I2
tp6845
asS'six'
p6846
(lp6847
(S'6'
I4
tp6848
a(g13
I3
tp6849
asS'lamp'
p6850
(lp6851
(S'lamp'
p6852
I15
tp6853
asS'animal'
p6854
(lp6855
(S'animal'
p6856
I1
tp6857
asS'instead'
p6858
(lp6859
(S'instead-of-91'
p6860
I2
tp6861
asS'intelligent'
p6862
(lp6863
(S'intelligent-41'
p6864
I1
tp6865
asS'watch'
p6866
(lp6867
(S'watch-01'
p6868
I2
tp6869
asS'waters'
p6870
(lp6871
(S'water'
p6872
I1
tp6873
asS'collection'
p6874
(lp6875
(S'collect-01'
p6876
I2
tp6877
asS'throbs'
p6878
(lp6879
(S'throb-01'
p6880
I1
tp6881
asS'ties'
p6882
(lp6883
(S'tie-01'
p6884
I2
tp6885
asS'pocket'
p6886
(lp6887
(S'pocket'
p6888
I1
tp6889
asS'realized'
p6890
(lp6891
(S'realize-01'
p6892
I1
tp6893
asS'light'
p6894
(lp6895
(S'light-01'
p6896
I2
tp6897
a(S'light'
p6898
I1
tp6899
asS'interrupted'
p6900
(lp6901
(S'interrupt-01'
p6902
I3
tp6903
asS'One'
p6904
(lp6905
(S'one'
p6906
I16
tp6907
a(S'1'
I1
tp6908
asS'allow'
p6909
(lp6910
(S'allow-01'
p6911
I1
tp6912
asS'Kings'
p6913
(lp6914
(S'king'
p6915
I1
tp6916
asS'immensity'
p6917
(lp6918
(S'immense'
p6919
I1
tp6920
asS'reeling'
p6921
(lp6922
(S'reel-00'
p6923
I1
tp6924
asS'move'
p6925
(lp6926
(S'move-01'
p6927
I2
tp6928
a(g13
I1
tp6929
asS'Beside'
p6930
(lp6931
(S'beside'
p6932
I1
tp6933
asS'horns'
p6934
(lp6935
(S'horn'
p6936
I1
tp6937
asS'perfect'
p6938
(lp6939
(S'perfect'
p6940
I1
tp6941
a(S'perfect-01'
p6942
I1
tp6943
asS'noses'
p6944
(lp6945
(S'nose'
p6946
I1
tp6947
asS'Negro'
p6948
(lp6949
(S'negro'
p6950
I1
tp6951
asS'restrain'
p6952
(lp6953
(S'restrain-01'
p6954
I2
tp6955
asS'adornment'
p6956
(lp6957
(S'thing_adorn-01'
p6958
I1
tp6959
asS'snake'
p6960
(lp6961
(S'snake'
p6962
I14
tp6963
asS'hands'
p6964
(lp6965
(S'hand'
p6966
I4
tp6967
asS'kindness'
p6968
(lp6969
(S'kind-41'
p6970
I2
tp6971
a(S'thing_kind-41'
p6972
I1
tp6973
asS'day'
p6974
(lp6975
(S'day'
p6976
I16
tp6977
a(S'temporal-quantity_day'
p6978
I5
tp6979
a(g13
I1
tp6980
asS'worlds'
p6981
(lp6982
(S'world'
p6983
I1
tp6984
asS'footstool'
p6985
(lp6986
(S'footstool'
p6987
I1
tp6988
asS'retorted'
p6989
(lp6990
(S'retort-01'
p6991
I1
tp6992
asS'South Pole'
p6993
(lp6994
(S'world-region_name_"South"_"Pole"'
p6995
I1
tp6996
asS'truth'
p6997
(lp6998
(S'truth'
p6999
I3
tp7000
asS'From'
p7001
(lp7002
(g13
I3
tp7003
asS'doing'
p7004
(lp7005
(S'do-02'
p7006
I2
tp7007
a(g13
I1
tp7008
asS'globe'
p7009
(lp7010
(S'globe'
p7011
I7
tp7012
asS'Next'
p7013
(lp7014
(S'next'
p7015
I1
tp7016
asS'books'
p7017
(lp7018
(S'book'
p7019
I4
tp7020
asS'sands'
p7021
(lp7022
(S'sand'
p7023
I1
tp7024
asS'furnish'
p7025
(lp7026
(S'furnish-01'
p7027
I1
tp7028
asS'special'
p7029
(lp7030
(S'special'
p7031
I1
tp7032
asS'out'
p7033
(lp7034
(g13
I32
tp7035
a(S'cause-01'
p7036
I1
tp7037
a(S'out'
p7038
I1
tp7039
asS'fundamentally'
p7040
(lp7041
(S'fundamental'
p7042
I1
tp7043
asS"'"
(lp7044
(g13
I24
tp7045
asS'defend'
p7046
(lp7047
(S'defend-01'
p7048
I1
tp7049
asS'flattening'
p7050
(lp7051
(S'flatten-01'
p7052
I1
tp7053
asS'China'
p7054
(lp7055
(S'country_name_"China"'
p7056
I1
tp7057
asS'red'
p7058
(lp7059
(S'red'
p7060
I4
tp7061
asS'shut'
p7062
(lp7063
(S'shut-06'
p7064
I1
tp7065
asS'This'
p7066
(lp7067
(S'this'
p7068
I14
tp7069
asS'spot'
p7070
(lp7071
(S'spot'
p7072
I2
tp7073
asS'promptly'
p7074
(lp7075
(S'prompt'
p7076
I1
tp7077
asS'completely'
p7078
(lp7079
(S'complete'
p7080
I2
tp7081
asS'repairing'
p7082
(lp7083
(S'repair-01'
p7084
I1
tp7085
asS'overtake'
p7086
(lp7087
(S'overtake-01'
p7088
I1
tp7089
asS'geographer'
p7090
(lp7091
(S'geographer'
p7092
I22
tp7093
asS'could'
p7094
(lp7095
(S'possible'
p7096
I23
tp7097
a(g13
I2
tp7098
asS'rushed'
p7099
(lp7100
(S'rush-01'
p7101
I1
tp7102
asS'vineyards'
p7103
(lp7104
(S'vineyard'
p7105
I1
tp7106
asS'times'
p7107
(lp7108
(g13
I5
tp7109
asS'intoxicated'
p7110
(lp7111
(S'intoxicate-01'
p7112
I1
tp7113
asS'scarf'
p7114
(lp7115
(S'scarf'
p7116
I1
tp7117
asS'blown'
p7118
(lp7119
(S'blow-01'
p7120
I1
tp7121
asS'powerful'
p7122
(lp7123
(S'powerful'
p7124
I2
tp7125
asS'owned'
p7126
(lp7127
(S'own-01'
p7128
I2
tp7129
asS'echo'
p7130
(lp7131
(S'echo-01'
p7132
I3
tp7133
asS'embarrassed'
p7134
(lp7135
(S'embarrass-01'
p7136
I1
tp7137
asS'reached'
p7138
(lp7139
(S'reach-01'
p7140
I1
tp7141
asS'blows'
p7142
(lp7143
(S'blow-01'
p7144
I1
tp7145
asS'owning'
p7146
(lp7147
(S'own-01'
p7148
I1
tp7149
asS'sadly'
p7150
(lp7151
(g13
I1
tp7152
asS'festival'
p7153
(lp7154
(S'festival'
p7155
I1
tp7156
asS'eighth'
p7157
(lp7158
(g13
I1
tp7159
asS'their'
p7160
(lp7161
(g13
I14
tp7162
asS'attack'
p7163
(lp7164
(S'attack-01'
p7165
I1
tp7166
asS'ankle'
p7167
(lp7168
(S'ankle'
p7169
I2
tp7170
asS'cabin'
p7171
(lp7172
(S'cabin'
p7173
I1
tp7174
asS'interests'
p7175
(lp7176
(S'interest-01'
p7177
I1
tp7178
asS'shell'
p7179
(lp7180
(S'shell'
p7181
I2
tp7182
asS'stars'
p7183
(lp7184
(S'star'
p7185
I39
tp7186
a(g13
I1
tp7187
asS'completed'
p7188
(lp7189
(S'complete-01'
p7190
I1
tp7191
asS'exactly'
p7192
(lp7193
(S'exact'
p7194
I2
tp7195
asS'herself'
p7196
(lp7197
(g13
I7
tp7198
asS'coughed'
p7199
(lp7200
(S'cough-01'
p7201
I2
tp7202
asS'remember'
p7203
(lp7204
(S'remember-01'
p7205
I5
tp7206
asS'loved'
p7207
(lp7208
(S'love-01'
p7209
I3
tp7210
asS'warfare'
p7211
(lp7212
(g13
I1
tp7213
asS'Sire'
p7214
(lp7215
(S'sire'
p7216
I2
tp7217
asS'yawned'
p7218
(lp7219
(S'yawn-01'
p7220
I3
tp7221
asS'beg'
p7222
(lp7223
(S'beg-01'
p7224
I2
tp7225
asS'flashed'
p7226
(lp7227
(S'flash-02'
p7228
I1
tp7229
a(S'flash-01'
p7230
I1
tp7231
asS'loves'
p7232
(lp7233
(S'love-01'
p7234
I1
tp7235
asS'are'
p7236
(lp7237
(g13
I118
tp7238
asS'false'
p7239
(lp7240
(S'false'
p7241
I1
tp7242
asS'lightly'
p7243
(lp7244
(S'light'
p7245
I1
tp7246
asS'gently'
p7247
(lp7248
(S'gentle'
p7249
I1
tp7250
asS'tonight'
p7251
(lp7252
(S'tonight'
p7253
I1
tp7254
asS'Other'
p7255
(lp7256
(S'other'
p7257
I1
tp7258
asS'torment'
p7259
(lp7260
(S'torment-01'
p7261
I1
tp7262
asS'have'
p7263
(lp7264
(g13
I58
tp7265
a(S'have-03'
p7266
I35
tp7267
a(S'have-rel-role-91'
p7268
I5
tp7269
a(S'have-frequency-91'
p7270
I2
tp7271
a(S'pass-03'
p7272
I2
tp7273
a(S'obligate-01'
p7274
I2
tp7275
a(S'person_have-rel-role-91'
p7276
I1
tp7277
a(S'permit-01'
p7278
I1
tp7279
a(S'trust-01'
p7280
I1
tp7281
a(S'have-06'
p7282
I1
tp7283
a(S'have-concession-91'
p7284
I1
tp7285
asS'need'
p7286
(lp7287
(S'need-01'
p7288
I8
tp7289
asS'trembling'
p7290
(lp7291
(S'tremble-01'
p7292
I1
tp7293
asS'clearly'
p7294
(lp7295
(S'clear'
p7296
I1
tp7297
asS'continents'
p7298
(lp7299
(S'continent'
p7300
I1
tp7301
asS'afraid'
p7302
(lp7303
(g13
I5
tp7304
a(S'fear-01'
p7305
I2
tp7306
asS'After'
p7307
(lp7308
(S'after'
p7309
I4
tp7310
asS'able'
p7311
(lp7312
(S'possible'
p7313
I7
tp7314
asS'mid'
p7315
(lp7316
(g13
I1
tp7317
asS'instance'
p7318
(lp7319
(g13
I2
tp7320
asS'326'
p7321
(lp7322
(S'asteroid_name_326'
p7323
I1
tp7324
asS'327'
p7325
(lp7326
(S'asteroid_name_327'
p7327
I1
tp7328
asS'which'
p7329
(lp7330
(g13
I28
tp7331
asS'325'
p7332
(lp7333
(S'asteroid_name_325'
p7334
I1
tp7335
asS'328'
p7336
(lp7337
(S'asteroid_name_328'
p7338
I1
tp7339
asS'329'
p7340
(lp7341
(S'asteroid_name_329'
p7342
I1
tp7343
asS'Siberia'
p7344
(lp7345
(S'country-region_name_"Siberia"'
p7346
I1
tp7347
asS'who'
p7348
(lp7349
(g13
I35
tp7350
asS'petals'
p7351
(lp7352
(S'petal'
p7353
I4
tp7354
asS'eight'
p7355
(lp7356
(g13
I2
tp7357
asS'but'
p7358
(lp7359
(S'contrast-01'
p7360
I19
tp7361
a(g13
I9
tp7362
a(S'have-concession-91'
p7363
I1
tp7364
asS'why'
p7365
(lp7366
(g13
I4
tp7367
a(S'cause-01'
p7368
I1
tp7369
asS'saddest'
p7370
(lp7371
(S'sad_most'
p7372
I1
tp7373
asS'upset'
p7374
(lp7375
(S'upset-01'
p7376
I1
tp7377
asS'face'
p7378
(lp7379
(S'face'
p7380
I2
tp7381
asS'looked'
p7382
(lp7383
(S'look-01'
p7384
I10
tp7385
a(S'look-02'
p7386
I3
tp7387
asS'absurd'
p7388
(lp7389
(S'absurd'
p7390
I3
tp7391
asS'occasion'
p7392
(lp7393
(S'occasion'
p7394
I1
tp7395
asS'fact'
p7396
(lp7397
(g13
I1
tp7398
asS'affair'
p7399
(lp7400
(S'affair'
p7401
I1
tp7402
asS'anyway'
p7403
(lp7404
(S'anyway'
p7405
I1
tp7406
asS'bring'
p7407
(lp7408
(S'bring-01'
p7409
I2
tp7410
a(g13
I2
tp7411
asS'fear'
p7412
(lp7413
(S'fear-01'
p7414
I1
tp7415
asS'thicker'
p7416
(lp7417
(S'thick'
p7418
I1
tp7419
asS'trying'
p7420
(lp7421
(S'try-01'
p7422
I3
tp7423
asS'knowledge'
p7424
(lp7425
(S'knowledge'
p7426
I1
tp7427
asS'tire'
p7428
(lp7429
(S'tire-01'
p7430
I1
tp7431
asS'('
(lp7432
(g13
I4
tp7433
asS'should'
p7434
(lp7435
(g13
I13
tp7436
a(S'recommend-01'
p7437
I3
tp7438
asS'hope'
p7439
(lp7440
(S'hope-01'
p7441
I2
tp7442
asS'listened'
p7443
(lp7444
(S'listen-01'
p7445
I3
tp7446
asS'means'
p7447
(lp7448
(S'mean-01'
p7449
I3
tp7450
asS'Whether'
p7451
(lp7452
(g13
I1
tp7453
asS'familiar'
p7454
(lp7455
(S'familiar'
p7456
I1
tp7457
asS'lucky'
p7458
(lp7459
(S'lucky'
p7460
I1
tp7461
asS'bear'
p7462
(lp7463
(S'bear-01'
p7464
I1
tp7465
asS'ones'
p7466
(lp7467
(S'one'
p7468
I1
tp7469
asS'words'
p7470
(lp7471
(S'word-01'
p7472
I2
tp7473
a(S'word'
p7474
I2
tp7475
asS'Once'
p7476
(lp7477
(g13
I1
tp7478
a(S'once'
p7479
I1
tp7480
asS'Because'
p7481
(lp7482
(S'cause-01'
p7483
I6
tp7484
asS'Forget'
p7485
(lp7486
(S'forget-01'
p7487
I2
tp7488
asS'she'
p7489
(lp7490
(S'she'
p7491
I24
tp7492
a(g13
I14
tp7493
asS'guessing'
p7494
(lp7495
(S'guess-01'
p7496
I1
tp7497
asS'we'
p7498
(lp7499
(S'we'
p7500
I10
tp7501
a(g13
I1
tp7502
asS'Send'
p7503
(lp7504
(S'send-01'
p7505
I1
tp7506
asS'closer'
p7507
(lp7508
(S'close'
p7509
I1
tp7510
asS'Good'
p7511
(lp7512
(S'good'
p7513
I23
tp7514
a(g13
I2
tp7515
asS'favor'
p7516
(lp7517
(g13
I1
tp7518
asS'closed'
p7519
(lp7520
(S'close-01'
p7521
I2
tp7522
asS'importance'
p7523
(lp7524
(S'important'
p7525
I3
tp7526
asS'sorrow'
p7527
(lp7528
(S'sorrow-01'
p7529
I3
tp7530
asS'strides'
p7531
(lp7532
(S'stride-01'
p7533
I1
tp7534
asS'key'
p7535
(lp7536
(S'key'
p7537
I1
tp7538
asS'precious'
p7539
(lp7540
(S'precious'
p7541
I1
tp7542
asS'garden'
p7543
(lp7544
(S'garden'
p7545
I3
tp7546
asS'instant'
p7547
(lp7548
(S'instant'
p7549
I3
tp7550
asS'asunder'
p7551
(lp7552
(S'asunder'
p7553
I1
tp7554
asS'assure'
p7555
(lp7556
(S'assure-01'
p7557
I1
tp7558
asS'Indies'
p7559
(lp7560
(S'world-region_name_"Indies"'
p7561
I1
tp7562
asS'figures'
p7563
(lp7564
(S'figure'
p7565
I2
tp7566
asS'puff'
p7567
(lp7568
(S'puff-04'
p7569
I1
tp7570
asS'passing'
p7571
(lp7572
(S'pass-02'
p7573
I1
tp7574
asS'adjusted'
p7575
(lp7576
(S'adjust-01'
p7577
I1
tp7578
asS'wall'
p7579
(lp7580
(S'wall'
p7581
I7
tp7582
asS'walk'
p7583
(lp7584
(S'walk-01'
p7585
I8
tp7586
asS'businessman'
p7587
(lp7588
(S'businessman'
p7589
I11
tp7590
asS'laugh'
p7591
(lp7592
(S'laugh-01'
p7593
I5
tp7594
asS'kings'
p7595
(lp7596
(S'have-org-role-91_king'
p7597
I2
tp7598
a(S'king'
p7599
I1
tp7600
asS'addition'
p7601
(lp7602
(g13
I1
tp7603
asS'hunters'
p7604
(lp7605
(S'person_hunt-01'
p7606
I3
tp7607
asS'drank'
p7608
(lp7609
(S'drink-01'
p7610
I3
tp7611
asS'slowly'
p7612
(lp7613
(S'slow'
p7614
I3
tp7615
asS'treat'
p7616
(lp7617
(S'treat'
p7618
I1
tp7619
asS'waste'
p7620
(lp7621
(S'waste-01'
p7622
I2
tp7623
asS'faced'
p7624
(lp7625
(S'face'
p7626
I2
tp7627
asS'shoulders'
p7628
(lp7629
(S'shoulder'
p7630
I1
tp7631
asS'perplexed'
p7632
(lp7633
(S'perplex-01'
p7634
I1
tp7635
asS'hoisted'
p7636
(lp7637
(S'hoist-01'
p7638
I1
tp7639
asS'am'
p7640
(lp7641
(g13
I47
tp7642
a(S'and'
p7643
I1
tp7644
asS'Thursday'
p7645
(lp7646
(S'thursday'
p7647
I2
tp7648
asS'general'
p7649
(lp7650
(g13
I4
tp7651
a(S'have-org-role-91_general'
p7652
I2
tp7653
a(S'general'
p7654
I1
tp7655
asS'present'
p7656
(lp7657
(S'present'
p7658
I3
tp7659
a(g13
I1
tp7660
a(S'present-01'
p7661
I1
tp7662
asS'And'
p7663
(lp7664
(S'and'
p7665
I106
tp7666
a(g13
I10
tp7667
asS'abandoned'
p7668
(lp7669
(S'abandon-01'
p7670
I1
tp7671
asS'imagination'
p7672
(lp7673
(S'imagine-01'
p7674
I1
tp7675
asS'appearance'
p7676
(lp7677
(S'thing_appear-01'
p7678
I1
tp7679
asS'examine'
p7680
(lp7681
(g13
I1
tp7682
asS'will'
p7683
(lp7684
(g13
I70
tp7685
a(S'will'
p7686
I1
tp7687
a(S'do-02'
p7688
I1
tp7689
a(S'be-temporally-at-91'
p7690
I1
tp7691
asS'wild'
p7692
(lp7693
(S'wild'
p7694
I1
tp7695
asS'happened'
p7696
(lp7697
(g13
I1
tp7698
asS'surface'
p7699
(lp7700
(S'surface'
p7701
I1
tp7702
asS'respected'
p7703
(lp7704
(S'respect-01'
p7705
I1
tp7706
asS'against'
p7707
(lp7708
(g13
I5
tp7709
a(S'again'
p7710
I1
tp7711
asS'You'
p7712
(lp7713
(S'you'
p7714
I50
tp7715
a(g13
I3
tp7716
asS'sits'
p7717
(lp7718
(S'sit-02'
p7719
I1
tp7720
asS'perhaps'
p7721
(lp7722
(S'perhaps'
p7723
I1
tp7724
a(g13
I1
tp7725
asS'began'
p7726
(lp7727
(S'begin-01'
p7728
I5
tp7729
asS'radiation'
p7730
(lp7731
(S'radiate-01'
p7732
I1
tp7733
asS'cross'
p7734
(lp7735
(S'cross-examine-01'
p7736
I1
tp7737
asS'gesture'
p7738
(lp7739
(S'gesture-01'
p7740
I2
tp7741
asS'strange'
p7742
(lp7743
(S'strange'
p7744
I3
tp7745
asS'painstaking'
p7746
(lp7747
(S'painstaking'
p7748
I1
tp7749
asS'digging'
p7750
(lp7751
(S'dig-01'
p7752
I1
tp7753
asS'difficult'
p7754
(lp7755
(S'difficult'
p7756
I6
tp7757
asS'again'
p7758
(lp7759
(S'again'
p7760
I32
tp7761
asS'drink'
p7762
(lp7763
(S'drink-01'
p7764
I6
tp7765
asS'upon'
p7766
(lp7767
(g13
I8
tp7768
asS'discouraged'
p7769
(lp7770
(S'discourage-01'
p7771
I1
tp7772
asS'Order'
p7773
(lp7774
(S'order-01'
p7775
I1
tp7776
asS'scarcely'
p7777
(lp7778
(S'scarce'
p7779
I1
tp7780
asS'off'
p7781
(lp7782
(g13
I3
tp7783
asS'nevertheless'
p7784
(lp7785
(g13
I2
tp7786
asS'afar'
p7787
(lp7788
(S'afar'
p7789
I1
tp7790
asS'colour'
p7791
(lp7792
(S'colour'
p7793
I1
tp7794
asS'well'
p7795
(lp7796
(S'well'
p7797
I14
tp7798
a(g13
I2
tp7799
asS'Yet'
p7800
(lp7801
(g13
I1
tp7802
asS'thought'
p7803
(lp7804
(S'think-01'
p7805
I9
tp7806
a(S'thing_think-01'
p7807
I1
tp7808
asS'command'
p7809
(lp7810
(S'command-02'
p7811
I1
tp7812
asS'position'
p7813
(lp7814
(S'position-01'
p7815
I1
tp7816
asS'realised'
p7817
(lp7818
(S'realize-01'
p7819
I2
tp7820
asS'bending'
p7821
(lp7822
(S'bend-01'
p7823
I1
tp7824
asS'confidences'
p7825
(lp7826
(S'confide-01'
p7827
I1
tp7828
asS'cried'
p7829
(lp7830
(S'cry-02'
p7831
I1
tp7832
a(S'cry-01'
p7833
I1
tp7834
asS'accurate'
p7835
(lp7836
(S'accuracy'
p7837
I1
tp7838
asS'liked'
p7839
(lp7840
(S'like-02'
p7841
I1
tp7842
asS'ermine'
p7843
(lp7844
(S'ermine'
p7845
I3
tp7846
asS'mistakes'
p7847
(lp7848
(S'mistake'
p7849
I1
tp7850
asS'rocked'
p7851
(lp7852
(S'rock-01'
p7853
I1
tp7854
asS'protecting'
p7855
(lp7856
(S'protect-01'
p7857
I1
tp7858
asS'Be'
p7859
(lp7860
(g13
I1
tp7861
asS'cigarette'
p7862
(lp7863
(S'cigarette'
p7864
I1
tp7865
asS'roses'
p7866
(lp7867
(S'rose'
p7868
I9
tp7869
asS'supply'
p7870
(lp7871
(S'supply-01'
p7872
I1
tp7873
asS'sky'
p7874
(lp7875
(S'sky'
p7876
I7
tp7877
asS'realize'
p7878
(lp7879
(S'realize-01'
p7880
I1
tp7881
asS'reasons'
p7882
(lp7883
(S'reason-01'
p7884
I1
tp7885
asS'add'
p7886
(lp7887
(S'add-02'
p7888
I1
tp7889
a(S'add-04'
p7890
I1
tp7891
a(S'add-05'
p7892
I1
tp7893
asS'book'
p7894
(lp7895
(S'book'
p7896
I1
tp7897
asS'ought'
p7898
(lp7899
(S'recommend-01'
p7900
I4
tp7901
a(g13
I1
tp7902
asS'Unfortunately'
p7903
(lp7904
(g13
I1
tp7905
asS'government'
p7906
(lp7907
(S'government-organization_govern-01'
p7908
I1
tp7909
asS'five'
p7910
(lp7911
(g13
I8
tp7912
a(S'5'
I4
tp7913
asS'know'
p7914
(lp7915
(S'know-01'
p7916
I31
tp7917
a(g13
I1
tp7918
a(S'person_know-01'
p7919
I1
tp7920
a(S'thing_know-01'
p7921
I1
tp7922
asS'desk'
p7923
(lp7924
(S'desk'
p7925
I1
tp7926
asS'rumpled'
p7927
(lp7928
(S'rumple-02'
p7929
I1
tp7930
asS'like'
p7931
(lp7932
(g13
I33
tp7933
a(S'resemble-01'
p7934
I6
tp7935
a(S'like-01'
p7936
I2
tp7937
a(S'like-02'
p7938
I2
tp7939
asS'lost'
p7940
(lp7941
(S'lose-02'
p7942
I2
tp7943
asS'simply'
p7944
(lp7945
(S'simple'
p7946
I2
tp7947
asS'page'
p7948
(lp7949
(S'page'
p7950
I1
tp7951
asS'because'
p7952
(lp7953
(S'cause-01'
p7954
I19
tp7955
a(g13
I4
tp7956
asS'shabby'
p7957
(lp7958
(S'shabby'
p7959
I1
tp7960
asS'belonged'
p7961
(lp7962
(S'belong-01'
p7963
I1
tp7964
asS'authority'
p7965
(lp7966
(S'authority'
p7967
I4
tp7968
asS'hair'
p7969
(lp7970
(S'hair'
p7971
I3
tp7972
asS'111'
p7973
(lp7974
(S'111'
p7975
I1
tp7976
asS'proper'
p7977
(lp7978
(S'proper'
p7979
I1
tp7980
asS'home'
p7981
(lp7982
(S'home'
p7983
I3
tp7984
asS'proofs'
p7985
(lp7986
(g13
I2
tp7987
asS'shrub'
p7988
(lp7989
(S'shrub'
p7990
I1
tp7991
asS'lead'
p7992
(lp7993
(S'lead-05'
p7994
I1
tp7995
a(S'lead-01'
p7996
I1
tp7997
asS'objected'
p7998
(lp7999
(S'object-01'
p8000
I1
tp8001
asS'cabbages'
p8002
(lp8003
(S'cabbage'
p8004
I1
tp8005
asS'does'
p8006
(lp8007
(g13
I18
tp8008
a(S'do-02'
p8009
I1
tp8010
asS'Conceited'
p8011
(lp8012
(S'person_conceit'
p8013
I1
tp8014
asS'?'
(lp8015
(g13
I127
tp8016
asS'noise'
p8017
(lp8018
(S'noise'
p8019
I2
tp8020
a(g13
I1
tp8021
asS'obey'
p8022
(lp8023
(S'obey-01'
p8024
I3
tp8025
asS'slight'
p8026
(lp8027
(S'slight'
p8028
I1
tp8029
asS'dangling'
p8030
(lp8031
(S'dangle-01'
p8032
I1
tp8033
asS'although'
p8034
(lp8035
(g13
I1
tp8036
asS'choked'
p8037
(lp8038
(S'choke-04'
p8039
I1
tp8040
asS'hiding'
p8041
(lp8042
(S'hide-01'
p8043
I1
tp8044
asS'throne'
p8045
(lp8046
(S'throne'
p8047
I1
tp8048
asS'about'
p8049
(lp8050
(g13
I9
tp8051
a(S'about'
p8052
I5
tp8053
a(S'about-to'
p8054
I3
tp8055
asS'puts'
p8056
(lp8057
(S'put-09'
p8058
I1
tp8059
asS'linger'
p8060
(lp8061
(S'linger-01'
p8062
I1
tp8063
asS'universe'
p8064
(lp8065
(S'universe'
p8066
I2
tp8067
asS'South America'
p8068
(lp8069
(S'person_continent_name_"South"_"America"'
p8070
I1
tp8071
asS'own'
p8072
(lp8073
(S'own-01'
p8074
I9
tp8075
a(g13
I4
tp8076
asS'Somewhere'
p8077
(lp8078
(g13
I1
tp8079
asS'travelers'
p8080
(lp8081
(S'person_travel-01'
p8082
I2
tp8083
a(S'travel-01'
p8084
I1
tp8085
asS'Two'
p8086
(lp8087
(S'2'
I2
tp8088
asS'promise'
p8089
(lp8090
(S'thing_promise-01'
p8091
I2
tp8092
asS'tiny'
p8093
(lp8094
(S'tiny'
p8095
I1
tp8096
asS'roads'
p8097
(lp8098
(S'road'
p8099
I1
tp8100
asS'.'
(lp8101
(g13
I962
tp8102
asS'Approach'
p8103
(lp8104
(S'approach-01'
p8105
I1
tp8106
asS'mere'
p8107
(lp8108
(S'mere'
p8109
I1
tp8110
asS'brilliantly'
p8111
(lp8112
(S'brilliant'
p8113
I3
tp8114
asS'Yawn'
p8115
(lp8116
(S'yawn-01'
p8117
I1
tp8118
asS'expectantly'
p8119
(lp8120
(S'expect-01'
p8121
I1
tp8122
asS'naturally'
p8123
(lp8124
(S'natural'
p8125
I1
tp8126
asS'buy'
p8127
(lp8128
(S'buy-01'
p8129
I3
tp8130
asS'enchantment'
p8131
(lp8132
(S'enchant-01'
p8133
I1
tp8134
asS'Well'
p8135
(lp8136
(S'have-concession-91'
p8137
I1
tp8138
a(S'well'
p8139
I1
tp8140
asS'preparations'
p8141
(lp8142
(S'prepare-02'
p8143
I2
tp8144
asS'repeated'
p8145
(lp8146
(S'repeat-01'
p8147
I4
tp8148
asS'sprinkling'
p8149
(lp8150
(S'sprinkle-01'
p8151
I1
tp8152
asS'eat'
p8153
(lp8154
(S'eat-01'
p8155
I3
tp8156
asS'bud'
p8157
(lp8158
(S'bud'
p8159
I1
tp8160
asS'he'
p8161
(lp8162
(S'he'
p8163
I124
tp8164
a(g13
I63
tp8165
asS'count'
p8166
(lp8167
(S'count-01'
p8168
I3
tp8169
asS'made'
p8170
(lp8171
(g13
I10
tp8172
a(S'make-01'
p8173
I8
tp8174
a(S'make-02'
p8175
I4
tp8176
a(S'shame-01'
p8177
I1
tp8178
asS'tossed'
p8179
(lp8180
(S'toss-01'
p8181
I1
tp8182
asS'whether'
p8183
(lp8184
(g13
I1
tp8185
asS'wish'
p8186
(lp8187
(S'wish-01'
p8188
I3
tp8189
asS'grieve'
p8190
(lp8191
(S'grieve-01'
p8192
I1
tp8193
asS'excitement'
p8194
(lp8195
(S'excite-01'
p8196
I1
tp8197
asS'record'
p8198
(lp8199
(S'record-01'
p8200
I2
tp8201
asS'carriage'
p8202
(lp8203
(S'carriage'
p8204
I1
tp8205
asS'problem'
p8206
(lp8207
(S'problem'
p8208
I1
tp8209
asS'minutes'
p8210
(lp8211
(S'temporal-quantity_minute'
p8212
I6
tp8213
asS'rightly'
p8214
(lp8215
(S'right-41'
p8216
I1
tp8217
a(S'right'
p8218
I1
tp8219
asS'recognize'
p8220
(lp8221
(S'recognize-01'
p8222
I1
tp8223
asS'universal'
p8224
(lp8225
(S'universal'
p8226
I1
tp8227
asS'goodness'
p8228
(lp8229
(S'goodness'
p8230
I1
tp8231
asS'ink'
p8232
(lp8233
(S'ink'
p8234
I1
tp8235
asS'dressed'
p8236
(lp8237
(S'dress-01'
p8238
I1
tp8239
asS'other'
p8240
(lp8241
(S'other'
p8242
I16
tp8243
a(g13
I2
tp8244
asS'Five'
p8245
(lp8246
(g13
I4
tp8247
a(S'5'
I1
tp8248
asS'granite'
p8249
(lp8250
(S'granite'
p8251
I1
tp8252
asS'repeat'
p8253
(lp8254
(S'repeat-01'
p8255
I1
tp8256
asS'star'
p8257
(lp8258
(S'star'
p8259
I11
tp8260
asS'nourishment'
p8261
(lp8262
(S'nourish-01'
p8263
I1
tp8264
asS'chance'
p8265
(lp8266
(S'chance'
p8267
I1
tp8268
asS'friends'
p8269
(lp8270
(S'have-rel-role-91_friend'
p8271
I4
tp8272
a(S'friend'
p8273
I2
tp8274
asS'South'
p8275
(lp8276
(S'"South_America"'
p8277
I1
tp8278
asS'stirred'
p8279
(lp8280
(S'stir-02'
p8281
I2
tp8282
asS'Thus'
p8283
(lp8284
(g13
I1
tp8285
asS'lasted'
p8286
(lp8287
(S'last-01'
p8288
I1
tp8289
asS'rule'
p8290
(lp8291
(S'rule-03'
p8292
I3
tp8293
asS'understand'
p8294
(lp8295
(S'understand-01'
p8296
I15
tp8297
a(S'thing_understand-01'
p8298
I1
tp8299
asS'Orders'
p8300
(lp8301
(S'order'
p8302
I1
tp8303
as.