(dp1
S'afp_eng_20100601_0724.8'
p2
(lp3
S'On Sunday, a 47-year-old unemployed man was executed for carrying out an assault on 32 people, mostly small children, at a kindergarten in eastern China in April.'
p4
asS'afp_eng_20100601_0724.9'
p5
(lp6
S'The man, Xu Yuyuan, wielded a knife usually used to slaughter pigs.'
p7
asS'nyt_eng_20130828_0147.1'
p8
(lp9
S"FORMER JPMORGAN EMPLOYEE SURRENDERS IN 'LONDON WHALE' CASE"
p10
asS'nyt_eng_20130709_0087.21'
p11
(lp12
S'Mastromarino, who was divorced, is survived by two sons, Michael and Jerry.'
p13
asS'web1-eng-DF-212-191698-32063_0003.3'
p14
(lp15
S"It is sickening, but unfortunately we don't have many options at this point."
p16
asS'afp_eng_20100601_0724.2'
p17
(lp18
S'Beijing, June 1, 2010 (AFP) -'
p19
asS'afp_eng_20100601_0724.3'
p20
(lp21
S'Chinese President Hu Jintao has called on the entire nation to do more to ensure the safety of children, state press said Tuesday, in comments that follow a spate of grisly school killings.'
p22
asS'apw_eng_20101231_0037.23'
p23
(lp24
S"Authorities ordered raises of 60 to 80 percent in public transport fares, but bus drivers argue that isn't enough to offset the higher costs."
p25
asS'afp_eng_20100601_0724.1'
p26
(lp27
S'China president urges child safety after school killings'
p28
asS'afp_eng_20100601_0724.6'
p29
(lp30
S'His remarks come after a spate of bloody school attacks around China since late March which have left 17 people dead, including 15 students, and scores injured.'
p31
asS'afp_eng_20100601_0724.7'
p32
(lp33
S'Experts say the senseless assaults reveal a China struggling to come to grips with rapid social change following decades of booming economic growth.'
p34
asS'afp_eng_20100601_0724.4'
p35
(lp36
S'"The entire society must pay importance to the safety of children and do everything to safeguard our motherland\'s next generation," the People\'s Daily quoted Hu as saying.'
p37
asS'afp_eng_20100601_0724.5'
p38
(lp39
S"Hu was speaking Monday as he toured a Beijing exhibit on transport and building safety with a group of schoolchildren on the eve of International Children's Day, the report said."
p40
asS'web1-eng-DF-212-191698-32063_0001.6'
p41
(lp42
S"This is being seen as another clear indicator of the Pakistani establishment's involvement in the planning and execution of the Mumbai terror attack, which claimed 168 lives."
p43
asS'nyt_eng_20131029_0228.33'
p44
(lp45
S'All 78 were appointed by Scott\xe2\x80\x99s predecessor and likely 2014 opponent, Crist.'
p46
asS'web1-eng-DF-212-191698-32063_0001.4'
p47
(lp48
S'A frogman is someone who is trained to dive, swim and combat.'
p49
asS'web1-eng-DF-212-191698-32063_0001.5'
p50
(lp51
S'"The role of frogmen was confirmed by Headley when the Indian investigators interrogated him in the US last month," an official said.'
p52
asS'web1-eng-DF-212-191698-32063_0001.2'
p53
(lp54
S'In yet another indication of the involvement of Pakistani establishment in the 26/11 Mumbai attack, LeT operative David Headley has corroborated the statement of lone captured terrorist Ajmal Amir Kasab that the terrorists got training from Pakistan Navy.'
p55
asS'web1-eng-DF-212-191698-32063_0001.3'
p56
(lp57
S"During his interrogation, Kasab confessed that the ten terrorists, including himself, who attacked Mumbai received training of swimming and underwater diving from the Pakistan Navy's frogmen."
p58
asS'web1-eng-DF-233-195474-1207335_0010.2'
p59
(lp60
S'Yes_it_is.'
p61
asS'web1-eng-DF-212-191698-32063_0001.8'
p62
(lp63
S'Pakistani-American Headley, currently in American custody, was interrogated by a team of National Investigation Agency.'
p64
asS'web1-eng-DF-183-195685-4204154_0002.1'
p65
(lp66
S'1. All by-products of the " Grassy Knoll "'
p67
asS'web1-eng-DF-233-195474-1207335_0010.1'
p68
(lp69
S'YES'
p70
asS'nyt_eng_20131029_0228.32'
p71
(lp72
S'Antonacci said the pace of rejections is likely to quicken, because terms of 78 JNC members are scheduled to expire by June.'
p73
asS'apw_eng_20101231_0037.21'
p74
(lp75
S'He said demonstrators want prices lowered back to their former levels.'
p76
asS'apw_eng_20101231_0037.20'
p77
(lp78
S'Neighborhood protest leader Claudio Luna said in La Paz that the government\'s "message hasn\'t met the expectations of the population, and for that reason we\'re going to continue the protests."'
p79
asS'nyt_eng_20131029_0228.3'
p80
(lp81
S'TALLAHASSEE \xe2\x80\x94 Gov. Rick Scott, seeking to bring the court system more in line with his conservative outlook, has repeatedly rejected lists recommended to him by the Florida Bar of lawyers seeking to screen candidates for judgeships.'
p82
asS'bolt-eng-DF-170-181122-8787556_0039.7'
p83
(lp84
S'They are thugs and deserve a bullet.'
p85
asS'bolt-eng-DF-170-181122-8787556_0039.6'
p86
(lp87
S'I am tired of thugs crying that they get in trouble just because they are black and that society made them do it, bull!!!!'
p88
asS'bolt-eng-DF-170-181122-8787556_0039.5'
p89
(lp90
S'If the perps are black they are still guilty.'
p91
asS'apw_eng_20101231_0037.22'
p92
(lp93
S'Bus drivers have also held sporadic protests this week, demanding the government further increase fares.'
p94
asS'bolt-eng-DF-170-181122-8787556_0039.3'
p95
(lp96
S'You are an idiot.'
p97
asS'bolt-eng-DF-170-181122-8787556_0039.2'
p98
(lp99
S"he same people who don't not like Obama because of his race post this kind of crap."
p100
asS'bolt-eng-DF-170-181122-8787556_0039.1'
p101
(lp102
S'Because post racial America is showing itself...'
p103
asS'apw_eng_20101231_0037.25'
p104
(lp105
S'People seeking bargains lined up at a state-run food store in La Paz on Thursday.'
p106
asS'web1-eng-DF-183-195729-5441907_0001.30'
p107
(lp108
S'\xe2\x80\x9cExecutives of these companies have to understand that miners and their families know the real story of what happened here \xe2\x80\x93 and because of our efforts, so do millions of working people across the country.'
p109
asS'apw_eng_20101231_0037.24'
p110
(lp111
S'Food prices have also risen 15 percent in subsidized government markets, but that remained much less than in private supermarkets.'
p112
asS'apw_eng_20090611_0697.19'
p113
(lp114
S'But it also drew protests, including at La Sapienza university, where Gadhafi was addressing a group of few hundred students.'
p115
asS'apw_eng_20090611_0697.18'
p116
(lp117
S"Gadhafi's visit to Italy continued that process of emergence from international isolation."
p118
asS'web1-eng-DF-233-195474-1207335_0008.1'
p119
(lp120
S"It's_a_fucking_shame_what's_happening_to_him,_but_ he_is_a_little_out_there._Not_eaxctly_the_best_spo kesperson_for_marijuana"
p121
asS'apw_eng_20090611_0697.13'
p122
(lp123
S'The Libyan leader told the lawmakers he was being intentionally provocative "in order to try and understand acts of terrorism."'
p124
asS'apw_eng_20090611_0697.12'
p125
(lp126
S"The Libyans say the retaliatory attacks killed 41 people, including Gadhafi's adopted daughter, and injured 226 others."
p127
asS'apw_eng_20090611_0697.11'
p128
(lp129
S'Former President Ronald Reagan ordered airstrikes on Tripoli and Benghazi in April 1986 after an attack on a disco in Germany killed three people, including two U.S. servicemen.'
p130
asS'apw_eng_20090611_0697.10'
p131
(lp132
S'If anything, he said, bin Laden is an outlaw, while the United States is a country that should abide by international law.'
p133
asS'apw_eng_20090611_0697.17'
p134
(lp135
S'The United States restored diplomatic ties with Libya in 2006 and removed the North African nation from the State Department list of countries that sponsor terrorism.'
p136
asS'apw_eng_20090611_0697.16'
p137
(lp138
S'Libyan Abdel Basset Ali al-Megrahi was convicted of blowing up the plane.'
p139
asS'apw_eng_20090611_0697.15'
p140
(lp141
S'Libya has since agreed to pay compensation to the families of the Berlin disco victims as well as the families of the victims of the 1988 Pan Am 103 bombing over Lockerbie, Scotland, which killed 270 people, including 189 Americans.'
p142
asS'apw_eng_20090611_0697.14'
p143
(lp144
S'Gadhafi had long been ostracized by the West for sponsoring terrorism, but in recent years sought to emerge from his pariah status by abandoning weapons of mass destruction and renouncing terrorism in 2003.'
p145
asS'web1-eng-DF-233-195474-1207335_0001.18'
p146
(lp147
S'"Sometimes you have to face up to the reality of what\'s going to happen, and under this scenario I may be free out of prison in two or three or four years," he said.'
p148
asS'web1-eng-DF-233-195474-1207335_0001.19'
p149
(lp150
S'Without the deal, Emery said, he would be facing much more time in jail.'
p151
asS'web1-eng-DF-212-191698-32063_0001.7'
p152
(lp153
S'Home secretary Gopal K Pillai had recently said that the ISI was "literally controlling and coordinating the (Mumbai) attack from beginning to end".'
p154
asS'web1-eng-DF-233-195474-1207335_0001.12'
p155
(lp156
S'Joint U.S.-Canada bust'
p157
asS'web1-eng-DF-233-195474-1207335_0001.13'
p158
(lp159
S'This is not the first time the marijuana activist has said his lawyers are cutting a deal with U.S. prosecutors.'
p160
asS'web1-eng-DF-233-195474-1207335_0001.10'
p161
(lp162
S'"I will be making a guilty plea to one count of marijuana distribution this summer, and then when I\'m sentenced the U.S. district attorney is going to be asking for five to eight years in a federal U.S. penitentiary," he told CBC News on Wednesday.'
p163
asS'nyt_eng_20131029_0228.30'
p164
(lp165
S"''That was a mistake,'' he said."
p166
asS'web1-eng-DF-233-195474-1207335_0001.16'
p167
(lp168
S"He's been fighting extradition ever since, but on Wednesday he said he now realizes it's a fight he's not going to win."
p169
asS'web1-eng-DF-233-195474-1207335_0001.17'
p170
(lp171
S'"Ultimately my lawyer is convinced that the Canadian government has never refused an extradition request from the United States and it\'s not going to start now," he said.'
p172
asS'web1-eng-DF-233-195474-1207335_0001.14'
p173
(lp174
S'In July 2008, Emery said he had made a deal in which he would serve a minimum of five years in jail, but he later blamed Canadian authorities when the deal fell through.'
p175
asS'web1-eng-DF-233-195474-1207335_0001.15'
p176
(lp177
S'The marijuana activist is facing drug charges for selling pot seeds to U.S. customers, after his Vancouver-based mail order business was busted in a joint operation involving both U.S. and Canadian law enforcement agencies in 2005.'
p178
asS'bolt-eng-DF-170-181122-8787556_0037.1'
p179
(lp180
S'Why must we make this a race issue?'
p181
asS'bolt-eng-DF-170-181122-8787556_0037.3'
p182
(lp183
S"It's a horrible thing that happened."
p184
asS'bolt-eng-DF-170-181122-8787556_0037.2'
p185
(lp186
S'Really?'
p187
asS'bolt-eng-DF-170-181122-8787556_0037.5'
p188
(lp189
S"I don't think it is a race issue either."
p190
asS'bolt-eng-DF-170-181122-8787556_0037.4'
p191
(lp192
S"Well then, why is it a HATE CRIME when a White person does it to a Black but not a HATE CRIME when it's the other way around?"
p193
asS'bolt-eng-DF-170-181122-8787556_0037.7'
p194
(lp195
S"Although you do make a good point that it's only a hate crime if a white person picks on a black person."
p196
asS'bolt-eng-DF-170-181122-8787556_0037.6'
p197
(lp198
S'They need to throw these punks in jail!'
p199
asS'bolt-eng-DF-200-192446-3812122_0066.7'
p200
(lp201
S"well firstly that isn't true and secondly they pay a pathetically small amount of taxes anyway so provide next to nothing to this country."
p202
asS'bolt-eng-DF-200-192446-3812122_0066.6'
p203
(lp204
S'Lol banking is the only real money maker the UK has...'
p205
asS'bolt-eng-DF-200-192446-3812122_0066.5'
p206
(lp207
S'Hitler had an extensive welfare state, the BNP would punish the bankers to the point of destroying what is quite possibly the only real money maker the UK has.'
p208
asS'bolt-eng-DF-200-192446-3812122_0066.4'
p209
(lp210
S'Poor white folks blame their own poverty on the rich.'
p211
asS'bolt-eng-DF-200-192446-3812122_0066.3'
p212
(lp213
S"Because it's based on jealousy."
p214
asS'bolt-eng-DF-200-192446-3812122_0066.2'
p215
(lp216
S'Loads of "far right" parties advocate high taxes, why?'
p217
asS'bolt-eng-DF-200-192446-3812122_0066.1'
p218
(lp219
S"You're an idiot."
p220
asS'web1-eng-DF-183-195685-4204154_0003.1'
p221
(lp222
S"2. Everybody should read this before the liberal media whitewashes this asshole's past I tried real hard to remember that Colson was a human being and he had friends and relatives who cared about him and would feel sorrow that he croaked."
p223
asS'nyt_eng_20130426_0143.39'
p224
(lp225
S'But by then the country music mainstream had begun to move on to more polished styles, and Jones\xe2\x80\x99 visceral approach fell out of fashion.'
p226
asS'nyt_eng_20130426_0143.38'
p227
(lp228
S'Beginning in the 1980s, Jones, with the help of his fourth wife, Nancy Sepulvedo, pulled himself out of his tailspin.'
p229
asS'nyt_eng_20130426_0143.35'
p230
(lp231
S'He never lost his affection for that genre, but over the years he also evolved into a master of ballad singing, especially on his duets with Melba Montgomery and Wynette, both before and after they were married.'
p232
asS'nyt_eng_20130426_0143.34'
p233
(lp234
S'He began his career very much in the mold of his idol Hank Williams, singing tunes about honky-tonks and carousing.'
p235
asS'nyt_eng_20130426_0143.37'
p236
(lp237
S"It\xe2\x80\x99s almost forgotten now, but he and Elvis Presley once were co-headliners on a Louisiana Hayride tour, and generations of rock 'n\xe2\x80\x99 roll bands, including ones I played in, have covered songs like \xe2\x80\x9cWhy Baby Why,\xe2\x80\x9d \xe2\x80\x9cWhite Lightning\xe2\x80\x9d and \xe2\x80\x9cThe Race Is On\xe2\x80\x9d and found them to be guaranteed crowd-pleasers."
p238
asS'nyt_eng_20130426_0143.36'
p239
(lp240
S'And though a brief late \xe2\x80\x9850s flirtation with rockabilly didn\xe2\x80\x99t pan out, Jones also knew how to rock.'
p241
asS'nyt_eng_20130426_0143.31'
p242
(lp243
S'@In part because of his consistent \xe2\x80\x9cnipping,\xe2\x80\x9d as he called it, Jones never enjoyed the crossover success of his contemporaries Johnny Cash and Merle Haggard, and so his passing will probably not have the broad cultural resonance that Cash\xe2\x80\x99s did.'
p244
asS'nyt_eng_20130426_0143.30'
p245
(lp246
S'With the choices I made'
p247
asS'nyt_eng_20130426_0143.33'
p248
(lp249
S'But even within the confines of \xe2\x80\x9cpure country,\xe2\x80\x9d whatever that term might mean today, Jones did not stand still.'
p250
asS'nyt_eng_20130426_0143.32'
p251
(lp252
S'But he was, hands down, a superior singer, a fact obvious to everyone in the country music field: As Waylon Jennings once sang, \xe2\x80\x9cIf we all could sound like we wanted to, we\xe2\x80\x99d all sound like George Jones.\xe2\x80\x9d'
p253
asS'nyt_eng_20131022_0102.22'
p254
(lp255
S'The City College students whom the center\xe2\x80\x99s name honors have never visited.'
p256
asS'nyt_eng_20131022_0102.23'
p257
(lp258
S'Guillermo Morales, a leader of the FALN, a Puerto Rican independence group that claimed responsibility for a deadly bombing in New York, fled to Cuba.'
p259
asS'nyt_eng_20131022_0102.20'
p260
(lp261
S'\xe2\x80\x9cWe were concerned that we might have to move people, and that would not have been safe,\xe2\x80\x9d Hill said.'
p262
asS'nyt_eng_20131022_0102.21'
p263
(lp264
S'As for the protests, \xe2\x80\x9cStudents were exercising their free speech rights, which the college supports,\xe2\x80\x9d she said.'
p265
asS'nyt_eng_20131022_0102.26'
p266
(lp267
S'In the ensuing controversy, CUNY\xe2\x80\x99s chancellor ordered that it be changed.'
p268
asS'nyt_eng_20131022_0102.27'
p269
(lp270
S'But it stuck.'
p271
asS'nyt_eng_20131022_0102.24'
p272
(lp273
S'So did Shakur, who as a member of the Black Liberation Army was convicted in the 1973 killing of a New Jersey State trooper.'
p274
asS'nyt_eng_20131022_0102.25'
p275
(lp276
S'In 2006, a student objected to the name of the center.'
p277
asS'nyt_eng_20131029_0228.4'
p278
(lp279
S'Scott has rejected dozens of attorneys the Bar has nominated to serve on judicial nominating commissions, created decades ago to professionalize the bench and make merit and qualifications at least as important as political connections.'
p280
asS'nyt_eng_20131022_0102.28'
p281
(lp282
S'Taf Sourov, 19, a member of the Revolutionary Student Coordinating Committee, a group that regularly met there, said he believed the closing was retaliation for student protests against David H. Petraeus, the former CIA director and military commander, who is teaching a course at the Macaulay Honors College.'
p283
asS'nyt_eng_20131022_0102.29'
p284
(lp285
S'\xe2\x80\x9cI practically lived out of the room,\xe2\x80\x9d Sourov said.'
p286
asS'nyt_eng_20130816_0151.12'
p287
(lp288
S'The Dream Defenders tried to persuade state lawmakers to call the session themselves, but they couldn\xe2\x80\x99t muster the 96 votes needed.'
p289
asS'nyt_eng_20131029_0228.18'
p290
(lp291
S"Antonacci said lawyers with such backgrounds are more likely to have a ''living constitution\xe2\x80\x99' view of the law as evolving and ever-changing, which he said is at odds with Scott\xe2\x80\x99s views."
p292
asS'nyt_eng_20130424_0047.12'
p293
(lp294
S'Even the Justice Department appears to have approved one major change: requiring law enforcement to get a search warrant for all kinds of electronic content, no matter how long it has been in electronic storage or what exactly electronic storage means.'
p295
asS'apw_eng_20101231_0037.10'
p296
(lp297
S"Police used tear gas to disperse the protesters, who hurled stones at officers, the vice president's office, a union headquarters and two ministry buildings."
p298
asS'nyt_eng_20130424_0047.10'
p299
(lp300
S'The problem is that it was written when the cloud was just a cumulus in the sky.'
p301
asS'nyt_eng_20130424_0047.11'
p302
(lp303
S'Silicon Valley companies as well as advocacy groups from the political left and right have been lobbying for change for many years, and reform legislation seems to be gaining broad political support.'
p304
asS'nyt_eng_20130424_0047.16'
p305
(lp306
S'It could also lay out clearer rules for government agencies like the Internal Revenue Service to follow to gain access to private citizens\xe2\x80\x99 emails.'
p307
asS'nyt_eng_20130424_0047.17'
p308
(lp309
S'The agency told Congress recently that it seeks search warrants before reading taxpayer emails, though its written policy says otherwise, according to an information request filed by the American Civil Liberties Union.'
p310
asS'nyt_eng_20130424_0047.14'
p311
(lp312
S'\xe2\x80\x9cThe technology is advancing and people realize the law has to keep pace.\xe2\x80\x9d'
p313
asS'apw_eng_20101231_0037.11'
p314
(lp315
S'In El Alto, neighboring the capital, demonstrators set afire a car and toll booths.'
p316
asS'nyt_eng_20130424_0047.18'
p317
(lp318
S'Courts across the country, apparently baffled by how to apply the existing law, which applies to content held in \xe2\x80\x9celectronic storage,\xe2\x80\x9d have ruled in sometimes contradictory ways over the privacy of electronic material in both civil and criminal cases.'
p319
asS'nyt_eng_20130424_0047.19'
p320
(lp321
S'In one prominent case, Lee Jennings sued a relative of his wife who broke into his Yahoo account and ferreted out emails describing an extramarital affair that were later used as incriminating evidence in divorce proceedings.'
p322
asS'web1-eng-DF-183-195729-5441907_0001.25'
p323
(lp324
S'However, long-term funding for those benefits has not been secured.'
p325
asS'web1-eng-DF-183-195729-5441907_0001.24'
p326
(lp327
S'Last month, UWMA members approved a settlement with Patriot Coal, a company created by Peabody in 2007, which among other provisions established a mechanism for payment of health care benefits for retired miners.'
p328
asS'web1-eng-DF-183-195729-5441907_0001.27'
p329
(lp330
S'Arch Coal, another profitable company, dumped its retiree obligations into a company called Magnum Coal in 2005.'
p331
asS'web1-eng-DF-183-195729-5441907_0001.26'
p332
(lp333
S'The union also won a court ruling in August establishing Peabody\xe2\x80\x99s continued obligations to 3,100 miners and dependents, whose benefits remained with Peabody at the time of the Patriot spinoff.'
p334
asS'bolt-eng-DF-200-192446-3811676_0094.22'
p335
(lp336
S'I fully support the decision to go independent though, if that is the outcome of the referendum, just as I would support the decision to remain in the union.'
p337
asS'web1-eng-DF-183-195729-5441907_0001.20'
p338
(lp339
S'Marchers will proceed on Pine St. to Broadway, to Market.'
p340
asS'bolt-eng-DF-200-192446-3811676_0094.20'
p341
(lp342
S"I'm not necessarily for or against independence."
p343
asS'bolt-eng-DF-200-192446-3811676_0094.21'
p344
(lp345
S"I haven't really read into it enough to decide."
p346
asS'web1-eng-DF-212-191698-32063_0001.9'
p347
(lp348
S"Officials said that the Indian investigators so far have no plan to interrogate Headley's accomplice Tahawwur Hussain Rana, a Pakistani origin Canadian citizen, as his involvement in the Mumbai attack conspiracy was limited to providing finance."
p349
asS'web1-eng-DF-183-195729-5441907_0001.29'
p350
(lp351
S'\xe2\x80\x9cThis fight is anything but over,\xe2\x80\x9d said Roberts.'
p352
asS'web1-eng-DF-183-195729-5441907_0001.28'
p353
(lp354
S'Magnum was subsequently acquired by Patriot, which entered bankruptcy reorganization last year.'
p355
asS'web1-eng-DF-183-195685-4204154_0003.3'
p356
(lp357
S'None of his friends/relatives did anything to stop him from being a miserable piece of shit.'
p358
asS'web1-eng-DF-199-192802-997968_0001.6'
p359
(lp360
S'His trial started Thursday.'
p361
asS'web1-eng-DF-199-192802-997968_0001.1'
p362
(lp363
S'Afghan may face death for alleged conversion'
p364
asS'web1-eng-DF-183-195685-4204154_0001.1'
p365
(lp366
S"Colson authored the 1971 memo listing Nixon's major political opponents, later known as Nixon's Enemies List."
p367
asS'nyt_eng_20130509_0160.8'
p368
(lp369
S'Bertoldi\xe2\x80\x99s lawyer, Olivier Rondu, said Thursday that his client denied the accusations against him and was willing to be extradited to Belgium to confront the charges.'
p370
asS'afp_eng_20100414_0615.3'
p371
(lp372
S'A former militant of the French far-left group Action Directe, Georges Cipriani, left prison on parole on Wednesday after 23 years behind bars for two high-profile murders.'
p373
asS'afp_eng_20100414_0615.2'
p374
(lp375
S'ENSISHEIM, France, April 14, 2010 (AFP) -'
p376
asS'afp_eng_20100414_0615.1'
p377
(lp378
S'French far-left killer leaves jail'
p379
asS'nyt_eng_20130509_0160.9'
p380
(lp381
S'\xe2\x80\x9cHe has a surprising position that he wants to go to Belgium as quickly as possible to explain himself, because he says he has done nothing,\xe2\x80\x9d Rondu said.'
p382
asS'afp_eng_20100414_0615.7'
p383
(lp384
S'A fourth member, Jean-Marc Rouillan, remains behind bars.'
p385
asS'afp_eng_20100414_0615.6'
p386
(lp387
S'The four included two women, Joelle Aubron who died of lung cancer in 2006 and Nathalie Menignon, who was paroled in 2008.'
p388
asS'afp_eng_20100414_0615.5'
p389
(lp390
S'Cipriani was one of four members of Action Directe sentenced to life in prison for the murder of Renault chief George Besse in 1986 and the head of government arms sales Rene Audran a year earlier.'
p391
asS'afp_eng_20100414_0615.4'
p392
(lp393
S'A policeman at the scene confirmed to AFP the identity of Cipriani, 59, who left the prison in Ensisheim in northeastern France wearing a leather jacket and with long white hair.'
p394
asS'nyt_eng_20131029_0091.13'
p395
(lp396
S'Rep. Vicky Hartzler, the Republican who beat Skelton and still holds the seat, received support from many Tea Party members and tied him to Rep. Nancy Pelosi, D-Calif., then the House speaker.'
p397
asS'nyt_eng_20130424_0047.38'
p398
(lp399
S'He and his biographer, Paula Broadwell, had exchanged amorous correspondence in a \xe2\x80\x9cdraft\xe2\x80\x9d folder of a shared Gmail account, apparently to elude detection.'
p400
asS'nyt_eng_20131029_0091.11'
p401
(lp402
S'Before his defeat, he had not received less than 60 percent of the vote since 1982.'
p403
asS'afp_eng_20100414_0615.8'
p404
(lp405
S'Cipriani left Ensisheim in a police vehicle bound for an open prison near Strasbourg where the police officer said he was due to do community service including working at a food bank as part of his parole.'
p406
asS'nyt_eng_20131029_0091.17'
p407
(lp408
S'He is survived by his wife, Patricia Martin, and three sons.'
p409
asS'nyt_eng_20131029_0091.16'
p410
(lp411
S'After leaving the House, he became a partner at Husch Blackwell, working in its Missouri and Washington offices.'
p412
asS'nyt_eng_20131029_0091.15'
p413
(lp414
S'He served in the Missouri state Senate before entering Congress.'
p415
asS'nyt_eng_20130424_0047.39'
p416
(lp417
S'Those draft messages, because they had not been transmitted across the Internet, could have been viewed by federal authorities with nothing more than a subpoena, according to current law.'
p418
asS'web1-eng-DF-183-195685-4204154_0001.8'
p419
(lp420
S'He turns out to be really quite a phony."'
p421
asS'nyt_eng_20130703_0214.4'
p422
(lp423
S'When she refused to consummate the marriage, her in-laws locked her in a basement, where they burned her with hot wires, pulled out her fingernails and twisted her skin with pliers for months.'
p424
asS'nyt_eng_20130509_0160.2'
p425
(lp426
S'PARIS \xe2\x80\x93 Investigators in three countries continued unraveling the plot behind a brazen $50 million diamond robbery in Belgium, focusing Thursday on a Swiss lawyer, a real estate businessman and a French luxury car exporter with a prison record for fraud.'
p427
asS'nyt_eng_20130703_0214.6'
p428
(lp429
S'Gul now lives in a shelter in Kabul.'
p430
asS'nyt_eng_20130703_0214.7'
p431
(lp432
S'Her case attracted widespread attention in Afghanistan and abroad.'
p433
asS'nyt_eng_20130703_0214.1'
p434
(lp435
S'AFGHAN COURT REVERSES CONVICTION IN TORTURE OF YOUNG WOMAN'
p436
asS'nyt_eng_20130703_0214.2'
p437
(lp438
S'KABUL, Afghanistan - A court has reversed the convictions of three Afghans jailed for torturing a young relative who had refused to become a prostitute, alarming activists who had celebrated the guilty verdicts as a warning to all those who would seek to reverse the strides made by women here in the past 12 years.'
p439
asS'nyt_eng_20130509_0160.3'
p440
(lp441
S'After a series of raids Tuesday and Wednesday in Switzerland, Belgium and France, the authorities started releasing some of the more than 30 men who were arrested and questioned in connection with the Feb. 18 robbery, in which armed men in police suits attacked a Zurich-bound plane minutes before takeoff from the Brussels airport.'
p442
asS'nyt_eng_20130426_0143.40'
p443
(lp444
S'In recent years, Jones had thought of himself as a relic, and expressed bitterness at what he saw as the disregard for what he represented.'
p445
asS'bolt-eng-DF-170-181122-8787556_0051.8'
p446
(lp447
S"Still doesn't bend reality now does it?"
p448
asS'nyt_eng_20130703_0214.8'
p449
(lp450
S'Three of her in-laws were convicted last year of attempted murder, and each was sentenced to 10 years in prison.'
p451
asS'nyt_eng_20130703_0214.9'
p452
(lp453
S'The convictions were upheld on appeal, although her husband, who is in his 30s, remains at large.'
p454
asS'nyt_eng_20130822_0136.9'
p455
(lp456
S'Such is the perilous life of impartial arbitrators in baseball and other professional sports.'
p457
asS'nyt_eng_20130509_0160.1'
p458
(lp459
S'FOCUS TURNS TO THREE SUSPECTS IN BELGIAN DIAMOND ROBBERY'
p460
asS'nyt_eng_20130822_0136.3'
p461
(lp462
S'When John Gaherin, the chief labor negotiator for Major League Baseball, arrived for a meeting with the chief of the players union and baseball\xe2\x80\x99s arbitrator, he carried an envelope in the pocket of his suit jacket.'
p463
asS'nyt_eng_20130509_0160.6'
p464
(lp465
S'Investigators said Bertoldi\xe2\x80\x99s arrival in Geneva after the theft had provided a critical breakthrough in the inquiry.'
p466
asS'nyt_eng_20130822_0136.1'
p467
(lp468
S'A PINK-SLIP THANKS FOR A MAJOR DECISION'
p469
asS'nyt_eng_20130703_0214.5'
p470
(lp471
S'She was discovered in December 2011 curled up in a dank and dark corner of the cellar and badly malnourished.'
p472
asS'nyt_eng_20130822_0136.7'
p473
(lp474
S'As soon as he did, Gaherin handed Seitz the envelope.'
p475
asS'nyt_eng_20130822_0136.6'
p476
(lp477
S'Seitz had informally telegraphed his decision in a grievance case, and now he would formally hand his written opinion to the two men.'
p478
asS'nyt_eng_20130822_0136.5'
p479
(lp480
S'They knew that the subject of the meeting would be as serious a bit of business as baseball had ever experienced, and Gaherin went to the meeting prepared.'
p481
asS'nyt_eng_20130509_0160.7'
p482
(lp483
S'After Bertoldi\xe2\x80\x99s arrest, the police trailed an unidentified Swiss lawyer and a real estate owner Wednesday as they made an exchange of a key to a cellar where some of the stolen diamonds were discovered.'
p484
asS'nyt_eng_20130509_0160.4'
p485
(lp486
S'Investigators in Belgium and Switzerland suspect that a critical organizer in the plot was Marc Bertoldi, 43, a French car exporter whose listed address was in a wealthy seaside neighborhood of Antibes on the Cote d\xe2\x80\x99Azur and who owns a restaurant in Casablanca, Morocco.'
p487
asS'web1-eng-DF-199-192802-997968_0001.3'
p488
(lp489
S'The trial highlights a struggle between religious conservatives and reformists over what shape Islam will take here four years after the ouster of the Islamic fundamentalist Taliban regime.'
p490
asS'nyt_eng_20130509_0160.5'
p491
(lp492
S'He was arrested Tuesday in France and remains in prison, awaiting a hearing May 16 in Metz for extradition to Belgium.'
p493
asS'web1-eng-DF-183-195729-5441907_0001.33'
p494
(lp495
S'The union\xe2\x80\x99s ongoing effort to win full benefits for all affected retired miners includes a lawsuit against Peabody and Arch, filed in West Virginia; legislation in Congress to aid retired miners and their dependents, sponsored by both Republicans and Democrats; and an ongoing public education, advertising and community action campaign.'
p496
asS'nyt_eng_20131029_0228.24'
p497
(lp498
S"''I believe it\xe2\x80\x99s unprecedented,'' Macnab said."
p499
asS'nyt_eng_20131029_0228.25'
p500
(lp501
S"''This is a pretty blatant example of politicizing the court, and citizens should be concerned."
p502
asS'nyt_eng_20130710_0155.10'
p503
(lp504
S'Barrera is charged in Manhattan with one count of narcotics importation conspiracy, which carries a maximum sentence of life in prison.'
p505
asS'bolt-eng-DF-200-192446-3812122_0070.3'
p506
(lp507
S'from all the other taxes businesses and people pay?'
p508
asS'nyt_eng_20130710_0155.12'
p509
(lp510
S'His lawyer declined to comment.'
p511
asS'nyt_eng_20130710_0155.13'
p512
(lp513
S'Officials have said that Barrera, while residing in Venezuela, changed his appearance through plastic surgery, slept in different places and burned his fingertips to try to make it impossible to identify him.'
p514
asS'nyt_eng_20131029_0228.26'
p515
(lp516
S"\xe2\x80\xa6 It\xe2\x80\x99s disheartening.''"
p517
asS'bolt-eng-DF-200-192446-3812122_0070.4'
p518
(lp519
S"Barclays paid \xc2\xa3113m in corporation tax in 2009 if you combine it with all the other banks it doesn't even make \xc2\xa31billion so you are saying that in 2009 the only money the government made was \xc2\xa31billion?"
p520
asS'bolt-eng-DF-170-181122-8787556_0036.20'
p521
(lp522
S'bingo'
p523
asS'bolt-eng-DF-170-181122-8787556_0043.4'
p524
(lp525
S"Wasn't there."
p526
asS'bolt-eng-DF-170-181122-8787556_0043.5'
p527
(lp528
S'My opinion is based on the information provided.'
p529
asS'bolt-eng-DF-170-181122-8787556_0043.6'
p530
(lp531
S'Welcome to a message board.'
p532
asS'nyt_eng_20130822_0136.36'
p533
(lp534
S'The clubs and the commissioner have not done particularly well before arbitrators in instances where players have been suspended for conduct off the field.'
p535
asS'nyt_eng_20130822_0136.31'
p536
(lp537
S'The suit went all the way to the U.S. Supreme Court, where Flood lost.'
p538
asS'nyt_eng_20130822_0136.30'
p539
(lp540
S'Flood did not like it, and when the St. Louis Cardinals traded him to Philadelphia, he opted to sue the commissioner rather than go to the Phillies, contending that he should have the right to play where he wanted.'
p541
asS'nyt_eng_20130822_0136.33'
p542
(lp543
S'As heroic as Flood was in pursuing his lawsuit, it fell well short of having an effect.'
p544
asS'bolt-eng-DF-170-181122-8787556_0043.3'
p545
(lp546
S'Nope.'
p547
asS'nyt_eng_20131029_0228.20'
p548
(lp549
S"''The Florida Bar is not an accountable organization in any electoral way,'' Antonacci said."
p550
asS'nyt_eng_20130822_0136.39'
p551
(lp552
S'Baseball would have preferred settling all of the doping cases stemming from the investigation into Biogenesis, an anti-aging clinic that is believed to have distributed banned substances to baseball players.'
p553
asS'nyt_eng_20130822_0136.38'
p554
(lp555
S'Das was fired after his Braun ruling.'
p556
asS'nyt_eng_20131029_0228.21'
p557
(lp558
S"''The accountability in the process is with the governor.''"
p559
asS'nyt_eng_20130828_0147.5'
p560
(lp561
S'The criminal charges stem from a risky bet at JPMorgan\xe2\x80\x99s chief investment office in London, where Martin-Artajo worked.'
p562
asS'nyt_eng_20131022_0102.3'
p563
(lp564
S'NEW YORK - It was just a small room, one of hundreds in City College\xe2\x80\x99s North Academic Center, but over the years the Guillermo Morales/Assata Shakur Student and Community Center had taken on a significance beyond its square footage.'
p565
asS'nyt_eng_20131029_0228.22'
p566
(lp567
S"A spokeswoman for the Bar, Francine Walker, said: ''The Florida Bar respects that the governor can reject nominees it submits.''"
p568
asS'nyt_eng_20130525_0040.9'
p569
(lp570
S'The new claim was made on a number of different websites.'
p571
asS'nyt_eng_20130525_0040.8'
p572
(lp573
S'Belmokhtar, who is considered perhaps the most redoubtable of the region\xe2\x80\x99s surviving militants, also played a leading role in the Islamist takeover of northern Mali last year.'
p574
asS'nyt_eng_20130525_0040.7'
p575
(lp576
S'The latest claim by Belmokhtar - a veteran of training by al-Qaida in Afghanistan, years of terrorist acts against the Algerians and multiple kidnappings of Westerners in the Sahara - came hours after bomb-laden vehicles ripped through a military installation and a French-owned uranium mine in Niger.'
p577
asS'nyt_eng_20130525_0040.6'
p578
(lp579
S'No proof was presented of his death, and a fellow militant later denied it in an Internet posting.'
p580
asS'nyt_eng_20130525_0040.5'
p581
(lp582
S'Neither France nor Algeria, where Belmokhtar has been a wanted man for years for his role in the 1990s civil war there, ever confirmed Chad\xe2\x80\x99s assertion.'
p583
asS'nyt_eng_20130525_0040.4'
p584
(lp585
S'Experts saw no reason to doubt Belmokhtar\xe2\x80\x99s claim, despite the unconfirmed claim by the Chadian military, which said that Belmokhtar had died in the Ifoghas mountain range during the joint French-Chadian campaign against Islamist militants in northern Mali.'
p586
asS'nyt_eng_20130525_0040.3'
p587
(lp588
S'If true, Belmokhtar\xe2\x80\x99s claim would put one of the Sahel\xe2\x80\x99s most hardened militants, whom Chad\xe2\x80\x99s military said in March it had killed in battle, back at the center of the region\xe2\x80\x99s fight against Islamist jihad.'
p589
asS'nyt_eng_20130525_0040.2'
p590
(lp591
S'DAKAR, Senegal - Mokhtar Belmokhtar, the mastermind of the January seizure of an Algerian gas plant that left dozens of foreign hostages dead, has claimed responsibility for another terrorist attack - the suicide bombings on Thursday in Niger that killed about 30 people, including 24 soldiers and at least six jihadists.'
p592
asS'nyt_eng_20130525_0040.1'
p593
(lp594
S'MILITANT SAYS HE IS BEHIND FATAL NIGER ATTACK'
p595
asS'nyt_eng_20130709_0087.23'
p596
(lp597
S'But, she said, \xe2\x80\x9cat the same time, he would have appreciated the Dickensian nature of it.\xe2\x80\x9d'
p598
asS'nyt_eng_20130709_0087.22'
p599
(lp600
S'As for Cooke, his daughter, Susan Cooke Kittredge, said in an article in New York magazine that \xe2\x80\x9che would have been just horrified\xe2\x80\x9d by the illegal harvesting.'
p601
asS'bolt-eng-DF-170-181122-8787556_0049.8'
p602
(lp603
S'Because this is not Your Thread to name.'
p604
asS'bolt-eng-DF-170-181122-8787556_0049.9'
p605
(lp606
S'Works for me.'
p607
asS'bolt-eng-DF-170-181122-8787556_0049.6'
p608
(lp609
S'Why not a title lie "School Officials Screw over Rape Victim?"'
p610
asS'bolt-eng-DF-170-181122-8787556_0049.7'
p611
(lp612
S'That one would be more accurate.'
p613
asS'bolt-eng-DF-170-181122-8787556_0049.5'
p614
(lp615
S'Why is the title of your thread so insidious?'
p616
asS'nyt_eng_20130822_0136.40'
p617
(lp618
S'The union also seemed eager to settle.'
p619
asS'nyt_eng_20130822_0136.41'
p620
(lp621
S'But Rodriguez has appealed his 211-game suspension.'
p622
asS'nyt_eng_20130822_0136.42'
p623
(lp624
S'Given the volatility of the Rodriguez case, it would not be surprising if Horowitz\xe2\x80\x99s first major case were his last.'
p625
asS'nyt_eng_20130828_0147.3'
p626
(lp627
S'Martin-Artajo, a Spaniard who worked in the bank\xe2\x80\x99s London office, was released soon after his surrender and arrest.'
p628
asS'web1-eng-DF-170-181103-5520823_0015.3'
p629
(lp630
S'*shaking head in disgust*'
p631
asS'web1-eng-DF-170-181103-5520823_0015.2'
p632
(lp633
S'Jesus......'
p634
asS'nyt_eng_20130828_0147.2'
p635
(lp636
S'Weeks after the U.S. government charged Javier Martin-Artajo, a former JPMorgan Chase employee, with hiding trading losses that ultimately reached more than $6 billion, he had his first day in court Tuesday as he surrendered to Spanish authorities and kicked off what could be a lengthy extradition process.'
p637
asS'nyt_eng_20131029_0042.3'
p638
(lp639
S'In a letter to Obama, Dewhurst said the federal government should reimburse Texas counties for the cost of housing the undocumented immigrants because the feds have failed to secure the U.S. Mexico border as they should have.'
p640
asS'bolt-eng-DF-200-192446-3812122_0068.9'
p641
(lp642
S'They both stand to lose too much in the process.'
p643
asS'bolt-eng-DF-200-192446-3812122_0068.8'
p644
(lp645
S"China and India may have their differences, but they'll never go to war with each other."
p646
asS'apw_eng_20101231_0037.12'
p647
(lp648
S'People lined a bridge while protesters raised fists demanding the measure be repealed.'
p649
asS'apw_eng_20101231_0037.13'
p650
(lp651
S'Interior Minister Sacha Llorenti said disturbances in La Paz, El Alto and Cochabamba left 15 police officers injured, two seriously.'
p652
asS'apw_eng_20101231_0037.14'
p653
(lp654
S'A group of protesters burned a Venezuelan flag.'
p655
asS'apw_eng_20101231_0037.15'
p656
(lp657
S'"We make a call for calm, for tranquility; there are police on patrol to guarantee security," Llorenti told a news conference.'
p658
asS'apw_eng_20101231_0037.16'
p659
(lp660
S'Fuel prices had been frozen for six years, but the government said it could no longer afford to subsidize them, especially since much is smuggled across the border to neighboring countries.'
p661
asS'apw_eng_20101231_0037.17'
p662
(lp663
S"Responding to the protests, Morales' government has announced steps aimed at mitigating the economic effects _ including 20 percent salary increases for public workers aimed at offsetting higher fuel prices."
p664
asS'bolt-eng-DF-200-192446-3812122_0068.1'
p665
(lp666
S'Do you really think that the West would lose to a bunch of countries that hate their own neighbours?'
p667
asS'apw_eng_20101231_0037.19'
p668
(lp669
S'Demonstrators have called their protest the "gasolinazo."'
p670
asS'bolt-eng-DF-200-192446-3812122_0068.3'
p671
(lp672
S'The Middle East would just be destroyed if it was a total war.'
p673
asS'bolt-eng-DF-200-192446-3812122_0068.2'
p674
(lp675
S'India and Pakistan hate each other and then there is China who hate both.'
p676
asS'bolt-eng-DF-200-192446-3812122_0068.5'
p677
(lp678
S'There is no way in hell that NATO would lose to those countries.'
p679
asS'bolt-eng-DF-200-192446-3812122_0068.4'
p680
(lp681
S"If anything, the 'arrogance' would increase as a result."
p682
asS'bolt-eng-DF-200-192446-3812122_0068.7'
p683
(lp684
S'And in the future Pakistan will be a mere annoyance than a real threat.'
p685
asS'bolt-eng-DF-200-192446-3812122_0068.6'
p686
(lp687
S'Pakistan is no match for India now.'
p688
asS'bolt-eng-DF-170-181122-8787556_0041.2'
p689
(lp690
S'I guess you know the whole story and can make that objective assessment?'
p691
asS'apw_eng_20101231_0037.26'
p692
(lp693
S"Morales, meanwhile, said in a news conference that he is inviting advisers from Paraguay's government to help formulate additional measures to lessen the blow of eliminating fuel subsidies."
p694
asS'web1-eng-DF-170-181103-5520823_0012.2'
p695
(lp696
S'For the OP, a conspiracy would mean there is a hidden agenda of some type.'
p697
asS'nyt_eng_20131029_0042.2'
p698
(lp699
S'AUSTIN, Texas -- Days after calling for the impeachment of President Barack Obama, Lt. Gov. David Dewhurst is demanding that the president pay for the 130,000 undocumented immigrants who are housed in county jails across Texas -- a tab that could run nearly $157 million in the past two years alone.'
p700
asS'web1-eng-DF-170-181103-5520823_0012.3'
p701
(lp702
S"In this instance it's the same agenda as before."
p703
asS'bolt-eng-DF-170-181122-8787556_0039.4'
p704
(lp705
S"I don't like obama because he is a socialist pig."
p706
asS'web1-eng-DF-170-181103-5520823_0009.1'
p707
(lp708
S'making up **** because you cant win elections is NOT going to win you any elections'
p709
asS'web1-eng-DF-170-181103-5520823_0012.1'
p710
(lp711
S'People like TM and del have to stick together.'
p712
asS'web1-eng-DF-233-195474-1207335_0004.1'
p713
(lp714
S"I can't believe it's actually going to happen."
p715
asS'web1-eng-DF-233-195474-1207335_0011.1'
p716
(lp717
S'yea he has always been a little nutty....'
p718
asS'bolt-eng-DF-170-181122-8787556_0045.2'
p719
(lp720
S'Why the hell do guys rape women anyway?'
p721
asS'bolt-eng-DF-170-181122-8787556_0045.3'
p722
(lp723
S'Women are horny as hell!'
p724
asS'nyt_eng_20131022_0102.9'
p725
(lp726
S'But Room 3/201 was not, resulting at least for a brief while in the incongruous sight of closed doors emblazoned with a bold, black fist, below a crisp white sign that read Careers and Professional Development.'
p727
asS'bolt-eng-DF-170-181122-8787556_0045.1'
p728
(lp729
S'BIG QUESTION!'
p730
asS'bolt-eng-DF-170-181122-8787556_0045.6'
p731
(lp732
S'Besides which sex with women that are voluntarily engaged is an awful lot better.'
p733
asS'bolt-eng-DF-170-181122-8787556_0045.7'
p734
(lp735
S"Young guys need a talkin' to..."
p736
asS'bolt-eng-DF-170-181122-8787556_0045.4'
p737
(lp738
S"All you have to do is be nice to them and they'll pretty much accomodate you in any way you want."
p739
asS'bolt-eng-DF-170-181122-8787556_0045.5'
p740
(lp741
S'Yes, sometimes you have to give them time to think about it....'
p742
asS'nyt_eng_20131003_0269.4'
p743
(lp744
S'During more than six hours of testimony in an Athens courtroom, Michaloliakos condemned the murder last month of a 34-year-old hip-hop artist and anti-fascist, Pavlos Fyssas, by a self-professed supporter of Golden Dawn, and said he did not know whether members of the party were involved in violence, according to a court official.'
p745
asS'nyt_eng_20131003_0269.5'
p746
(lp747
S'\xe2\x80\x9cI condemn the murder, like I condemn violence in general,\xe2\x80\x9d he was quoted as saying.'
p748
asS'nyt_eng_20131003_0269.6'
p749
(lp750
S'\xe2\x80\x9cI am not a Nazi.\xe2\x80\x9d'
p751
asS'nyt_eng_20131003_0269.7'
p752
(lp753
S'Leaving court early Thursday, Michaloliakos was defiant.'
p754
asS'nyt_eng_20131022_0102.7'
p755
(lp756
S'Without notice, security officers entered the room this past weekend, boxed up and removed its contents - and just to be on the safe side, locked down the entire building, including the library.'
p757
asS'nyt_eng_20131003_0269.1'
p758
(lp759
S'LEADER OF FAR-RIGHT PARTY IN GREECE IS JAILED'
p760
asS'nyt_eng_20131003_0269.2'
p761
(lp762
S'ATHENS, Greece - The leader of the extreme-right Golden Dawn party was returned to custody Thursday after appearing before a Greek magistrate on charges of setting up a criminal organization, part of the government\xe2\x80\x99s crackdown on a party described by Greek and European authorities as neo-Nazi and violent.'
p763
asS'nyt_eng_20131003_0269.3'
p764
(lp765
S'The magistrate\xe2\x80\x99s order to remand Nikos Michaloliakos, the first political party leader to face jail since Greece\xe2\x80\x99s seven-year military dictatorship ended in 1974, came a day after three of his fellow lawmakers facing similar charges were released from custody and told not to leave the country, and a fourth was ordered held pending trial.'
p766
asS'web1-eng-DF-183-195729-5441907_0003.4'
p767
(lp768
S'We need to speak up.'
p769
asS'bolt-eng-DF-170-181122-8787556_0047.2'
p770
(lp771
S"Please tell me you're not speaking from experience."
p772
asS'web1-eng-DF-233-195474-1207335_0004.2'
p773
(lp774
S'I remember reading about this forever ago and thinking "ah he\'ll be fine" fuck man..'
p775
asS'nyt_eng_20130506_0130.8'
p776
(lp777
S'The prosecutor cited this testimony several times in his closing arguments.'
p778
asS'nyt_eng_20130506_0130.9'
p779
(lp780
S'In a letter dated May 2, the Justice Department said the expert\xe2\x80\x99s testimony about the general capability of hair analysis \xe2\x80\x93 that it could match a hair to a specific individual \xe2\x80\x93 was erroneous and \xe2\x80\x9cexceeded the limits of the science.\xe2\x80\x9d'
p781
asS'web1-eng-DF-183-195729-5441907_0003.2'
p782
(lp783
S'New anti-coal regulations will kill jobs in West Virginia, Kentucky, and nationwide.'
p784
asS'web1-eng-DF-183-195729-5441907_0003.3'
p785
(lp786
S'Our government is supposed to be by and for the people.'
p787
asS'nyt_eng_20130506_0130.4'
p788
(lp789
S'But the most recent requests came about because of two letters sent by the Justice Department in recent days to the prosecutor who handled Manning\xe2\x80\x99s trial.'
p790
asS'nyt_eng_20130506_0130.5'
p791
(lp792
S'The letters concerned the trial testimony of an FBI expert asked to examine \xe2\x80\x9chair fragments\xe2\x80\x9d found at the scene of the murders.'
p793
asS'nyt_eng_20130506_0130.6'
p794
(lp795
S'The expert testified that in this case he could determine only that the hairs came from an African-American but that hair comparison analysis was capable, given better samples, of matching a hair to a particular individual.'
p796
asS'nyt_eng_20130506_0130.7'
p797
(lp798
S'Manning is black; the murder victims were white.'
p799
asS'nyt_eng_20130506_0130.1'
p800
(lp801
S'DEATH ROW INMATE \xe2\x80\x99 S REQUEST FOR DNA TESTING IS REJECTED'
p802
asS'nyt_eng_20130506_0130.2'
p803
(lp804
S'The state of Mississippi rejected on Monday a request to submit physical evidence for DNA testing made by a prisoner scheduled to be put to death Tuesday evening.'
p805
asS'nyt_eng_20130506_0130.3'
p806
(lp807
S'Willie J. Manning, convicted in 1994 of murdering two college students, had been repeatedly rebuffed in the courts as he sought to have DNA tests performed on certain crime scene evidence.'
p808
asS'nyt_eng_20130619_0092.18'
p809
(lp810
S'Nicholas Kay, the U.N. special representative for Somalia, was outside the compound at a meeting nearby when the attack occurred.'
p811
asS'nyt_eng_20130619_0092.19'
p812
(lp813
S'He called the attack an act of terrorism intended to derail Somalia\xe2\x80\x99s drive toward recovery after decades of war and instability.'
p814
asS'nyt_eng_20130619_0092.16'
p815
(lp816
S'The U.N. compound sits on a busy stretch of road near the airport.'
p817
asS'nyt_eng_20130619_0092.17'
p818
(lp819
S'An ambulance worker, Abdirisak Moumin, said that he had collected 13 wounded civilians, six of whom died from their injuries.'
p820
asS'nyt_eng_20130619_0092.14'
p821
(lp822
S'\xe2\x80\x9cInside the compound are several clueless foreigners who were lulled into a false sense of security by a strong disinformation campaign!\xe2\x80\x9d'
p823
asS'nyt_eng_20130619_0092.15'
p824
(lp825
S'The Shabab, who have sworn allegiance to al-Qaida, said that the group\xe2\x80\x99s Martyrdom Brigade had carried out the attack.'
p826
asS'nyt_eng_20130619_0092.12'
p827
(lp828
S'The militant group vowed to shift tactics more toward guerrilla assaults, assassinations and suicide bombings.'
p829
asS'nyt_eng_20130619_0092.13'
p830
(lp831
S'Militants \xe2\x80\x9care now in complete control of the entire compound and the battle is still ongoing,\xe2\x80\x9d the Shabab said on its Twitter feed during the attack.'
p832
asS'nyt_eng_20130619_0092.10'
p833
(lp834
S'In a statement, Somalia\xe2\x80\x99s prime minister, Abdi Farah Shirdon Saaid, condemned \xe2\x80\x9cthe senseless and despicable attack on innocent U.N. civilians.\xe2\x80\x9d'
p835
asS'nyt_eng_20130619_0092.11'
p836
(lp837
S'Mogadishu has experienced a period of relative calm since African Union forces and the Somali army pushed back the Shabab, leading it to announce a hasty retreat from the city in 2011.'
p838
asS'nyt_eng_20131022_0102.8'
p839
(lp840
S'With just a day to go before midterm exams, the library was reopened after a few hours.'
p841
asS'nyt_eng_20131003_0269.8'
p842
(lp843
S'\xe2\x80\x9cLong live Golden Dawn!'
p844
asS'web1-eng-DF-233-195474-1207335_0001.21'
p845
(lp846
S'Prepared to do time'
p847
asS'nyt_eng_20131003_0269.9'
p848
(lp849
S'Victory!\xe2\x80\x9d he declared as his wife, Eleni Zaroulia, another Golden Dawn member of Parliament, cried, \xe2\x80\x9cYou\xe2\x80\x99re a diamond!\xe2\x80\x9d and his daughter, Ourania Michaloliakou, urged him, \xe2\x80\x9cDon\xe2\x80\x99t buckle, don\xe2\x80\x99t give in!\xe2\x80\x9d'
p850
asS'bolt-eng-DF-200-192446-3811676_0095.18'
p851
(lp852
S'It is entirely possible that Scotland could follow the Nordic example if it ever decides to vote for independence.'
p853
asS'bolt-eng-DF-200-192446-3811676_0095.19'
p854
(lp855
S'People forget that Edinburgh is a reasonably large financial centre (relatively large for a country of 5 million) and that central Scotland was a cradle for the industrial revolution.'
p856
asS'nyt_eng_20131029_0042.7'
p857
(lp858
S"In his letter to Obama, Dewhurst wrote: ''The dollars expended in this fashion would be better spent enhancing law enforcement efforts to better protect our citizens.''"
p859
asS'bolt-eng-DF-200-192446-3811676_0095.14'
p860
(lp861
S'And the Irish economy was, until recently, booming.'
p862
asS'bolt-eng-DF-200-192446-3811676_0095.15'
p863
(lp864
S'Iceland is a very interesting example.'
p865
asS'bolt-eng-DF-200-192446-3811676_0095.16'
p866
(lp867
S'No major heavy industry, a population a little \xc2\xb7 over 1/3 of a million, universal healthcare and education (free at university level at state universities) and yet it manages to maintain one of the highest standards of living (arguably the highest) in the world.'
p868
asS'bolt-eng-DF-200-192446-3811676_0095.17'
p869
(lp870
S'Claiming that Scotland would go bankrupt in no time is ridiculous.'
p871
asS'bolt-eng-DF-200-192446-3811676_0095.10'
p872
(lp873
S"It's completely absurd and there's no justification for it."
p874
asS'bolt-eng-DF-200-192446-3811676_0095.11'
p875
(lp876
S"And what's to say Scotland will go bankrupt?"
p877
asS'bolt-eng-DF-200-192446-3811676_0095.12'
p878
(lp879
S'Iceland, Norway, Denmark, Finland, Austria, Switzerland, Lithuania, Estonia, Latvia and Ireland all have population sizes comparable to or smaller than Scotland, and all function well as independent states.'
p880
asS'bolt-eng-DF-200-192446-3811676_0095.13'
p881
(lp882
S'The Nordic countries have some of the strongest economies in the world, as does Switzerland.'
p883
asS'bolt-eng-DF-200-192451-5796135_0083.28'
p884
(lp885
S'Defending itself against what?'
p886
asS'bolt-eng-DF-200-192451-5796135_0083.29'
p887
(lp888
S"Hezbollah was created by Iran and Khomeini decided to send Revolutionary Guards there to train militants as a 'resistance' group."
p889
asS'nyt_eng_20131022_0102.2'
p890
(lp891
S'Julie Turkewitz contributed reporting.'
p892
asS'bolt-eng-DF-200-192451-5796135_0083.20'
p893
(lp894
S"In fact, Iran has never even waged war against Iran which cannot be said for it's neighboring countries."
p895
asS'bolt-eng-DF-200-192451-5796135_0083.21'
p896
(lp897
S'A very optimistic view.'
p898
asS'web1-eng-DF-233-195474-1207335_0001.20'
p899
(lp900
S'"This is a preferential arrangement to the not-so-good-arrangement that would see me spend 10, 20, 30 years in a U.S. federal penitentiary, foreseeably the rest of my life, and that doesn\'t give a person a lot of hope," he said.'
p901
asS'bolt-eng-DF-200-192451-5796135_0083.23'
p902
(lp903
S"China and Russia don't want the US to throw its weight around so they're using their veto as a feeble show of strength."
p904
asS'bolt-eng-DF-200-192451-5796135_0083.24'
p905
(lp906
S"By vetoing the criticism of Assad's actions they want to show that they will not just follow America's lead on this one."
p907
asS'bolt-eng-DF-200-192451-5796135_0083.25'
p908
(lp909
S"(1) Feeble: America's looking feeble."
p910
asS'bolt-eng-DF-200-192451-5796135_0083.26'
p911
(lp912
S'They can\'t intervene and save their beloved "democracies in action" because of Russia/China.'
p913
asS'bolt-eng-DF-200-192451-5796135_0083.27'
p914
(lp915
S'There used to be a time when Americans would say "**** the world, we are doing this".'
p916
asS'web1-eng-DF-183-195729-5441907_0001.6'
p917
(lp918
S'Mine Workers and Supporters to Encircle Peabody HQ in Downtown St. Louis'
p919
asS'web1-eng-DF-183-195729-5441907_0001.7'
p920
(lp921
S'Union says retirees and dependents must receive health care benefits earned during decades of labor in company mines'
p922
asS'web1-eng-DF-183-195729-5441907_0001.4'
p923
(lp924
S'For Immediate Release \xe2\x80\x93 September 19, 2013 \xc2\xb7 Contact: Roger Kerson, 734.645.0535, roger.kerson@gmail.com \xc2\xb7 Phil Smith: 571-345-8338; psmith@umwa.org'
p925
asS'web1-eng-DF-170-181103-5520823_0005.1'
p926
(lp927
S"The two people that breached Obama, Hillary and McCains' passport records in March of 2008 at the State Department were contractors and got fired for it."
p928
asS'nyt_eng_20131029_0042.6'
p929
(lp930
S"''In my experience, I believe the immigration conversation begins and ends with strict border security, as our counties can no longer fund this massive financial burden.''"
p931
asS'bolt-eng-DF-200-192446-3811676_0094.11'
p932
(lp933
S'But, personally, I believe rather than a breakup, the union should be reformed, so there is equality for all the nations.'
p934
asS'web1-eng-DF-183-195729-5441907_0001.1'
p935
(lp936
S'No link.'
p937
asS'nyt_eng_20130603_0111.11'
p938
(lp939
S'A spokesman for the British Foreign Office said it was informed of Patino\xe2\x80\x99s trip on Friday and was \xe2\x80\x9cconsidering\xe2\x80\x9d his request for a meeting with Hague.'
p940
asS'nyt_eng_20130603_0111.10'
p941
(lp942
S'\xe2\x80\x9cThe Ministry of Foreign Affairs of Ecuador has informed U.K. authorities that Mr. Patino will be in London and has offered to meet with Foreign Secretary William Hague to discuss the case of Julian Assange,\xe2\x80\x9d the spokesman said.'
p943
asS'nyt_eng_20130603_0111.13'
p944
(lp945
S'\xe2\x80\x9cWe hope the visit will contribute to our joint commitment to finding a diplomatic solution to this issue.\xe2\x80\x9d'
p946
asS'nyt_eng_20130603_0111.12'
p947
(lp948
S'\xe2\x80\x9cU.K. government officials have been in regular contact with representatives of the Ecuadorean government, both in London and Quito, about Mr. Assange,\xe2\x80\x9d the Foreign Office said in a statement.'
p949
asS'nyt_eng_20130603_0111.14'
p950
(lp951
S'Last week, Reuters quoted Patino as saying his government was preparing a document in which it would argue that Britain is legally obliged to give Assange permission to travel to South America.'
p952
asS'web1-eng-DF-183-195729-5441907_0001.8'
p953
(lp954
S'St. Louis \xe2\x80\x93 Thousands of mine workers and supporters plan to march around the headquarters of Peabody Energy in St. Louis this coming Tuesday, Sept. 24th.'
p955
asS'nyt_eng_20131022_0102.6'
p956
(lp957
S'But officials at City College, part of the City University of New York, insisted that charged history was not a factor when they decided that the room would be better used as an annex for the school\xe2\x80\x99s career services office, two floors below.'
p958
asS'nyt_eng_20130712_0047.2'
p959
(lp960
S'CAIRO - Egypt\xe2\x80\x99s new rulers gave new credence to a court case against the ousted president, Mohammed Morsi, and members of the Muslim Brotherhood on Thursday over their escape from prison during the uprising that toppled his predecessor, Hosni Mubarak.'
p961
asS'nyt_eng_20131022_0102.5'
p962
(lp963
S'To outside critics it was a symbol of campus politics gone berserk, its unofficial name a glorification of City College alumni who had joined revolutionary organizations and gone on the lam.'
p964
asS'web1-eng-DF-233-195394-1272502_0001.9'
p965
(lp966
S'This could be one hell of a movie.'
p967
asS'web1-eng-DF-233-195394-1272502_0001.8'
p968
(lp969
S'I think this film really is something special and cant wait to see it.'
p970
asS'web1-eng-DF-233-195394-1272502_0001.7'
p971
(lp972
S'One reviewer talked about how "the pain and terror in Cusacks face (while trying to tell his daughters) never leaves".'
p973
asS'web1-eng-DF-233-195394-1272502_0001.6'
p974
(lp975
S'One reviewer talked about how instead of making a movie about the horrors of actual combat and the horrors of war, this film does what few movies I can think of at least in the war film genre seem to ever do: it focuses on wars effects on family members.'
p976
asS'web1-eng-DF-233-195394-1272502_0001.5'
p977
(lp978
S'The reviews of this movie seem to be pretty chilling.'
p979
asS'nyt_eng_20131022_0102.4'
p980
(lp981
S'To student organizers who used it as their meeting space, it was a place for lesbian and gay activists, women\xe2\x80\x99s rights groups, community organizations and others to make common cause.'
p982
asS'web1-eng-DF-233-195394-1272502_0001.3'
p983
(lp984
S'Instead of telling his two daughters about the death of their mother, he instead puts that off, and decides to take them on a road trip.'
p985
asS'web1-eng-DF-233-195394-1272502_0001.2'
p986
(lp987
S'It stars John Cusack as a right winger whose wife has been killed in action over in Iraq.'
p988
asS'web1-eng-DF-233-195394-1272502_0001.1'
p989
(lp990
S'his is a new movie that premiered the other day at Sundance.'
p991
asS'bolt-eng-DF-200-192451-5796135_0085.3'
p992
(lp993
S'The US assisted them in developing nukes in the first place.'
p994
asS'bolt-eng-DF-200-192451-5796135_0085.2'
p995
(lp996
S'Because Pakistan largely follows American orders.'
p997
asS'bolt-eng-DF-200-192451-5796135_0085.1'
p998
(lp999
S'The same way I saw the US invading Pakistan instead of Afghanistan even though Pakistan have nukes.'
p1000
asS'bolt-eng-DF-200-192451-5796135_0085.7'
p1001
(lp1002
S'The Shah seemed pretty content with staying out of it.'
p1003
asS'bolt-eng-DF-200-192451-5796135_0085.6'
p1004
(lp1005
S'For example?'
p1006
asS'bolt-eng-DF-200-192451-5796135_0085.5'
p1007
(lp1008
S'How?'
p1009
asS'bolt-eng-DF-200-192451-5796135_0085.4'
p1010
(lp1011
S'As I said before Iran initiated it...'
p1012
asS'nyt_eng_20131029_0228.1'
p1013
(lp1014
S"Scott rejects Bar's lists"
p1015
asS'bolt-eng-DF-200-192451-5796135_0085.9'
p1016
(lp1017
S'Mossadegh was going forward with social-democratic nationalism that had been popularised by Nasser and Arab leaders, and this led to the 1953 coup.'
p1018
asS'bolt-eng-DF-200-192451-5796135_0085.8'
p1019
(lp1020
S"The Shah's absolutism was a knock-on effect."
p1021
asS'nyt_eng_20130712_0047.3'
p1022
(lp1023
S'The case was transferred from an appeals court to the State Security prosecutor for further investigation.'
p1024
asS'web1-eng-DF-183-195685-4204154_0001.13'
p1025
(lp1026
S"Hunt headed up the Plumbers' burglary of Pentagon Papers-leaker Daniel Ellsberg's psychiatrist's office in September 1971."
p1027
asS'nyt_eng_20130703_0214.16'
p1028
(lp1029
S'\xe2\x80\x9cThere\xe2\x80\x99s smoke coming out of my hair.'
p1030
asS'web1-eng-DF-183-195685-4204154_0001.11'
p1031
(lp1032
S'At a CRP meeting on March 21, 1971, it was agreed to spend $250,000 on "intelligence gathering" on the Democratic Party.'
p1033
asS'web1-eng-DF-183-195685-4204154_0001.10'
p1034
(lp1035
S'Colson also became involved in the Committee to Re-elect the President (CRP or CREEP).'
p1036
asS'web1-eng-DF-183-195685-4204154_0001.15'
p1037
(lp1038
S'Colson hoped that revelations about Ellsberg could be used to discredit the anti-Vietnam War cause.'
p1039
asS'nyt_eng_20130703_0214.17'
p1040
(lp1041
S'I am so angry,\xe2\x80\x9d said Manizha Naderi, the executive director of Women for Afghan Women.'
p1042
asS'nyt_eng_20130703_0214.14'
p1043
(lp1044
S'As word spread in Kabul on Wednesday, Western officials said they were still gathering details but would probably have a response in the coming days.'
p1045
asS'web1-eng-DF-183-195729-5441907_0003.1'
p1046
(lp1047
S"2. Now let's protect the miners' jobs too."
p1048
asS'nyt_eng_20131029_0042.4'
p1049
(lp1050
S"''It\xe2\x80\x99s time we ask for that money back,'' Dewhurst said in an email to supporters this week, asking them to sign a petition supporting his position."
p1051
asS'web1-eng-DF-225-195996-5376307_0001.3'
p1052
(lp1053
S'Ill explain my story;'
p1054
asS'nyt_eng_20130703_0214.12'
p1055
(lp1056
S'The two women were released this week after about a year in prison, the lawyers said.'
p1057
asS'bolt-eng-DF-170-181122-8787556_0052.3'
p1058
(lp1059
S'She was at a party in 2008 when football star Rakheem Bolton, fellow player Christian Roundtree and another boy pushed her into a bedroom and locked the door, held her down, and sexually assaulted her...'
p1060
asS'web1-eng-DF-183-195729-5441907_0001.31'
p1061
(lp1062
S'Men and women worked underground for decades to earn these benefits.'
p1063
asS'nyt_eng_20130703_0214.13'
p1064
(lp1065
S'They were not sure whether the father-in-law was yet out of prison.'
p1066
asS'web1-eng-DF-225-195996-5376307_0001.1'
p1067
(lp1068
S'Hi Everyone'
p1069
asS'bolt-eng-DF-200-192451-5796135_0083.9'
p1070
(lp1071
S'Evidence?'
p1072
asS'bolt-eng-DF-200-192451-5796135_0083.8'
p1073
(lp1074
S'It has repeatedly refused to declare several sites and when they were caught out they said they were going to declare them anyway.'
p1075
asS'bolt-eng-DF-200-192451-5796135_0083.5'
p1076
(lp1077
S'That is so ****ing silly.'
p1078
asS'bolt-eng-DF-200-192451-5796135_0083.4'
p1079
(lp1080
S'That they MAY acquire nuclear weapons.'
p1081
asS'bolt-eng-DF-200-192451-5796135_0083.7'
p1082
(lp1083
S'2) I beg to differ.'
p1084
asS'bolt-eng-DF-200-192451-5796135_0083.6'
p1085
(lp1086
S'If the UK were planning to abolish murder as a criminal charge in a few years time, could I go out and murder 100 people based on the intention, "Well, it\'s going to be abolished anyway".'
p1087
asS'bolt-eng-DF-200-192451-5796135_0083.1'
p1088
(lp1089
S"1) Of course not, they haven't made them yet."
p1090
asS'bolt-eng-DF-200-192451-5796135_0083.3'
p1091
(lp1092
S'So on what basis will you attack Iran?'
p1093
asS'bolt-eng-DF-170-181122-8787556_0036.16'
p1094
(lp1095
S'However, the reality of the situation is that 16 year old girls should not place themselves in situations like this (drinking to apparent excess) while at a party not chaperoned by an adult.'
p1096
asS'bolt-eng-DF-170-181122-8787556_0036.17'
p1097
(lp1098
S"That said, young men should also not put themselves in that exact same situation because if you can't recount accurately what happened because you were drunk, you cannot say for sure what did or did not happen."
p1099
asS'bolt-eng-DF-170-181122-8787556_0036.14'
p1100
(lp1101
S"Hence, the 'slap on the wrists'."
p1102
asS'bolt-eng-DF-170-181122-8787556_0036.15'
p1103
(lp1104
S"I'm all for women/girls being able to do everything they want, in theory."
p1105
asS'bolt-eng-DF-170-181122-8787556_0036.12'
p1106
(lp1107
S'It seems the prosecutor is saying that everyone involved was drunk/drinking and that the stories told had holes in them.......'
p1108
asS'bolt-eng-DF-170-181122-8787556_0036.13'
p1109
(lp1110
S'all of them.'
p1111
asS'bolt-eng-DF-170-181122-8787556_0036.10'
p1112
(lp1113
S'Even the information that is available is fuzzy.'
p1114
asS'bolt-eng-DF-170-181122-8787556_0036.11'
p1115
(lp1116
S'But it appears the prosecution struck a deal because of a lack of evidence.'
p1117
asS'web1-eng-DF-170-181103-5520823_0013.1'
p1118
(lp1119
S'maybe if you guys had some actual facts to go along with your loony tunes theories it might mean your not insane'
p1120
asS'nyt_eng_20130703_0214.11'
p1121
(lp1122
S'The appeals court agreed, voiding the convictions and ordering that the defendants - Gul\xe2\x80\x99s mother-in-law, sister-in-law and father-in-law - be set free.'
p1123
asS'bolt-eng-DF-170-181122-8787556_0036.18'
p1124
(lp1125
S'As for the race angle, it is unecessary.'
p1126
asS'bolt-eng-DF-170-181122-8787556_0036.19'
p1127
(lp1128
S'This would have been no better or worse had the accused kids been white.'
p1129
asS'web1-eng-DF-233-195474-1207335_0001.24'
p1130
(lp1131
S'"I didn\'t keep any of the money \xe2\x80\x94 $4 million.'
p1132
asS'web1-eng-DF-170-181103-5520823_0011.1'
p1133
(lp1134
S'Love your new avi.'
p1135
asS'web1-eng-DF-170-181103-5520823_0011.3'
p1136
(lp1137
S'They are just such wonderful creatures'
p1138
asS'web1-eng-DF-170-181103-5520823_0011.2'
p1139
(lp1140
S'That is my favorite hound in the world.'
p1141
asS'bolt-eng-DF-170-181122-8787556_0052.6'
p1142
(lp1143
S'Sphincteric school superintendent Richard Bain Jr. would make sure it only got worse.'
p1144
asS'web1-eng-DF-233-195474-1207335_0001.11'
p1145
(lp1146
S'After the guilty plea, Emery expects he will be sentenced in August or September and is hoping he will eventually be transferred to a Canadian jail.'
p1147
asS'bolt-eng-DF-170-181122-8787556_0052.7'
p1148
(lp1149
S'When the girl returned to school, administrators decided the best course of action was for the girl to slink away in a corner and try not to be seen.'
p1150
asS'nyt_eng_20130710_0155.1'
p1151
(lp1152
S'EXTRADITED COLOMBIAN TO FACE CHARGES OF DRUG TRAFFICKING'
p1153
asS'bolt-eng-DF-170-181122-8787556_0052.4'
p1154
(lp1155
S'When others tried to enter the room, Bolton and Roundtree jumped out a window, leaving their clothes behind.'
p1156
asS'nyt_eng_20130828_0147.4'
p1157
(lp1158
S'He agreed to remain at the disposal of the Spanish judiciary, but it was unclear whether his passport was confiscated to prevent him from leaving the country, according to a person briefed on the matter.'
p1159
asS'bolt-eng-DF-170-181122-8787556_0052.5'
p1160
(lp1161
S"The girl filed charges, but that didn't put an end to her trauma."
p1162
asS'apw_eng_20090611_0697.26'
p1163
(lp1164
S"They also decried Libya's treatment of the migrants and its poor human rights record."
p1165
asS'bolt-eng-DF-170-181122-8787556_0052.2'
p1166
(lp1167
S'The girl was just 16, a cheerleader at Silsbee High School in Texas.'
p1168
asS'apw_eng_20090611_0697.24'
p1169
(lp1170
S'"Only those who have the credentials _ in terms of democracy and protection of human rights _ are entitled to speak to Parliament, the inviolable temple of democracy," he told La Repubblica newspaper.'
p1171
asS'apw_eng_20090611_0697.25'
p1172
(lp1173
S'Human rights organizations and other critics have also denounced a recent deal that allows Italy to send immigrants back to Libya if they are intercepted at sea.'
p1174
asS'apw_eng_20090611_0697.22'
p1175
(lp1176
S'But opposition lawmakers balked, forcing the speech to be moved to a palazzo next door.'
p1177
asS'apw_eng_20090611_0697.23'
p1178
(lp1179
S'Enrico Morando, a senator of the opposition Democratic Party, said Gadhafi\'s presence at the Senate would have been a "humiliation of this country\'s democratic and republican spirit."'
p1180
asS'apw_eng_20090611_0697.20'
p1181
(lp1182
S'The speech to lawmakers was likely to raise more controversy.'
p1183
asS'apw_eng_20090611_0697.21'
p1184
(lp1185
S'He had been set to speak inside the Italian Senate, a rare honor for visiting dignitaries.'
p1186
asS'web1-eng-DF-233-195474-1207335_0001.27'
p1187
(lp1188
S'"You\'ve got to keep busy in jail.'
p1189
asS'web1-eng-DF-170-181103-5520823_0014.3'
p1190
(lp1191
S'Maybe if you could find a fact or two inside that rubber room of a head of yours, people would take you seriously.'
p1192
asS'nyt_eng_20130712_0047.7'
p1193
(lp1194
S'At her regular State Department briefing Thursday, asked about the reactions, Psaki said she had been \xe2\x80\x9creferring to all of the voices that have been - we have heard coming - the millions, I should say, coming from Egypt, and how strongly they have voiced their views about his rule.'
p1195
asS'web1-eng-DF-170-181103-5520823_0012.4'
p1196
(lp1197
S'Things will get better when Bush is out of office.'
p1198
asS'bolt-eng-DF-170-181122-8787556_0052.1'
p1199
(lp1200
S'Not only did 4 Blacks rape this girl, the main perp only received ANGER MANAGEMENT class with no jail time!'
p1201
asS'web1-eng-DF-170-181103-5520823_0001.2'
p1202
(lp1203
S"What's next?"
p1204
asS'web1-eng-DF-170-181103-5520823_0001.1'
p1205
(lp1206
S"Example: John Brennan, a terrorist sympathizer who scrubbed Obama's passport files, is now nominated to be Director of the CIA."
p1207
asS'web1-eng-DF-170-181103-5520823_0003.4'
p1208
(lp1209
S'Kagan got SCOTUS in return for covering for him at Harvard.'
p1210
asS'web1-eng-DF-170-181103-5520823_0003.3'
p1211
(lp1212
S'Next?'
p1213
asS'bolt-eng-DF-200-192446-3811676_0094.7'
p1214
(lp1215
S'I would vote no.'
p1216
asS'bolt-eng-DF-200-192446-3811676_0094.6'
p1217
(lp1218
S'He has every right, and indeed, it should be his job to defend and persuade the Scottish electorate and population that the United Kingdom should remain, that Scotland should vote no to any such referendum.'
p1219
asS'bolt-eng-DF-200-192446-3811676_0094.5'
p1220
(lp1221
S'David Cameron is the Prime Minister of the United Kingdom.'
p1222
asS'bolt-eng-DF-200-192446-3811676_0094.4'
p1223
(lp1224
S'However, David Cameron *does* have a say, as do I, as do all of us, on whether we want the Union to remain.'
p1225
asS'bolt-eng-DF-200-192446-3811676_0094.3'
p1226
(lp1227
S'I voted Labour yesterday, I am a Labour party member, with Scottish roots.'
p1228
asS'bolt-eng-DF-200-192446-3811676_0094.2'
p1229
(lp1230
S"Thanks to his government, I'll likely be paying 3x as much as I would for university."
p1231
asS'bolt-eng-DF-200-192446-3811676_0094.1'
p1232
(lp1233
S"I'm not a fan of David Cameron."
p1234
asS'nyt_eng_20131029_0228.15'
p1235
(lp1236
S"* W.C. Gentry, a high-profile trial lawyer in Jacksonville who was a member of the legal ''dream team\xe2\x80\x99' that successfully sued the tobacco industry in the 1990s."
p1237
asS'nyt_eng_20131029_0228.14'
p1238
(lp1239
S'* Lynn Drysdale, a consumer protection lawyer with Jacksonville Area Legal Aid who has testified before Congress in opposition to state laws that allow payday lenders to target military personnel.'
p1240
asS'nyt_eng_20131029_0228.17'
p1241
(lp1242
S'* Tiffany Faddis, a trial lawyer, board member of the trial bar\xe2\x80\x99s statewide lobbying arm, the Florida Justice Association, incoming president of the Hispanic Bar Association of Central Florida and a registered Republican.'
p1243
asS'nyt_eng_20131029_0228.16'
p1244
(lp1245
S'A former county school board member, he has generously contributed to Democratic candidates and has given money to Republicans, too.'
p1246
asS'nyt_eng_20131029_0228.11'
p1247
(lp1248
S'Lawyers who are registered Democrats, are aligned with left-leaning groups or who promote themselves as trial lawyers appear to have little hope of gaining the governor\xe2\x80\x99s favor.'
p1249
asS'nyt_eng_20131029_0228.10'
p1250
(lp1251
S'Scott has sent back so many Bar-recommended names that the group keeps a five-page spreadsheet to track them.'
p1252
asS'bolt-eng-DF-200-192446-3811676_0094.9'
p1253
(lp1254
S'If the UK were to split, we would all become weakened.'
p1255
asS'bolt-eng-DF-200-192446-3811676_0094.8'
p1256
(lp1257
S'The world is changing, with a strengthening east and a weakening west.'
p1258
asS'nyt_eng_20131022_0102.31'
p1259
(lp1260
S'I did my political work in there.'
p1261
asS'nyt_eng_20131022_0102.30'
p1262
(lp1263
S'\xe2\x80\x9cI would do my homework in there.'
p1264
asS'nyt_eng_20131022_0102.33'
p1265
(lp1266
S'I feel like part of me is ripped out.\xe2\x80\x9d'
p1267
asS'bolt-eng-DF-170-181122-8787556_0037.8'
p1268
(lp1269
S"If it's the other way around it's no big deal for some reason."
p1270
asS'web1-eng-DF-233-195474-1207335_0001.25'
p1271
(lp1272
S'I gave it all away to activist groups around the world, so my motives are unusual, so that does mitigate in sentencing," said Emery, who frequently ran in provincial and federal elections as the leader of the Marijuana Party.'
p1273
asS'nyt_eng_20131029_0228.23'
p1274
(lp1275
S'Deirdre Macnab, president of the League of Women Voters of Florida, criticized Scott\xe2\x80\x99s frequent pattern of rejecting Bar-supported lawyers.'
p1276
asS'web1-eng-DF-170-181103-5520823_0007.3'
p1277
(lp1278
S"You mean like Alberto Gonzales got to be Attorney General because he scrubbed W's drunk driving conviction?"
p1279
asS'web1-eng-DF-225-195996-5376307_0005.1'
p1280
(lp1281
S"The Crime that i was found Guilty for, was Benefit Fraud so that's why im a bit worried working in a Jobcentre, but then it was someone who uses these forum's who set me up on my previous account, who managed to use all my Identity and then i got convicted but overturned by a high judge"
p1282
asS'web1-eng-DF-183-195861-5359136_0001.6'
p1283
(lp1284
S'Williamson told 40/29 news he did not have a conceal carry license.'
p1285
asS'web1-eng-DF-233-195474-1207335_0001.28'
p1286
(lp1287
S"You've got to be reading, in my case writing."
p1288
asS'web1-eng-DF-183-195729-5441907_0001.10'
p1289
(lp1290
S'Peabody executives, however, are so far refusing to honor the company\xe2\x80\x99s obligation to provide critically needed health care benefits for retired miners.'
p1291
asS'web1-eng-DF-183-195729-5441907_0001.11'
p1292
(lp1293
S'Who: Mine workers and supporters, including:'
p1294
asS'web1-eng-DF-183-195729-5441907_0001.12'
p1295
(lp1296
S'\xc2\xb7 Cecil Roberts, International President, UMWA'
p1297
asS'web1-eng-DF-183-195729-5441907_0001.13'
p1298
(lp1299
S'\xc2\xb7 Hugh McVey, President, Missouri AFL-CIO'
p1300
asS'web1-eng-DF-183-195729-5441907_0001.14'
p1301
(lp1302
S'\xc2\xb7 Terrence Melvin, President, Coalition of Black Trade Unionists'
p1303
asS'web1-eng-DF-183-195729-5441907_0001.15'
p1304
(lp1305
S'\xc2\xb7 Claude Cummings, Vice President, CWA District 6'
p1306
asS'web1-eng-DF-183-195729-5441907_0001.16'
p1307
(lp1308
S'\xc2\xb7 Rev. Jonathan Stratton, Episcopal Diocese of Missouri'
p1309
asS'web1-eng-DF-183-195729-5441907_0001.17'
p1310
(lp1311
S'What: March encircling Peabody Headquarters, calling for the company to honor its obligations to retired miners and their dependents.'
p1312
asS'web1-eng-DF-183-195729-5441907_0001.18'
p1313
(lp1314
S'When: Tuesday, September 24th, 10 am (Central Time)'
p1315
asS'web1-eng-DF-183-195729-5441907_0001.19'
p1316
(lp1317
S'Where: March to begin at Crowne Plaza Hotel, 200 N. Fourth Street.'
p1318
asS'web1-eng-DF-199-192802-997968_0003.1'
p1319
(lp1320
S'Does anyone know if there has been an outcome to this trial?'
p1321
asS'web1-eng-DF-183-195685-4204154_0005.1'
p1322
(lp1323
S'4. I thought G. Gordon Liddy proposed firebombing Brookings'
p1324
asS'nyt_eng_20131029_0042.1'
p1325
(lp1326
S'Dewhurst wants to bill feds for undocumented prisoners'
p1327
asS'nyt_eng_20130710_0155.6'
p1328
(lp1329
S'He was later sent to Colombia, and his extradition was announced by the U.S. attorneys in the three jurisdictions and other officials, including Raymond W. Kelly, the police commissioner of New York; and Michele M. Leonhart, the head of the DEA.'
p1330
asS'nyt_eng_20130710_0155.7'
p1331
(lp1332
S'An indictment in Manhattan says that Barrera relied on two Colombian terrorist organizations to carry out his operations, buying raw cocaine paste from members of the Revolutionary Armed Forces of Colombia, or FARC, and processing it in laboratories in areas controlled by another group, to which he paid fees.'
p1333
asS'nyt_eng_20130710_0155.4'
p1334
(lp1335
S'After those prosecutions, he will be arraigned in Miami on additional charges, the authorities said.'
p1336
asS'nyt_eng_20130710_0155.5'
p1337
(lp1338
S'Barrera, also known as El Loco, was arrested in September in Venezuela as a result of a complex operation that included Colombian and Venezuelan authorities, the CIA, the Drug Enforcement Administration and the British intelligence.'
p1339
asS'nyt_eng_20130710_0155.2'
p1340
(lp1341
S'A Colombian who has been described by his country\xe2\x80\x99s president as \xe2\x80\x9cthe last of the great kingpins\xe2\x80\x9d was extradited to the United States from Colombia on Tuesday to face charges that he manufactured large quantities of cocaine that he then trafficked to the U.S. and elsewhere.'
p1342
asS'nyt_eng_20130710_0155.3'
p1343
(lp1344
S'Daniel Barrera is to be arraigned Wednesday and Thursday in U.S. district courts in Manhattan and Brooklyn, where he faces separate indictments.'
p1345
asS'nyt_eng_20130603_0111.4'
p1346
(lp1347
S'The Swedish authorities want to question Assange in connection with accusations that he sexually assaulted two women, but he has said he fears that the Swedes will in turn send him to the United States to answer questions about his role in helping disseminate classified government information via WikiLeaks.'
p1348
asS'nyt_eng_20130710_0155.8'
p1349
(lp1350
S'Barrera\xe2\x80\x99s organization produced upward of 400 tons of cocaine a year, \xe2\x80\x9cenriching itself and the two terrorist organizations it paid off,\xe2\x80\x9d said Preet Bharara, the U.S. attorney in Manhattan.'
p1351
asS'nyt_eng_20130710_0155.9'
p1352
(lp1353
S'Loretta E. Lynch, the U.S. attorney in Brooklyn, said Barrera\xe2\x80\x99s organization was \xe2\x80\x9cmarked by its worldwide reach, ruthless criminality and staggering profits.\xe2\x80\x9d'
p1354
asS'web1-eng-DF-183-195861-5359136_0001.3'
p1355
(lp1356
S'\xe2\x80\x94The University of Arkansas campus was buzzing Friday after a student hurt himself when a gun went off in his backpack in the KUAF building.'
p1357
asS'web1-eng-DF-183-195861-5359136_0001.2'
p1358
(lp1359
S'FAYETTEVILLE, Ark.'
p1360
asS'web1-eng-DF-183-195861-5359136_0001.7'
p1361
(lp1362
S'On why the gun was in his backpack, Williamson explained he was on his way to a shooting range.'
p1363
asS'nyt_eng_20130828_0147.7'
p1364
(lp1365
S'When the bet soured in the spring of 2012, prosecutors claim, Martin-Artajo and Julien Grout, a lower-ranking employee, deliberately overstated the value of their positions to hide hundreds of millions of dollars in losses.'
p1366
asS'web1-eng-DF-183-195861-5359136_0001.5'
p1367
(lp1368
S'Williamson was hit in the hand.'
p1369
asS'web1-eng-DF-183-195861-5359136_0001.4'
p1370
(lp1371
S"Matthew Williamson admitted to 40/29 news he didn't check to see if the gun was loaded."
p1372
asS'bolt-eng-DF-200-192446-3810379_0020.5'
p1373
(lp1374
S'In his mind, by taking them out, he can prevent future immigration.'
p1375
asS'bolt-eng-DF-200-192446-3810379_0020.4'
p1376
(lp1377
S'The labour party was responsible for the current state of immigration in the country, and in his own ideology, he wanted to take our future labour politicians (which those in the camp were potentially) from getting into power and allowing more in.'
p1378
asS'bolt-eng-DF-200-192446-3810379_0020.6'
p1379
(lp1380
S"can't believe it, norway is such a friendly quiet country, this guy must be nuts they dont even have that many migrants, at least not compared to UK!"
p1381
asS'bolt-eng-DF-200-192446-3810379_0020.1'
p1382
(lp1383
S'Labour are a left wing socialist party.'
p1384
asS'bolt-eng-DF-200-192446-3810379_0020.3'
p1385
(lp1386
S'They are traditionally more likely and are known for allowing immigrants into the country - hence they were his target.'
p1387
asS'bolt-eng-DF-200-192446-3810379_0020.2'
p1388
(lp1389
S'They are pro immigration if it supports the economy and believe in equal rights for all individuals.'
p1390
asS'web1-eng-DF-233-195474-1207335_0013.1'
p1391
(lp1392
S"That's a shame :/"
p1393
asS'xin_eng_20101125_0137.18'
p1394
(lp1395
S"The fund is also supported by Japan's Ministry of Finance with an initial grant of 2 million dollars, and the Dutch Ministry of Foreign Affairs, which provided funding to establish the facility."
p1396
asS'xin_eng_20101125_0137.16'
p1397
(lp1398
S'Index-linked insurance products eliminate the need for insurance companies to individually verify claims, reducing transaction costs and making it easier for the products and services to be offered to rural communities and in frontier regions.'
p1399
asS'xin_eng_20101125_0137.17'
p1400
(lp1401
S'The European Union committed 24.5 million euros as the first donor to the GIIF Trust Fund.'
p1402
asS'xin_eng_20101125_0137.14'
p1403
(lp1404
S"The grants will fund advisory activities, including local capacity building, infrastructure development, product development, and development of local insurance companies' capacity to provide index-based insurance products."
p1405
asS'nyt_eng_20130603_0111.2'
p1406
(lp1407
S'LONDON - The Ecuadorean foreign minister is due to travel to London this month and has offered to meet his British counterpart to discuss the impasse over the Julian Assange case, officials from both countries said on Monday.'
p1408
asS'xin_eng_20101125_0137.12'
p1409
(lp1410
S'IFC will confer a grant of up to 1.6 million dollars on MicroEnsure, which expects to insure 15,000 farmers in Rwanda over the next three years.'
p1411
asS'xin_eng_20101125_0137.13'
p1412
(lp1413
S"IFC's GIIF program was established in 2009 to assist the development of index-based insurance for natural disasters and weather risks in developing countries, where insurance is rarely available."
p1414
asS'xin_eng_20101125_0137.10'
p1415
(lp1416
S'IFC will confer a grant of up to 2.4 million dollars on Syngenta Foundation for Sustainable Agriculture, which expects to help insure 20,000 farmers in Kenya over the next three years'
p1417
asS'xin_eng_20101125_0137.11'
p1418
(lp1419
S'IFC will confer a grant of up to 154,000 dollars on the ILRI, which expects to help insure 5,000 livestock herders in northern Kenya over the next two years.'
p1420
asS'nyt_eng_20130709_0087.20'
p1421
(lp1422
S'He was a co-author, with Michael R. Wiland, of the book \xe2\x80\x9cSmile: How Dental Implants Can Transform Your Life.\xe2\x80\x9d'
p1423
asS'web1-eng-DF-183-195861-5359136_0005.3'
p1424
(lp1425
S'Unlike that incident with Professor Locke.'
p1426
asS'web1-eng-DF-183-195861-5359136_0005.2'
p1427
(lp1428
S'Thank goodness no one else was hurt.'
p1429
asS'web1-eng-DF-183-195861-5359136_0005.1'
p1430
(lp1431
S'3. Yet another reason to keep guns off the U of A campus!'
p1432
asS'nyt_eng_20130506_0130.14'
p1433
(lp1434
S'Manning\xe2\x80\x99s lawyers are still lobbying the governor for a stay of execution.'
p1435
asS'nyt_eng_20130506_0130.15'
p1436
(lp1437
S'On Friday, Manning\xe2\x80\x99s brother and the Mississippi Innocence Project filed suit to preserve all the physical evidence for DNA testing even if the execution is carried out.'
p1438
asS'nyt_eng_20130506_0130.12'
p1439
(lp1440
S'Manning\xe2\x80\x99s lawyers argued that these letters constituted new evidence and thus that the hairs, as well as other evidence collected at the scene including a rape kit and fingernail scrapings, should be submitted for DNA testing before Manning is put to death.'
p1441
asS'nyt_eng_20130506_0130.13'
p1442
(lp1443
S'In the response denying the requests, the state attorney general, Jim Hood, called the new requests a \xe2\x80\x9cred herring,\xe2\x80\x9d saying that the letters did not \xe2\x80\x9crepresent new evidence,\xe2\x80\x9d nor did they repudiate the testimony given by the FBI expert in 1994.'
p1444
asS'nyt_eng_20130506_0130.10'
p1445
(lp1446
S'Then, in a letter dated May 4, the department further said that such analysis could not \xe2\x80\x9cdetermine\xe2\x80\x9d that a hair came from a person of a certain race, as the expert testified at one point, only that the hair \xe2\x80\x9cpossesses certain traits that are associated with a particular racial group.\xe2\x80\x9d'
p1447
asS'nyt_eng_20130506_0130.11'
p1448
(lp1449
S'The FBI offered in both letters to perform DNA testing on the hair fragments.'
p1450
asS'bolt-eng-DF-200-192446-3810379_0022.3'
p1451
(lp1452
S"It's a myth British people seem to have that the UK is one of the most multicultural places in Europe, when in reality Sweden, the Netherlands and possibly Norway are notably more so."
p1453
asS'bolt-eng-DF-200-192446-3810379_0022.2'
p1454
(lp1455
S"This is a bit of a myth. Oslo is a hugely multicultural and as far as I'm aware, Norway as a whole is about on par with the UK in terms of different ethnic groups."
p1456
asS'xin_eng_20101125_0137.15'
p1457
(lp1458
S'Index-based insurance insures against catastrophic events, such as wind storms or droughts, depending on their severity.'
p1459
asS'web1-eng-DF-233-195474-1207335_0005.1'
p1460
(lp1461
S'Fuck america.'
p1462
asS'nyt_eng_20131029_0091.7'
p1463
(lp1464
S'He was re-elected time and time again in a deeply conservative district that stretches from the Kansas City suburbs to the Ozarks, and he had a long record of supporting two local military institutions: Fort Leonard Wood and Whiteman Air Force Base, which he secured as the base for the nation\xe2\x80\x99s fleet of B-2 bombers.'
p1465
asS'nyt_eng_20131029_0091.6'
p1466
(lp1467
S'Skelton, who was first elected to the House in 1976, was known as an expert on national defense and served as the chairman of House Armed Services Committee from 2007 until leaving office.'
p1468
asS'nyt_eng_20131029_0091.5'
p1469
(lp1470
S'He died at Virginia Hospital Center after a brief illness, according to a statement from his family.'
p1471
asS'nyt_eng_20131029_0091.4'
p1472
(lp1473
S'His death was confirmed by the law firm Husch Blackwell, where Skelton was a partner.'
p1474
asS'nyt_eng_20131029_0091.3'
p1475
(lp1476
S'He was 81.'
p1477
asS'nyt_eng_20131029_0091.2'
p1478
(lp1479
S'Ike Skelton, a Democratic congressman who was ousted in the Republican sweep of 2010 after serving his Missouri district for more than 30 years, died Monday in Arlington, Va.'
p1480
asS'nyt_eng_20131029_0091.1'
p1481
(lp1482
S'IKE SKELTON, FORMER CONGRESSMAN FROM MISSOURI, DIES AT 81'
p1483
asS'web1-eng-DF-233-195474-1207335_0009.1'
p1484
(lp1485
S'Is your space bar broken?'
p1486
asS'web1-eng-DF-212-191698-32063_0002.3'
p1487
(lp1488
S'Nothing like going to murderers for Justice.'
p1489
asS'web1-eng-DF-212-191698-32063_0002.2'
p1490
(lp1491
S'This makes me puke.'
p1492
asS'nyt_eng_20131029_0091.9'
p1493
(lp1494
S'\xe2\x80\x9cHis commitment to our country, the state of Missouri and the men and women who serve our nation in the armed services was unsurpassed.\xe2\x80\x9d'
p1495
asS'nyt_eng_20131029_0091.8'
p1496
(lp1497
S'\xe2\x80\x9cHe led an exemplary life of honor, courage and public service,\xe2\x80\x9d Maurice Watson, the chairman of Husch Blackwell, said Monday in a statement.'
p1498
asS'nyt_eng_20130509_0160.10'
p1499
(lp1500
S'\xe2\x80\x9cHe denies participating in the robbery at Brussels airport.\xe2\x80\x9d'
p1501
asS'nyt_eng_20130509_0160.11'
p1502
(lp1503
S'Rondu also confirmed that his client had been convicted in the past for fraud and robbery and had served a prison term.'
p1504
asS'nyt_eng_20130509_0160.12'
p1505
(lp1506
S'In Switzerland, where eight people were arrested Wednesday, the real estate owner and the Swiss lawyer remained in detention.'
p1507
asS'nyt_eng_20130509_0160.13'
p1508
(lp1509
S'Francois Canonica, a lawyer for the Swiss lawyer, also denied any wrongdoing on his client\xe2\x80\x99s part, telling a Swiss newspaper, Tribune de Geneve, \xe2\x80\x9cMy client has faith that ultimately he will be acquitted.\xe2\x80\x9d'
p1510
asS'bolt-eng-DF-200-192446-3810379_0021.1'
p1511
(lp1512
S'He basically hates Islam and believes that Islamic immigration is a huge threat to Europe.'
p1513
asS'web1-eng-DF-233-195474-1207335_0006.4'
p1514
(lp1515
S"haha They're the ones who're gonna agree to extradite him, in the first place."
p1516
asS'web1-eng-DF-183-195685-4204154_0006.1'
p1517
(lp1518
S"5. He's a dead snake Fuck him"
p1519
asS'web1-eng-DF-183-195685-4204154_0006.2'
p1520
(lp1521
S"He was always a conservative, never a people's person and always for stupid obstacle courses that only the truly stupid would try..."
p1522
asS'nyt_eng_20130424_0047.13'
p1523
(lp1524
S'\xe2\x80\x9cChanging the law has become more of an imperative because of the growth of cloud computing, because everyone including members of Congress are storing sensitive info with third-party providers and they want it to be protected,\xe2\x80\x9d said Greg Nojeim, senior counsel at the Washington-based Center for Democracy and Technology, which is financed partly by Silicon Valley companies and which is part of a coalition pushing for reform.'
p1525
asS'nyt_eng_20130424_0047.28'
p1526
(lp1527
S'With a subpoena, the company can divulge a user\xe2\x80\x99s Internet Protocol record, though, which can be used to establish a person\xe2\x80\x99s location.'
p1528
asS'web1-eng-DF-233-195474-1207335_0007.8'
p1529
(lp1530
S'Another innocent man falls victim to the Machine.'
p1531
asS'web1-eng-DF-233-195474-1207335_0007.9'
p1532
(lp1533
S'When will the madness end?'
p1534
asS'nyt_eng_20130712_0047.8'
p1535
(lp1536
S'But beyond that is up for the Egyptian people to determine.\xe2\x80\x9d'
p1537
asS'nyt_eng_20130712_0047.9'
p1538
(lp1539
S'The renewed investigation of Morsi and members of the Muslim Brotherhood dates to the uprising that led to the ouster of Mubarak in 2011.'
p1540
asS'nyt_eng_20130709_0087.18'
p1541
(lp1542
S'He graduated from the University of Pittsburgh and the New York University College of Dentistry.'
p1543
asS'nyt_eng_20130709_0087.19'
p1544
(lp1545
S'Mastromarino had surgical offices in New Jersey and Manhattan.'
p1546
asS'bolt-eng-DF-170-181122-8787556_0053.14'
p1547
(lp1548
S'That remains to be seen.'
p1549
asS'nyt_eng_20130709_0087.12'
p1550
(lp1551
S'The police began investigating irregularities at the Daniel George & Son Funeral Home in Bensonhurst, Brooklyn, in 2005.'
p1552
asS'nyt_eng_20130709_0087.13'
p1553
(lp1554
S'News reports included lurid details, like what the police called a secret room in the funeral home equipped with specialized surgical equipment; leg bones replaced by PVC pipe so bodies would appear intact at viewings (this procedure is common in lawful bone removal); and the fact that one of the victims was Alistair Cooke, the British journalist and former host of \xe2\x80\x9cMasterpiece Theater,\xe2\x80\x9d whose arm and leg bones were taken even though he had had cancer.'
p1555
asS'nyt_eng_20130709_0087.10'
p1556
(lp1557
S'But Mastromarino harvested organs and tissue from bodies without consent from the survivors, the authorities said, and removed material from people with cancer, HIV and other diseases.'
p1558
asS'nyt_eng_20130424_0047.15'
p1559
(lp1560
S'Updating the bill could have a broader impact on civil cases as well, clarifying who can gain access to emails, photos and Facebook posts in corporate litigation and divorce court.'
p1561
asS'nyt_eng_20130709_0087.16'
p1562
(lp1563
S'He and his wife, Barbara, agreed to pay $4.6 million to the district attorney\xe2\x80\x99s office, to be distributed among the victims\xe2\x80\x99 relatives.'
p1564
asS'nyt_eng_20130709_0087.17'
p1565
(lp1566
S'Michael Mastromarino was born in Brooklyn on Sept. 16, 1963.'
p1567
asS'nyt_eng_20130709_0087.14'
p1568
(lp1569
S'Mastromarino was charged in 2006, along with two of his workers and an embalmer.'
p1570
asS'nyt_eng_20130709_0087.15'
p1571
(lp1572
S'He pleaded guilty in 2008 to numerous charges of enterprise corruption, reckless endangerment and body stealing and was sentenced to 15 to 30 years in prison.'
p1573
asS'web1-eng-DF-233-195474-1207335_0001.2'
p1574
(lp1575
S'Vancouver pot activist Marc Emery to plead guilty to U.S. drug charge'
p1576
asS'nyt_eng_20130712_0047.11'
p1577
(lp1578
S'The case languished after Morsi was elected last year in the country\xe2\x80\x99s first free presidential race, although local news outlets and Morsi\xe2\x80\x99s opponents accused militants from Hamas, the Brotherhood\xe2\x80\x99s Palestinian offshoot, of freeing their colleagues.'
p1579
asS'web1-eng-DF-233-195474-1207335_0001.7'
p1580
(lp1581
S'Marc Emery is facing extradition on three drug charges for selling marijuana seeds by mail order to customers in the U.S. (CBC)'
p1582
asS'web1-eng-DF-233-195474-1207335_0001.8'
p1583
(lp1584
S'Marijuana activist Marc Emery says he plans to drop his fight against extradition to the U.S. and plead guilty to one charge of drug distribution in a Seattle courtroom next month.'
p1585
asS'web1-eng-DF-233-195474-1207335_0001.9'
p1586
(lp1587
S"Emery's extradition hearing in Vancouver was adjourned on Wednesday so his lawyer could negotiate a deal with the U.S. district attorney in which Emery could spend up to eight years in jail for one charge, while two other more serious charges are dropped, he said."
p1588
asS'web1-eng-DF-233-195474-1207335_0001.26'
p1589
(lp1590
S'But the man who once spent more than two months in a Canadian prison for passing a joint to an undercover officer is now preparing for a much longer stay in a U.S. prison.'
p1591
asS'web1-eng-DF-183-195685-4204154_0001.5'
p1592
(lp1593
S"Colson's voice, from archives from April 1969, was heard in the 2004 movie Going Upriver deprecating the anti-war efforts of John Kerry."
p1594
asS'nyt_eng_20130709_0087.1'
p1595
(lp1596
S'MICHAEL MASTROMARINO, DENTIST GUILTY IN ORGAN SCHEME, DIES AT 49'
p1597
asS'web1-eng-DF-183-195685-4204154_0001.4'
p1598
(lp1599
S'Colson also proposed firebombing the Brookings Institution and stealing politically damaging documents while firefighters put the fire out.'
p1600
asS'nyt_eng_20130709_0087.2'
p1601
(lp1602
S'Michael Mastromarino, a former dental surgeon who became a tabloid sensation when he was charged with running a $4.6 million enterprise that plundered tissue and bone from corpses at funeral homes and sold them for transplants and research, died on Sunday at St. Luke\xe2\x80\x99s Cornwall Hospital in Newburgh, N.Y. He was 49 and still serving a prison term.'
p1603
asS'nyt_eng_20130613_0153.8'
p1604
(lp1605
S'Among them are his daughters, his former wife Winnie Madikizela-Mandela and his grandson Mandla Mandela.'
p1606
asS'nyt_eng_20130613_0153.9'
p1607
(lp1608
S'His current wife, Gra\xc3\xa7a Machel, canceled a speech in London to be by his side.'
p1609
asS'nyt_eng_20130613_0153.2'
p1610
(lp1611
S'JOHANNESBURG - After four days in the hospital battling a lung infection, former President Nelson Mandela of South Africa \xe2\x80\x9cis responding better to treatment,\xe2\x80\x9d President Jacob Zuma told Parliament in Cape Town on Wednesday.'
p1612
asS'nyt_eng_20130613_0153.3'
p1613
(lp1614
S'\xe2\x80\x9cWe are very happy with the progress that he\xe2\x80\x99s now making, following a difficult few days,\xe2\x80\x9d Zuma said.'
p1615
asS'nyt_eng_20130613_0153.1'
p1616
(lp1617
S"SOUTH AFRICAN LEADER CITES 'PROGRESS' IN MANDELA'S CONDITION"
p1618
asS'nyt_eng_20130613_0153.6'
p1619
(lp1620
S'Government officials in the last few days had been more downbeat, describing Mandela\xe2\x80\x99s condition as \xe2\x80\x9cserious but stable\xe2\x80\x9d with no improvement.'
p1621
asS'nyt_eng_20130613_0153.7'
p1622
(lp1623
S'Mandela, 94, is being treated in an intensive care unit, where close family members have been visiting him regularly.'
p1624
asS'nyt_eng_20130613_0153.4'
p1625
(lp1626
S'It was the first report of an improvement in Mandela\xe2\x80\x99s condition since he was admitted to a hospital in Pretoria early Saturday after suffering a recurrence of a persistent lung ailment, a legacy of the tuberculosis he contracted during the 27 years he was imprisoned for opposing apartheid.'
p1627
asS'nyt_eng_20130613_0153.5'
p1628
(lp1629
S'His health has been frail lately, and this hospitalization was his fourth in the last seven months.'
p1630
asS'bolt-eng-DF-200-192451-5796135_0083.36'
p1631
(lp1632
S'Why are there different rules for one country and different rules for other countries?'
p1633
asS'bolt-eng-DF-200-192451-5796135_0083.35'
p1634
(lp1635
S"On the same scale, America has no RIGHT to poke it's nose at the Arab/Israel conflict if Iran hasn't got the same right."
p1636
asS'bolt-eng-DF-200-192451-5796135_0083.34'
p1637
(lp1638
S'Yet when they attack the people who they are "helping", they are labelled terrorists.'
p1639
asS'bolt-eng-DF-200-192451-5796135_0083.33'
p1640
(lp1641
S'The Afghan security force was created by the US and the coalition.'
p1642
asS'bolt-eng-DF-200-192451-5796135_0083.32'
p1643
(lp1644
S"As I said before the mullahs have no right to poke their nose into the Arab-Israel conflict so whether Hezbollah attacked first or otherwise, it doesn't justify their actions."
p1645
asS'bolt-eng-DF-200-192451-5796135_0083.31'
p1646
(lp1647
S"That's a whole different argument and frankly, this has nothing to do with it."
p1648
asS'bolt-eng-DF-200-192451-5796135_0083.30'
p1649
(lp1650
S"They don't seem to be doing much resisting by constantly firing rockets into Israel are they?"
p1651
asS'nyt_eng_20130424_0047.34'
p1652
(lp1653
S'That overhaul is backed by an unlikely coalition.'
p1654
asS'nyt_eng_20130424_0047.35'
p1655
(lp1656
S'Amazon and Google, which offer cloud-based services to consumers and businesses, are lobbying for the change, along with startups like Evernote and Tumblr, which operate modern-day private diaries.'
p1657
asS'nyt_eng_20130424_0047.36'
p1658
(lp1659
S'They have joined with advocacy groups as diverse as the American Civil Liberties Union and Americans for Tax Reform.'
p1660
asS'nyt_eng_20130424_0047.37'
p1661
(lp1662
S'The issue of email privacy received the greatest attention last year, when Gen. David H. Petraeus, the former director of the Central Intelligence Agency, resigned after an inquiry into his email correspondence turned up evidence of an extramarital affair.'
p1663
asS'nyt_eng_20130424_0047.30'
p1664
(lp1665
S'He offered an offline analogy: \xe2\x80\x9cIf somebody had a storage unit, law enforcement would be required to get a search warrant,\xe2\x80\x9d he said.'
p1666
asS'nyt_eng_20130424_0047.31'
p1667
(lp1668
S'\xe2\x80\x9cIt\xe2\x80\x99s the same thing now, as we store more and more of our content in the cloud, consumer or enterprise.\xe2\x80\x9d'
p1669
asS'nyt_eng_20130424_0047.32'
p1670
(lp1671
S'The original sponsor of the 1986 law, Sen. Patrick Leahy, D-Vt., has called its overhaul his top priority for the year.'
p1672
asS'nyt_eng_20130424_0047.33'
p1673
(lp1674
S'He and Sen. Mike Lee, R-Utah, have introduced a measure requiring law enforcement to obtain a warrant for all electronic content, including emails, regardless of how old they are.'
p1675
asS'nyt_eng_20130426_0143.17'
p1676
(lp1677
S'In the best of his recordings, as on that night, he also inhabited them, so that anyone listening to him could be sure: He really means it, he has really lived this song about heartbreak or hangovers and knows what it means, poor soul.'
p1678
asS'nyt_eng_20130426_0143.16'
p1679
(lp1680
S'Over a career that lasted nearly 60 years, Jones recorded more than 100 albums, and over and over again, he didn\xe2\x80\x99t just sing the songs that were given to him.'
p1681
asS'nyt_eng_20130426_0143.15'
p1682
(lp1683
S'But Jones wasn\xe2\x80\x99t ashamed or embarrassed by that display, and when he went back to the stage for a second set of what he described to me as \xe2\x80\x9csad, sloppy tear-jerkers,\xe2\x80\x9d his singing was even more passionate and inspired, with his twangy, somewhat nasal voice cracking in all the right places with what had to be genuine feeling, not artifice.'
p1684
asS'nyt_eng_20130426_0143.14'
p1685
(lp1686
S'It is hard today, in a time when irony has become a dominant cultural mode and artists are screened from reporters by phalanxes of handlers, to imagine so public a breakdown happening or a celebrity letting his pain be so visible.'
p1687
asS'nyt_eng_20130426_0143.13'
p1688
(lp1689
S'This was just George Jones in real life and real time.'
p1690
asS'nyt_eng_20130426_0143.12'
p1691
(lp1692
S'Within a year or two, he would develop a cocaine habit that would send his career off the rails, but there was no sign of that either.'
p1693
asS'nyt_eng_20130426_0143.11'
p1694
(lp1695
S'He talked about how he was trying to stay dry for Tammy, who by that time had already re-married and divorced again.'
p1696
asS'nyt_eng_20130426_0143.10'
p1697
(lp1698
S'I don\xe2\x80\x99t think he was drunk.'
p1699
asS'web1-eng-DF-183-195729-5441907_0001.21'
p1700
(lp1701
S'Then on Market Street to circle around Peabody headquarters along Market, Eighth, Chestnut and Seventh Streets.'
p1702
asS'nyt_eng_20131029_0228.28'
p1703
(lp1704
S'Former Republican state Sen. Alex Villalobos of Miami, president of Democracy at Stake, a bipartisan group that advocates an independent judiciary, said he regretted voting more than a decade ago to weaken the Bar\xe2\x80\x99s role in judicial selection.'
p1705
asS'nyt_eng_20131029_0228.29'
p1706
(lp1707
S'Prior to that, the Bar had three automatic slots on every JNC.'
p1708
asS'nyt_eng_20130426_0143.19'
p1709
(lp1710
S'But seeing George Jones live for the first time that cold night in southern Maryland was a revelation, because in his own highly idiosyncratic way he showed himself to be no less soulful a singer than Howlin\xe2\x80\x99 Wolf on something like \xe2\x80\x9cHow Many More Years\xe2\x80\x9d or Otis Redding on \xe2\x80\x9cI\xe2\x80\x99ve Been Loving You Too Long.\xe2\x80\x9d'
p1711
asS'nyt_eng_20130426_0143.18'
p1712
(lp1713
S'As someone who grew up in Chicago listening mostly to the blues, I had no special fondness for country music, whose only local outlet in those days was the radio station WJJD.'
p1714
asS'web1-eng-DF-183-195681-5458136_0001.14'
p1715
(lp1716
S'During the subsequent purges more than 200 people were executed, 22 000 ended up in prison, and 210 00 emigrated.'
p1717
asS'web1-eng-DF-183-195681-5458136_0001.17'
p1718
(lp1719
S'This is what Putin would like to do after the Maidan revolt kicked out his puppet government in Ukraine.'
p1720
asS'web1-eng-DF-183-195681-5458136_0001.16'
p1721
(lp1722
S'"The revolt was drowned in blood by a Soviet Army military intervention."'
p1723
asS'web1-eng-DF-183-195681-5458136_0001.11'
p1724
(lp1725
S'The ex-minister was able to be convicted on the basis of a law promoted and enforced by the conservative Fidesz party of current Prime Minister Viktor Orb\xc3\xa1n that says the prosecution of war crimes and crimes against humanity are not subject to time limitations.'
p1726
asS'web1-eng-DF-183-195729-5441907_0001.23'
p1727
(lp1728
S'\xe2\x80\x9cThe Patriot Coal chapter of this fight is behind us, now it\xe2\x80\x99s time for Peabody Energy and Arch Coal to meet their responsibilities,\xe2\x80\x9d said UMWA President Roberts.'
p1729
asS'web1-eng-DF-183-195681-5458136_0001.13'
p1730
(lp1731
S'The revolt was drowned in blood by a Soviet Army military intervention.'
p1732
asS'web1-eng-DF-183-195681-5458136_0001.12'
p1733
(lp1734
S'Several thousand people died during the anti-Communist uprising in Hungary in 1956.'
p1735
asS'web1-eng-DF-183-195729-5441907_0001.22'
p1736
(lp1737
S'Marchers will then proceed to Kiener Plaza for a rally.'
p1738
asS'web1-eng-DF-183-195681-5458136_0001.18'
p1739
(lp1740
S'Instead he can only get away with stealing Crimea and causing trouble in parts of eastern Ukraine.'
p1741
asS'web1-eng-DF-183-195861-5359136_0003.1'
p1742
(lp1743
S"2. Gee, lucky someone wasn't killed he should be charged with attempted murder."
p1744
asS'nyt_eng_20130822_0136.17'
p1745
(lp1746
S'Seitz, for example, was responsible for creating free agency in baseball with his decision in the 1975 Andy Messersmith-Dave McNally grievance, but I believe, as Marvin Miller used to complain, that some reports in the news media, including in The New York Times, mistakenly credited other cases: Curt Flood\xe2\x80\x99s 1970 lawsuit against baseball and Catfish Hunter\xe2\x80\x99s 1974 grievance against Charlie Finley.'
p1747
asS'web1-eng-DF-233-195474-1207335_0007.7'
p1748
(lp1749
S'Fuck governments in general.'
p1750
asS'nyt_eng_20130822_0136.16'
p1751
(lp1752
S'While arbitrators pay for their decisions, which anger either the owners or the players, they don\xe2\x80\x99t always receive credit for the significance of their decisions.'
p1753
asS'web1-eng-DF-183-195729-5441907_0001.9'
p1754
(lp1755
S'The event is the latest in a series of protests directed at the world\xe2\x80\x99s largest private-sector coal company, which reported $90 million in net income in the second quarter of 2013.'
p1756
asS'nyt_eng_20130525_0040.12'
p1757
(lp1758
S'\xe2\x80\x9cWe warn all the countries that are intending to participate in the Crusader campaign on our land, even if in the name of peacekeeping, that we will make you taste the heat of death and wounds in your homelands and among your soldiers,\xe2\x80\x9d SITE quoted Belmokhtar as saying.'
p1759
asS'nyt_eng_20130525_0040.11'
p1760
(lp1761
S'The claim was posted by the same user who put out a video of Belmokhtar in December, SITE said, and it asserted that the attacks were in retaliation for purported assertions by Niger to have defeated the jihadists.'
p1762
asS'nyt_eng_20130525_0040.10'
p1763
(lp1764
S'In one, Belmokhtar himself, using his nom de guerre Khalid Abu al-Abbas, signed a claim on jihadist forums that fighters from his \xe2\x80\x9cThose Who Sign with Blood\xe2\x80\x9d brigade - the same group that carried out the Algeria attack - blew up the French mine and the Niger base, according to the SITE Monitoring Service, which tracks extremists.'
p1765
asS'web1-eng-DF-225-195996-5376307_0001.6'
p1766
(lp1767
S"eeing as i had to be CRB for the Olympics and they didn't say anything"
p1768
asS'web1-eng-DF-225-195996-5376307_0001.4'
p1769
(lp1770
S'I was a Gamesmaker for the London 2012 games, and basically as a "Games Graduate" i went for a interview on Monday at a Jobcentre In London, Now i have a previous conviction which i was not convicted of, i was mistaken for someone but i was found guilty for 7 months until it was appealed at the high court; now they made me do a CRB check but will this come up on a Government CRB?'
p1771
asS'web1-eng-DF-225-195996-5376307_0001.5'
p1772
(lp1773
S'or do you think it might be just a basic one?'
p1774
asS'web1-eng-DF-183-195729-5441907_0001.5'
p1775
(lp1776
S'Advisory for Tuesday, Sept. 24th @ 10 am'
p1777
asS'web1-eng-DF-225-195996-5376307_0003.1'
p1778
(lp1779
S'I believe it would come up on a CRB enhanced check but that you would have nothing to worry about as the case was overturned.'
p1780
asS'web1-eng-DF-225-195996-5376307_0003.2'
p1781
(lp1782
S"As an ex-employer I had to have CRB checks done for all my staff and many had convictions, it is up to the discretion of the employer how serious the convictions are to them and their business - I can't see from what you have said how this 'conviction' would be held against you."
p1783
asS'nyt_eng_20131029_0228.5'
p1784
(lp1785
S"''He wants people with humility,'' says Scott\xe2\x80\x99s chief counsel, Pete Antonacci, ''and he wants judges who will follow the law and not make it up as they go along.''"
p1786
asS'web1-eng-DF-183-195729-5441907_0001.2'
p1787
(lp1788
S'Email.'
p1789
asS'web1-eng-DF-183-195681-5458136_0001.5'
p1790
(lp1791
S'Biszku was found guilty today of other crimes, including denying the crimes committed during the communist regime.'
p1792
asS'web1-eng-DF-183-195681-5458136_0001.4'
p1793
(lp1794
S'The once-eminent pro-Soviet functionary is responsible, according to the indictment, for the death of dozens of Hungarians shot dead during the anti-Communist and anti-Soviet uprising in 1956.'
p1795
asS'web1-eng-DF-183-195681-5458136_0001.7'
p1796
(lp1797
S'The former politician may now appeal the verdict.'
p1798
asS'web1-eng-DF-183-195681-5458136_0001.6'
p1799
(lp1800
S'In Hungary denial of the crimes of communism and Holocaust denial are felonies.'
p1801
asS'web1-eng-DF-183-195681-5458136_0001.1'
p1802
(lp1803
S'Source: Romea'
p1804
asS'web1-eng-DF-183-195681-5458136_0001.3'
p1805
(lp1806
S'A court in Hungary has sentenced him to five and a half years in prison.'
p1807
asS'web1-eng-DF-183-195681-5458136_0001.2'
p1808
(lp1809
S'B\xc3\xa9la Biszku (age 92), the former Hungarian Interior Minister during communism, has been convicted of war crimes.'
p1810
asS'web1-eng-DF-183-195681-5458136_0001.9'
p1811
(lp1812
S'His trial began in mid-March and has attracted a great deal of attention in the Hungarian media.'
p1813
asS'web1-eng-DF-183-195681-5458136_0001.8'
p1814
(lp1815
S'Biszku is alleged to have been a member of a commission that ordered the killing of civilians during the protests of 1956.'
p1816
asS'web1-eng-DF-233-195394-1272502_0001.4'
p1817
(lp1818
S'The movie has gotten incredible buzz and was bought by Harvey Weinstein and company the first day it premiered, for a reported 4 million.'
p1819
asS'nyt_eng_20131029_0228.12'
p1820
(lp1821
S'Scott\xe2\x80\x99s list of rejections includes:'
p1822
asS'web1-eng-DF-183-195729-5441907_0001.3'
p1823
(lp1824
S'M E D I A A D V I S O R Y'
p1825
asS'nyt_eng_20130822_0136.19'
p1826
(lp1827
S'Hunter\xe2\x80\x99s grievance contended that Finley, the Oakland Athletics\xe2\x80\x99 owner, had breached his contract.'
p1828
asS'nyt_eng_20130822_0136.18'
p1829
(lp1830
S'Flood\xe2\x80\x99s suit challenged the game\xe2\x80\x99s reserve clause, the rule that bound a player to his team until he was traded, sold or released.'
p1831
asS'bolt-eng-DF-170-181122-8787556_0042.9'
p1832
(lp1833
S'Nevertheless, the whole stereotype you described is complete bullshit.'
p1834
asS'bolt-eng-DF-170-181122-8787556_0042.8'
p1835
(lp1836
S'You need to learn the definition of socialist, then readjust your priorities.'
p1837
asS'nyt_eng_20130822_0136.15'
p1838
(lp1839
S'He will arbitrate Alex Rodriguez\xe2\x80\x99s appeal of his 211-game suspension.'
p1840
asS'nyt_eng_20130822_0136.14'
p1841
(lp1842
S'Fredric R. Horowitz, a 64-year-old lawyer from Santa Monica, Calif., is the latest to take a turn.'
p1843
asS'nyt_eng_20130822_0136.13'
p1844
(lp1845
S'\xe2\x80\x9cHis feeling was there was no other way to decide the case, because the baseball owners had been stupid in assuming that when they didn\xe2\x80\x99t have a player under contract, they still had a contractual hold on him.\xe2\x80\x9d'
p1846
asS'nyt_eng_20130822_0136.12'
p1847
(lp1848
S'\xe2\x80\x9cHe told me he had expected as much,\xe2\x80\x9d Michael Seitz, Peter\xe2\x80\x99s son, said in a recent telephone interview.'
p1849
asS'nyt_eng_20130822_0136.11'
p1850
(lp1851
S'Like managers, they are hired to be fired.'
p1852
asS'nyt_eng_20130822_0136.10'
p1853
(lp1854
S'Either side - the league or the union - has the right to fire them.'
p1855
asS'nyt_eng_20130703_0214.22'
p1856
(lp1857
S'The courts\xe2\x80\x99 decisions make \xe2\x80\x9ca statement that violence against women is not that important, that Afghanistan is becoming more conservative,\xe2\x80\x9d Naderi added.'
p1858
asS'nyt_eng_20130703_0214.21'
p1859
(lp1860
S'How is this not attempted murder?\xe2\x80\x9d'
p1861
asS'nyt_eng_20130703_0214.20'
p1862
(lp1863
S'She was starved and burned and had her fingernails pulled out.'
p1864
asS'afp_eng_20100601_0724.14'
p1865
(lp1866
S'"We need to resolve the deep-seated causes that have resulted in these problems," Wen said in an interview with Hong Kong-based Phoenix Television.'
p1867
asS'xin_eng_20101125_0137.7'
p1868
(lp1869
S'The grants, the first three provided under the GIIF program, will help bring weather-related, index-based insurance to about 35, 000 farmers and 5,000 livestock herders in East Africa over the next three years.'
p1870
asS'bolt-eng-DF-200-192446-3812122_0071.3'
p1871
(lp1872
S'See people can learn to live with each other peacefully, not via segregation.'
p1873
asS'web1-eng-DF-170-181103-5520823_0010.8'
p1874
(lp1875
S'go home and get your shinebox'
p1876
asS'bolt-eng-DF-200-192446-3812122_0071.1'
p1877
(lp1878
S'This is what happens when you dont believe in equality or understand how countries make money.'
p1879
asS'afp_eng_20100601_0724.15'
p1880
(lp1881
S'"This includes handling social contradictions, resolving disputes and strengthening mediation at the grassroots level."'
p1882
asS'bolt-eng-DF-170-181122-8787556_0038.2'
p1883
(lp1884
S'Amen!!!!'
p1885
asS'bolt-eng-DF-170-181122-8787556_0048.2'
p1886
(lp1887
S'Worse than this has been swept under the rug for HS and college football stars there.'
p1888
asS'bolt-eng-DF-170-181122-8787556_0048.1'
p1889
(lp1890
S'You have to understand that in Texas, Football is King and good football players are gods who can do no wrong.'
p1891
asS'bolt-eng-DF-170-181122-8787556_0038.1'
p1892
(lp1893
S'If she was my daughter, those 2 punks that raped her would be found one day after football practice in a ditch with a bullet in their heads.'
p1894
asS'web1-eng-DF-233-195474-1207335_0001.3'
p1895
(lp1896
S'No hope of avoiding extradition, plea deal made'
p1897
asS'web1-eng-DF-183-195861-5359136_0002.4'
p1898
(lp1899
S'On edit after reading the complete article:'
p1900
asS'web1-eng-DF-183-195861-5359136_0002.5'
p1901
(lp1902
S'He was headed to the range with a Taurus Judge loaded with shotgun shells?'
p1903
asS'afp_eng_20100601_0724.10'
p1904
(lp1905
S'Xu, who was sentenced to death on May 15, told the court his motive was to vent his rage against society after losing money gambling and in business dealings, and suffering setbacks in his personal life.'
p1906
asS'web1-eng-DF-183-195861-5359136_0002.6'
p1907
(lp1908
S'What was he gonna shoot at, rabbits?'
p1909
asS'afp_eng_20100601_0724.11'
p1910
(lp1911
S'In late April, a former doctor who stabbed eight schoolchildren to death in a March school attack was executed.'
p1912
asS'bolt-eng-DF-170-181122-8787556_0036.4'
p1913
(lp1914
S'Is it a possibility abc news has blown this out of proportion, twisted and distorted the facts?'
p1915
asS'bolt-eng-DF-200-192446-3812122_0067.3'
p1916
(lp1917
S'They pay a small percent by the overage sum is huge.'
p1918
asS'bolt-eng-DF-170-181122-8787556_0036.6'
p1919
(lp1920
S'The football argument is an old one, not happening these days.'
p1921
asS'bolt-eng-DF-170-181122-8787556_0036.7'
p1922
(lp1923
S'Players these days get 4 game suspensions for selling a t shirt on e-bay.'
p1924
asS'bolt-eng-DF-170-181122-8787556_0036.1'
p1925
(lp1926
S'exas has the most hard core criminal justice system in the country.'
p1927
asS'bolt-eng-DF-170-181122-8787556_0036.2'
p1928
(lp1929
S'Is it a possibility there is another side to this?'
p1930
asS'bolt-eng-DF-170-181122-8787556_0036.3'
p1931
(lp1932
S'Is it a possibility that this young man and his friend did not rape this girl?'
p1933
asS'afp_eng_20100601_0724.13'
p1934
(lp1935
S'Premier Wen Jiabao said last month that long-standing social concerns including joblessness and a gaping rich-poor divide were partially to blame for the string of attacks.'
p1936
asS'bolt-eng-DF-170-181122-8787556_0036.8'
p1937
(lp1938
S"i'd never heard of this case until now."
p1939
asS'bolt-eng-DF-170-181122-8787556_0036.9'
p1940
(lp1941
S'So, i googled it to get more information.'
p1942
asS'web1-eng-DF-183-195861-5359136_0002.1'
p1943
(lp1944
S'1. Dumbass "he didn\'t check to see if the gun was loaded"'
p1945
asS'nyt_eng_20130816_0151.19'
p1946
(lp1947
S'The state spent a total of $153,630 on police overtime throughout the protest, according to FDLE.'
p1948
asS'nyt_eng_20130816_0151.18'
p1949
(lp1950
S"The Capitol Police who had watched over the group, Agnew added, ''deserved a raise.''"
p1951
asS'bolt-eng-DF-170-181122-8787556_0040.1'
p1952
(lp1953
S'They should have been expelled from school at a minimum.'
p1954
asS'web1-eng-DF-183-195861-5359136_0002.2'
p1955
(lp1956
S"They're always loaded, idiot."
p1957
asS'nyt_eng_20131029_0228.6'
p1958
(lp1959
S'The Bar said Scott\xe2\x80\x99s two predecessors, Charlie Crist and Jeb Bush, never rejected any of its nominees.'
p1960
asS'web1-eng-DF-233-195474-1207335_0011.2'
p1961
(lp1962
S'publicly speaking out about destroying the DEA single handedly lol'
p1963
asS'nyt_eng_20130625_0044.14'
p1964
(lp1965
S'Until recently, many South Africans had avoided talking about Mandela\xe2\x80\x99s fate, calling it culturally inappropriate to speculate about any ailing figure, much less one as revered as Mandela, who played a central role in South Africa\xe2\x80\x99s transition from white-led minority rule to historic multirace elections in 1994.'
p1966
asS'nyt_eng_20130625_0044.15'
p1967
(lp1968
S'But now many are openly talking about the prospect of bidding him farewell.'
p1969
asS'nyt_eng_20130625_0044.16'
p1970
(lp1971
S'Mandela\xe2\x80\x99s declining condition came as President Barack Obama prepared to arrive in South Africa on Friday on the second leg of an African tour that will also take him to Tanzania and Senegal.'
p1972
asS'nyt_eng_20130625_0044.17'
p1973
(lp1974
S'But the South African government said a planned meeting between Obama and Mandela - both the first black leaders of their countries - now looked unlikely.'
p1975
asS'nyt_eng_20130625_0044.10'
p1976
(lp1977
S'Still, after 18 days of anxious vigil, many appeared to be steeling themselves for the worst.'
p1978
asS'nyt_eng_20130625_0044.11'
p1979
(lp1980
S'Larger-than-usual crowds gathered at the gates of the Mediclinic Heart Hospital to pay tribute to Mandela, as people dropped off cards at a growing shrine and sang songs.'
p1981
asS'nyt_eng_20130625_0044.12'
p1982
(lp1983
S'\xe2\x80\x9cThere is no one like you, Nelson Mandela,\xe2\x80\x9d one group sang in the Sotho language.'
p1984
asS'nyt_eng_20130625_0044.13'
p1985
(lp1986
S'The emotional scenes were part of a perceptible shift in the national mood.'
p1987
asS'bolt-eng-DF-170-181122-8787556_0048.3'
p1988
(lp1989
S"No, I don't have to understand."
p1990
asS'nyt_eng_20131003_0269.15'
p1991
(lp1992
S'He was to stay overnight at the Athens police headquarters before his transfer to prison.'
p1993
asS'web1-eng-DF-233-195474-1207335_0001.30'
p1994
(lp1995
S'You\'ve got to have projects," he said.'
p1996
asS'web1-eng-DF-170-181103-5520823_0008.5'
p1997
(lp1998
S'I see yer catching on OldGuy!'
p1999
asS'nyt_eng_20131029_0091.12'
p2000
(lp2001
S'But that record was not enough to overcome the national tide of Republicans elected to the House in 2010.'
p2002
asS'web1-eng-DF-183-195685-4204154_0003.5'
p2003
(lp2004
S'I\'m non "happy" he\'s taking a dirt nap, but I\'m not unhappy either.'
p2005
asS'web1-eng-DF-183-195685-4204154_0003.4'
p2006
(lp2007
S'So fuck him and fuck them too.'
p2008
asS'web1-eng-DF-170-181103-5520823_0006.5'
p2009
(lp2010
S'And it even contained your first six-letter word!'
p2011
asS'web1-eng-DF-170-181103-5520823_0006.4'
p2012
(lp2013
S"Ooh, that's a good one!"
p2014
asS'nyt_eng_20131029_0091.10'
p2015
(lp2016
S'Skelton was a social conservative who supported gun rights, opposed abortion rights and voted against President Barack Obama\xe2\x80\x99s health care law.'
p2017
asS'web1-eng-DF-183-195685-4204154_0001.12'
p2018
(lp2019
S'Colson and John Ehrlichman appointed E. Howard Hunt to the White House Special Operations Unit (the so-called "Plumbers") which had been organized to stop leaks in the Nixon administration.'
p2020
asS'web1-eng-DF-183-195685-4204154_0003.6'
p2021
(lp2022
S'He is responsible for all the Roves, Atwaters, and even the Breitbarts who came after him.'
p2023
asS'bolt-eng-DF-170-181122-8787556_0044.3'
p2024
(lp2025
S'A cousin of mine was raped a long time ago, the guy that did it commit suicide shortly after - blew his own head off with a shotgun.'
p2026
asS'bolt-eng-DF-170-181122-8787556_0044.2'
p2027
(lp2028
S'Funny you should say that.'
p2029
asS'web1-eng-DF-183-195729-5441907_0002.1'
p2030
(lp2031
S'1. Kick'
p2032
asS'bolt-eng-DF-170-181122-8787556_0046.4'
p2033
(lp2034
S'No matter how "horny" or drunk they are.'
p2035
asS'nyt_eng_20131029_0091.14'
p2036
(lp2037
S'Skelton was born in Lexington, Mo., and won his first election in 1956 to become the prosecuting attorney in Lafayette County.'
p2038
asS'bolt-eng-DF-170-181122-8787556_0046.1'
p2039
(lp2040
S'A talking to?'
p2041
asS'bolt-eng-DF-170-181122-8787556_0046.3'
p2042
(lp2043
S'16 year old girls do not consent to gang rape.'
p2044
asS'bolt-eng-DF-170-181122-8787556_0046.2'
p2045
(lp2046
S'How about jail?'
p2047
asS'bolt-eng-DF-200-192446-3812122_0068.11'
p2048
(lp2049
S'Very smart those Chinese.'
p2050
asS'bolt-eng-DF-200-192446-3812122_0068.10'
p2051
(lp2052
S"China is already wrapping a fist around the West's balls by buying up their debt and forcing the west to be economically dependent on them."
p2053
asS'bolt-eng-DF-200-192446-3812122_0068.13'
p2054
(lp2055
S'After a few months so the West will be very vulnerable.'
p2056
asS'bolt-eng-DF-200-192446-3812122_0068.12'
p2057
(lp2058
S'India should eventually get in on the act, while weaning themselves off western investment, then when the time is right, they should use economic warfare to plunge western economies into chaos, crippling their financial power, and ultimately their military power.'
p2059
asS'bolt-eng-DF-200-192446-3812122_0068.15'
p2060
(lp2061
S"We're a patient people."
p2062
asS'bolt-eng-DF-200-192446-3812122_0068.14'
p2063
(lp2064
S"We've had to endure your cr*p for generations."
p2065
asS'bolt-eng-DF-200-192446-3812122_0068.16'
p2066
(lp2067
S'We don;t have to rely on military power alone, and we can wait until the time is right.'
p2068
asS'web1-eng-DF-183-195685-4204154_0001.14'
p2069
(lp2070
S'The Pentagon Papers were military documents about the Vietnam War which helped increase opposition to the war.'
p2071
asS'web1-eng-DF-233-195474-1207335_0001.23'
p2072
(lp2073
S'It was done in Canada out in the open for 10 or 12 years," he told CBC News during an interview at the busy downtown Vancouver hemp store he still operates.'
p2074
asS'web1-eng-DF-170-181103-5520823_0004.3'
p2075
(lp2076
S'You sound really soft in the head.'
p2077
asS'nyt_eng_20130712_0047.10'
p2078
(lp2079
S'Morsi and other Brotherhood leaders were arrested Jan. 28 and held in the Wadi Natroun prison north of Cairo, until they escaped two days later.'
p2080
asS'nyt_eng_20131029_0042.5'
p2081
(lp2082
S"''It\xe2\x80\x99s outrageous that county jails pay for housing to more than 130,000 people that illegally enter our state."
p2083
asS'web1-eng-DF-183-195685-4204154_0004.1'
p2084
(lp2085
S'3. Post it everywhere Rec'
p2086
asS'web1-eng-DF-233-195474-1207335_0012.1'
p2087
(lp2088
S'Emery rocks.'
p2089
asS'bolt-eng-DF-170-181122-8787556_0050.7'
p2090
(lp2091
S"And that question Wasn't Directed At You."
p2092
asS'web1-eng-DF-199-192802-997968_0001.2'
p2093
(lp2094
S"A man in Afghanistan is being prosecuted in a Kabul court and could be sentenced to death after being charged with converting from Islam to Christianity, a crime under the country's Islamic sharia laws, a judge said Sunday."
p2095
asS'web1-eng-DF-212-191698-32063_0001.10'
p2096
(lp2097
S'"If necessary we may interrogate Rana also, though we have no immediate plan to do so," an official said.'
p2098
asS'web1-eng-DF-212-191698-32063_0001.11'
p2099
(lp2100
S"Headley has also told his interrogators that the Pakistani intelligence agency had paid Rs 25 lakh to LeT to purchase a boat which terrorists used to travel from Karachi to the Pakistani maritime boundary, where they hijacked an Indian fishing boat 'Kuber' to reach Mumbai."
p2101
asS'web1-eng-DF-212-191698-32063_0001.12'
p2102
(lp2103
S'Headley also identified through voice sample test two ISI officers believed to be constant contact with the terrorists who carried out the 60-hour attack in Mumbai on November 26, 2008.'
p2104
asS'web1-eng-DF-212-191698-32063_0001.13'
p2105
(lp2106
S'Officials said Indian investigators have information that ISI chief Lieutenant General Ahmed Shuja Pasha had met one of the handlers of the Mumbai attack, Sajjid Mir, who is currently in a Pakistani jail.'
p2107
asS'web1-eng-DF-212-191698-32063_0001.14'
p2108
(lp2109
S'"All this information have been shared by India with Pakistan through the multiple dossiers given to it," the official said.'
p2110
asS'nyt_eng_20130709_0087.3'
p2111
(lp2112
S'The cause was complications of metastatic liver cancer, Mario Gallucci, Mastromarino\xe2\x80\x99s lawyer, said.'
p2113
asS'nyt_eng_20131029_0228.19'
p2114
(lp2115
S'He said he did not know what the Florida Bar\xe2\x80\x99s agenda was in choosing which lawyers to send to Scott, and defended the practice of rejecting Bar names.'
p2116
asS'apw_eng_20101231_0037.18'
p2117
(lp2118
S'The government also announced new assistance to rice, corn and wheat farmers intended to increase production and bring down prices.'
p2119
asS'nyt_eng_20130703_0214.3'
p2120
(lp2121
S'A family had bought the young woman, Sahar Gul, from her stepbrother for $5,000 and had forced her to marry in 2011, when she was just 13 or 14.'
p2122
asS'bolt-eng-DF-170-181122-8787556_0036.5'
p2123
(lp2124
S'Texas criminal courts and prosecutors do not coddle to anyone.'
p2125
asS'nyt_eng_20130822_0136.8'
p2126
(lp2127
S'\xe2\x80\x9cYou\xe2\x80\x99re fired,\xe2\x80\x9d it said in effect.'
p2128
asS'web1-eng-DF-183-195685-4204154_0001.3'
p2129
(lp2130
S'In a February 13, 1973 conversation, Colson told Nixon that he had always had \xe2\x80\x9ca little prejudice.\xe2\x80\x9d Plotz reports that Colson sought to hire Teamsters thugs to beat up anti-war demonstrators.'
p2131
asS'nyt_eng_20131029_0042.20'
p2132
(lp2133
S'For Use By Clients of the New York Times News Service'
p2134
asS'nyt_eng_20130709_0087.4'
p2135
(lp2136
S'The technology that allows the transplantation of critical organs also enables the far more common transplantation of tissue: bone can be used to repair fractures, veins for heart bypass surgery, and tendons and ligaments can restore mobility.'
p2137
asS'nyt_eng_20130424_0047.8'
p2138
(lp2139
S'The current statute requires a warrant for emails that are less than 6 months old, but it lets the authorities gain access to older communications \xe2\x80\x93 or bizarrely, emails that have already been opened \xe2\x80\x93 with just a subpoena and no judicial review.'
p2140
asS'nyt_eng_20130424_0047.9'
p2141
(lp2142
S'The law governs the privacy of practically everything entrusted to the Internet \xe2\x80\x93 family photos stored with a Web service, journal entries kept online, company documents uploaded to the cloud, and the flurry of emails exchanged every day.'
p2143
asS'nyt_eng_20130424_0047.1'
p2144
(lp2145
S'UPDATING AN EMAIL LAW FROM THE PAST CENTURY'
p2146
asS'nyt_eng_20130424_0047.2'
p2147
(lp2148
S'Steven Warshak, a Cincinnati businessman who built an empire selling male sexual enhancement drugs, was convicted of wire fraud several years ago, based in large part on his email correspondence, which authorities had extracted via a subpoena under a 1986 law governing electronic privacy.'
p2149
asS'nyt_eng_20130424_0047.3'
p2150
(lp2151
S'A federal appeals court in Ohio later found, however, that the government had violated Warshak\xe2\x80\x99s constitutional right to privacy.'
p2152
asS'nyt_eng_20130424_0047.4'
p2153
(lp2154
S'The court said investigators should have convinced a judge that there was probable cause and obtained a search warrant, as though his messages had been stashed in a desk drawer.'
p2155
asS'nyt_eng_20130424_0047.5'
p2156
(lp2157
S'Although the court let the conviction stand, the case highlighted the conflicting legal rules that govern electronic privacy.'
p2158
asS'nyt_eng_20130424_0047.6'
p2159
(lp2160
S'Congress is now set to clarify those rules, bringing that quarter-century-old law, the Electronic Communications Privacy Act, or ECPA, in line with the Internet age.'
p2161
asS'nyt_eng_20130424_0047.7'
p2162
(lp2163
S'On Thursday, the Senate Judiciary Committee will start deliberating a measure that would require the government to get a search warrant, issued by a judge, to gain access to personal emails and all other electronic content held by a third-party service provider.'
p2164
asS'bolt-eng-DF-200-192451-5796135_0085.13'
p2165
(lp2166
S"How did me explaining the reason for China and Russia's veto somehow make me an American lover."
p2167
asS'bolt-eng-DF-200-192451-5796135_0085.12'
p2168
(lp2169
S'Why do you keep jumping to conclusions.'
p2170
asS'bolt-eng-DF-200-192451-5796135_0085.11'
p2171
(lp2172
S'Note it was a question.'
p2173
asS'bolt-eng-DF-200-192451-5796135_0085.10'
p2174
(lp2175
S'Where did I say that?'
p2176
asS'bolt-eng-DF-200-192451-5796135_0085.17'
p2177
(lp2178
S'No.'
p2179
asS'bolt-eng-DF-200-192451-5796135_0085.16'
p2180
(lp2181
S"Though based on what you're criticising Iran for, it should be quite a bit down on your priority list."
p2182
asS'bolt-eng-DF-200-192451-5796135_0085.15'
p2183
(lp2184
S"The way OP is written makes it a good guess you'd be backing US-Israel because you seemed to be agreeing with the proposed intervention by them, but fair enough if you're not."
p2185
asS'bolt-eng-DF-200-192451-5796135_0085.14'
p2186
(lp2187
S"Bishy said that 'we'd see more positive results from China and Russia' and I implied that the Chinese and Russians hold no sympathy for the Syrian people rather they want to maintain their control and not have the US throw its weight around."
p2188
asS'bolt-eng-DF-200-192451-5796135_0085.19'
p2189
(lp2190
S'Why does the US and Israel having favoured factions justify Iran to do the same.'
p2191
asS'bolt-eng-DF-200-192451-5796135_0085.18'
p2192
(lp2193
S'I was just mentioning the Iran bit...'
p2194
asS'nyt_eng_20130709_0087.5'
p2195
(lp2196
S'Harvesting organs is allowed in New York state, provided the donor does not carry a potentially communicable disease, the survivors approve and the person is not too old.'
p2197
asS'bolt-eng-DF-200-192446-3811676_0095.23'
p2198
(lp2199
S'It is enormously dependent on the support of the whole of the UK.'
p2200
asS'bolt-eng-DF-170-181122-8787556_0052.8'
p2201
(lp2202
S'They told her to avoid the cafeteria and not take part in homecoming.'
p2203
asS'bolt-eng-DF-170-181122-8787556_0052.9'
p2204
(lp2205
S'Out of sight, out of mind.'
p2206
asS'bolt-eng-DF-200-192446-3810379_0021.3'
p2207
(lp2208
S'He thinks we need to deport all Muslims from Europe Turkey North Iran and Palestine.'
p2209
asS'nyt_eng_20130603_0111.9'
p2210
(lp2211
S'A spokesman for the Ecuadorean government said last week that the foreign minister, Ricardo Patino, planned to travel to London on June 16, three days before Assange\xe2\x80\x99s first anniversary in the embassy, and to meet with Assange.'
p2212
asS'nyt_eng_20130603_0111.8'
p2213
(lp2214
S'Assange has never acknowledged that Manning was his source.'
p2215
asS'nyt_eng_20130426_0143.41'
p2216
(lp2217
S'All that may be true, but it can\xe2\x80\x99t \xe2\x80\x93 and doesn\xe2\x80\x99t \xe2\x80\x93 dim the magnificence of his achievements, any more than his personal weaknesses and demons did.'
p2218
asS'nyt_eng_20130603_0111.5'
p2219
(lp2220
S'The development concerning Assange came on the same day as the court-martial of Pfc. Bradley Manning, the Army private accused of passing on sensitive diplomatic and military information, was scheduled to begin in Maryland.'
p2221
asS'bolt-eng-DF-200-192446-3810379_0021.4'
p2222
(lp2223
S'He attacked his own kind because killing Muslims would lead to them being replaced by more Muslims.'
p2224
asS'nyt_eng_20130603_0111.7'
p2225
(lp2226
S'Manning has said he gave the material to WikiLeaks, which then helped disseminate it.'
p2227
asS'nyt_eng_20130603_0111.6'
p2228
(lp2229
S'Manning has pleaded guilty to 20 of the 22 charges against him, but he has not admitted to the most serious charge, aiding the enemy.'
p2230
asS'nyt_eng_20130603_0111.1'
p2231
(lp2232
S'BRITAIN AND ECUADOR MAY DISCUSS ASSANGE CASE'
p2233
asS'nyt_eng_20130603_0111.3'
p2234
(lp2235
S'Assange, the founder of the anti-secrecy group WikiLeaks, has been holed up for nearly a year in the tiny Ecuadorean Embassy here, stymying British attempts to extradite him to Sweden.'
p2236
asS'bolt-eng-DF-200-192446-3811676_0095.24'
p2237
(lp2238
S"It would have to scrap free university fees, it wouldn't have the NHS, thus UK infrastructure employs many Scots."
p2239
asS'nyt_eng_20130703_0214.10'
p2240
(lp2241
S'Last month, however, in a decision that received little publicity, the Supreme Court sent the case back to the appeals court, saying that the violence appeared to warrant convictions for assault, not attempted murder, according to lawyers for the defendants.'
p2242
asS'bolt-eng-DF-200-192446-3810379_0021.6'
p2243
(lp2244
S'In short he has wiped out a number of potential future left wing politicians.'
p2245
asS'nyt_eng_20131022_0102.32'
p2246
(lp2247
S'I would socialize in there.'
p2248
asS'web1-eng-DF-233-195474-1207335_0001.22'
p2249
(lp2250
S'"The DA wants to paint me as a large player providing a lot of marijuana to people, and we\'ll bring up that it was only seeds and it was totally transparent.'
p2251
asS'nyt_eng_20130709_0087.6'
p2252
(lp2253
S'But there are nowhere near enough willing donors to meet the demand for tissue, so the profit from one body can reach six figures.'
p2254
asS'bolt-eng-DF-200-192446-3810379_0021.7'
p2255
(lp2256
S'He also sees himself a bit like a templar knight defending Christianity from Islam'
p2257
asS'nyt_eng_20131029_0228.9'
p2258
(lp2259
S'The governor has rejected the lists 16 times and has never publicly given a reason and is not required to do so.'
p2260
asS'bolt-eng-DF-200-192446-3812122_0069.8'
p2261
(lp2262
S"Oh, I feel so sorry for the poor white people, they've had it sooooo bad."
p2263
asS'bolt-eng-DF-200-192446-3812122_0069.9'
p2264
(lp2265
S'Who the hell are the blacks, who were enslaved by whites to complain?'
p2266
asS'nyt_eng_20131029_0228.8'
p2267
(lp2268
S'Scott appoints five members of his choosing and must appoint four others from lists provided by the Bar\xe2\x80\x99s Board of Governors, some of whom are liberal Democrats who did not support Scott\xe2\x80\x99s election.'
p2269
asS'bolt-eng-DF-200-192446-3812122_0069.4'
p2270
(lp2271
S'arabs conquered the old eastern roman empire, they attempted to invade europe for centuries, finally being repelled at the battle of le panto.'
p2272
asS'bolt-eng-DF-200-192446-3812122_0069.5'
p2273
(lp2274
S'white people today and victims of massive levels of anti white violence all across the western world.'
p2275
asS'bolt-eng-DF-200-192446-3812122_0069.6'
p2276
(lp2277
S'america especially.'
p2278
asS'bolt-eng-DF-200-192446-3812122_0069.7'
p2279
(lp2280
S'you are a racist.'
p2281
asS'bolt-eng-DF-200-192446-3812122_0069.1'
p2282
(lp2283
S'are you aware that the arabs and whites were rival powers until the white europeans overtook following the renaissance?'
p2284
asS'bolt-eng-DF-200-192446-3812122_0069.2'
p2285
(lp2286
S'millions of white christians were enslaved by arabs.'
p2287
asS'bolt-eng-DF-200-192446-3812122_0069.3'
p2288
(lp2289
S'pain, a white country was occupied by arabs for centuries.'
p2290
asS'apw_eng_20090611_0697.7'
p2291
(lp2292
S'We must look at their reasons."'
p2293
asS'apw_eng_20090611_0697.6'
p2294
(lp2295
S'"That\'s impossible.'
p2296
asS'apw_eng_20090611_0697.5'
p2297
(lp2298
S'"It is not very intelligent to chase terrorists down the Afghan mountains or central Asia," Gadhafi said in the hour-long speech.'
p2299
asS'apw_eng_20090611_0697.4'
p2300
(lp2301
S"Gadhafi, who was long accused of sponsoring terrorism, got tepid applause from the Italian lawmakers he addressed on the second day of a trip to Italy, Libya's former colonial ruler."
p2302
asS'apw_eng_20090611_0697.3'
p2303
(lp2304
S"Libyan leader Moammar Gadhafi on Thursday urged the world to understand what motivates terrorists, and likened the 1986 U.S. strikes on Libya to Osama bin Laden's terror attacks."
p2305
asS'apw_eng_20090611_0697.2'
p2306
(lp2307
S'ROME 2009-06-11 13:34:38 UTC'
p2308
asS'apw_eng_20090611_0697.1'
p2309
(lp2310
S'Gadhafi attacks US in speech in Italy'
p2311
asS'nyt_eng_20130709_0087.7'
p2312
(lp2313
S'Mastromarino became licensed by New York state to supply tissue banks and manufacturers of biological surgical instruments after his dental license was suspended in 2002 because of a drug addiction.'
p2314
asS'nyt_eng_20130709_0087.8'
p2315
(lp2316
S'He established a network of undertakers, whom he paid up to $1,000 per corpse, and soon took on assistants and formed a business based in New Jersey, Biomedical Tissue Services.'
p2317
asS'nyt_eng_20130709_0087.9'
p2318
(lp2319
S'He reportedly made $10,000 to $15,000 per body.'
p2320
asS'nyt_eng_20131022_0102.18'
p2321
(lp2322
S'She said the career services office needed a quiet area where students can \xe2\x80\x9cmeet with outside employers, with alumni, to seek advice on careers.\xe2\x80\x9d'
p2323
asS'apw_eng_20090611_0697.9'
p2324
(lp2325
S'Sarcastically, he asked, "What\'s the difference between the U.S. airstrikes on our homes and bin Laden\'s actions?"'
p2326
asS'apw_eng_20090611_0697.8'
p2327
(lp2328
S'He called for dialogue with terrorists, saying, "One must talk to the devil, if it brings about a solution."'
p2329
asS'nyt_eng_20130625_0044.8'
p2330
(lp2331
S'On Sunday, he visited Mandela and pronounced that his state had deteriorated from stable to critical.'
p2332
asS'nyt_eng_20130625_0044.9'
p2333
(lp2334
S'Noting that Mandela\xe2\x80\x99s 95th birthday is on July 18, Zuma urged South Africans to celebrate his achievements.'
p2335
asS'nyt_eng_20130625_0044.2'
p2336
(lp2337
S'JOHANNESBURG - Singing crowds gathered outside the hospital where Nelson Mandela, South Africa\xe2\x80\x99s former president, lay in a critical state for a third consecutive day Tuesday, as family members held an emergency meeting at his ancestral village.'
p2338
asS'nyt_eng_20130625_0044.3'
p2339
(lp2340
S'Mandela\xe2\x80\x99s eldest daughter, Makaziwe, at least two grandchildren and clan elders gathered at Mandela\xe2\x80\x99s retirement house in Qunu, the remote southern village where he grew up, according to news media reports.'
p2341
asS'nyt_eng_20130625_0044.1'
p2342
(lp2343
S'VIGIL FOR MANDELA CONTINUES AS FAMILY MEMBERS HOLD EMERGENCY MEETING'
p2344
asS'nyt_eng_20130625_0044.6'
p2345
(lp2346
S'He was hospitalized June 8, his fourth hospitalization since late last year.'
p2347
asS'nyt_eng_20130625_0044.7'
p2348
(lp2349
S'In a statement, President Jacob Zuma said Mandela\xe2\x80\x99s condition was unchanged.'
p2350
asS'nyt_eng_20130625_0044.4'
p2351
(lp2352
S'The subject of the meeting was not publicly disclosed, but Naplisi Mandela, an elder of the Mandela family, told the South African Press Association that they had gathered to discuss \xe2\x80\x9cdelicate matters\xe2\x80\x9d - a euphemism widely interpreted to mean preparations for Mandela\xe2\x80\x99s death.'
p2353
asS'nyt_eng_20130625_0044.5'
p2354
(lp2355
S'Meanwhile, in Pretoria, doctors continued to treat Mandela for a lung ailment that he contracted on Robben Island, the notorious apartheid-era prison where he spent much of his 27 years behind bars until his release in 1990.'
p2356
asS'xin_eng_20101125_0137.4'
p2357
(lp2358
S'"These partnerships highlight IFC\'s commitment to expanding insurance and other financial products where they are needed most in Africa.'
p2359
asS'xin_eng_20101125_0137.5'
p2360
(lp2361
S'The Global Index Insurance Facility will facilitate farmers\' access to credit, leading to increased productivity, improved livelihoods and greater food security," Jean Philippe Prosper, IFC Director for Eastern and Southern Africa said.'
p2362
asS'xin_eng_20101125_0137.6'
p2363
(lp2364
S'"We are grateful to the donors that have generously provided funding and to our partners for supporting this program."'
p2365
asS'nyt_eng_20131022_0102.14'
p2366
(lp2367
S'And just in time for an outdoor demonstration on Monday, someone set off a fire alarm, sending hundreds of people out onto the plaza.'
p2368
asS'xin_eng_20101125_0137.1'
p2369
(lp2370
S'IFC signs deal to expand insurance to farmers in East Africa'
p2371
asS'xin_eng_20101125_0137.2'
p2372
(lp2373
S'NAIROBI, Nov. 25 (Xinhua) -- International Finance Corporation (IFC) has signed agreements with three partners to expand access to insurance to thousands of farmers and livestock herders in Kenya and Rwanda to help protect their crops, animals and livelihoods from weather-related risks and natural disasters.'
p2374
asS'xin_eng_20101125_0137.3'
p2375
(lp2376
S'IFC, through the Global Index Insurance Facility (GIIF), will confer grants totaling roughly 4.1 million U. S. dollars to the Syngenta Foundation for Sustainable Agriculture/UAP Insurance weather index insurance initiative in Kenya; the International Livestock Research Institute (ILRI) Livestock index insurance project in northern Kenya; and the MicroEnsure weather index insurance project in Rwanda.'
p2377
asS'nyt_eng_20131022_0102.13'
p2378
(lp2379
S'A protester was arrested.'
p2380
asS'xin_eng_20101125_0137.8'
p2381
(lp2382
S'"The implementation of these three first GIIF projects in Kenya and Rwanda will support the development of new insurance products and will increase expertise in this field, which will benefit smallholders and livestock keepers affected by climatic events," he said.'
p2383
asS'xin_eng_20101125_0137.9'
p2384
(lp2385
S'"In addition to the GIIF, the European Union is providing further financing to the ILRI Livestock Insurance project in Kenya through the 10th European Development Fund, Kenya Rural Development Project that will start in 2011."'
p2386
asS'nyt_eng_20130816_0151.11'
p2387
(lp2388
S'Scott met with the protesters July 18 but refused their demands.'
p2389
asS'bolt-eng-DF-170-181122-8787556_0052.12'
p2390
(lp2391
S'The kids were all teenagers, and the sex was claimed to be consensual.'
p2392
asS'bolt-eng-DF-170-181122-8787556_0052.13'
p2393
(lp2394
S'I have no idea whether it was, and neither does anyone of this forum.'
p2395
asS'web1-eng-DF-199-192802-997968_0004.1'
p2396
(lp2397
S'On CBC radio this morning, the quoted an Afghan prosecutor as saying the man is now considered mentally incompetent to stand trial.'
p2398
asS'nyt_eng_20130816_0151.10'
p2399
(lp2400
S"''We said if (Scott) would not give us a seat at the table, we would sleep on the floor until (he) gave us what we deserved,'' Agnew said."
p2401
asS'web1-eng-DF-170-181103-5520823_0002.1'
p2402
(lp2403
S'Guests cannot see images in the messages.'
p2404
asS'nyt_eng_20130828_0147.15'
p2405
(lp2406
S'His lawyer, Edward Little, explained that his client also spent a brief period in the U.S., where his wife\xe2\x80\x99s family lives.'
p2407
asS'nyt_eng_20130816_0151.13'
p2408
(lp2409
S'As of Thursday, 42 lawmakers had voted in favor of holding the session, 90 voted against, and 28 had yet to vote.'
p2410
asS'nyt_eng_20130828_0147.14'
p2411
(lp2412
S'Grout, for his part, left London this year for his native France, which typically does not extradite its citizens.'
p2413
asS'nyt_eng_20130426_0143.28'
p2414
(lp2415
S'But I turned them all away'
p2416
asS'nyt_eng_20130426_0143.29'
p2417
(lp2418
S'Now I\xe2\x80\x99m living and dying'
p2419
asS'web1-eng-DF-233-195474-1207335_0012.2'
p2420
(lp2421
S"And he's awesome."
p2422
asS'nyt_eng_20130426_0143.22'
p2423
(lp2424
S'Cohen expressed great admiration for Jones and then recited one of the song\xe2\x80\x99s most powerful verses:'
p2425
asS'nyt_eng_20130426_0143.23'
p2426
(lp2427
S'I was tempted'
p2428
asS'nyt_eng_20130426_0143.20'
p2429
(lp2430
S'Despite all the drinking and drug binges that would dog his career, Jones never lost that gift.'
p2431
asS'nyt_eng_20130426_0143.21'
p2432
(lp2433
S'In 2009, assigned to write a profile of the Canadian singer-songwriter Leonard Cohen for this newspaper, I walked into Cohen\xe2\x80\x99s New York hotel suite to find him playing one of Jones\xe2\x80\x99 late-career gems, \xe2\x80\x9cChoices,\xe2\x80\x9d on his iPod.'
p2434
asS'nyt_eng_20130426_0143.26'
p2435
(lp2436
S'Oh, and I never turned it down'
p2437
asS'nyt_eng_20130426_0143.27'
p2438
(lp2439
S'There were loved ones'
p2440
asS'nyt_eng_20130426_0143.24'
p2441
(lp2442
S'By an early age I found'
p2443
asS'nyt_eng_20130426_0143.25'
p2444
(lp2445
S'I liked drinkin\xe2\x80\x99'
p2446
asS'nyt_eng_20130816_0151.17'
p2447
(lp2448
S'Agnew said the Dream Defenders had not been pressured to wrap up their protest by the governor\xe2\x80\x99s office or state law enforcement officials.'
p2449
asS'nyt_eng_20131022_0102.19'
p2450
(lp2451
S'City College said the unusually swift action was necessary.'
p2452
asS'nyt_eng_20130828_0147.18'
p2453
(lp2454
S'That trader, Bruno Iksil, has reached a deal with the authorities in Manhattan that will spare him charges as long as he cooperates against his two former colleagues.'
p2455
asS'nyt_eng_20131022_0102.17'
p2456
(lp2457
S'Deidra Hill, vice president of communications at City College, called the administration\xe2\x80\x99s takeover of the room a matter of space.'
p2458
asS'nyt_eng_20131022_0102.16'
p2459
(lp2460
S'\xe2\x80\x9cWe provide so many services for the community - know-your-rights training, a farm share that provides healthy food, we\xe2\x80\x99ve run a soup kitchen, we have provided baby-sitting services for people in the community.\xe2\x80\x9d'
p2461
asS'nyt_eng_20131022_0102.15'
p2462
(lp2463
S'\xe2\x80\x9cI think that the CUNY administration is really scared of a lot of the organizing and community-building coming out of the building,\xe2\x80\x9d said Alyssia Osorio, director of the Morales/Shakur Center.'
p2464
asS'nyt_eng_20130816_0151.16'
p2465
(lp2466
S'The group also secured meetings with the Florida Department of Law Enforcement to discuss racial profiling, Agnew said, and began a dialogue with the state Department of Juvenile Justice on the disproportionate number of young African-American men in prison.'
p2467
asS'nyt_eng_20130822_0136.2'
p2468
(lp2469
S'On Baseball);'
p2470
asS'nyt_eng_20131022_0102.12'
p2471
(lp2472
S'They organized protest rallies, distributed fliers, posted videos and demanded that City College be shut down.'
p2473
asS'nyt_eng_20131022_0102.11'
p2474
(lp2475
S'Given the center\xe2\x80\x99s history, it could not have come entirely as a surprise when its former occupants let their dissatisfaction be known.'
p2476
asS'nyt_eng_20131022_0102.10'
p2477
(lp2478
S'(The door had been repainted, without the fist, as of Monday afternoon.)'
p2479
asS'bolt-eng-DF-200-192446-3812122_0072.12'
p2480
(lp2481
S"Who is this 'we'?"
p2482
asS'bolt-eng-DF-200-192446-3812122_0072.13'
p2483
(lp2484
S'Okay, China has the debt bought up, but if they were to be destroyed who would chase it up?'
p2485
asS'bolt-eng-DF-170-181122-8787556_0054.19'
p2486
(lp2487
S'So yes, the title of this thread does kind of bend reality.'
p2488
asS'bolt-eng-DF-200-192446-3812122_0072.16'
p2489
(lp2490
S"The West has far more economic and military power than the East, to suggest otherwise shows that you're delusional."
p2491
asS'nyt_eng_20130424_0047.29'
p2492
(lp2493
S'\xe2\x80\x9cThe law is so old it doesn\xe2\x80\x99t account for how we have turned into a digital society,\xe2\x80\x9d said Bryan Schilling, a lawyer at Microsoft.'
p2494
asS'bolt-eng-DF-200-192446-3812122_0072.14'
p2495
(lp2496
S'India are no match for any Western country, not even Belgium.'
p2497
asS'bolt-eng-DF-200-192446-3812122_0072.15'
p2498
(lp2499
S'Are you going to send the slum kids to attack, or how about the frail women?'
p2500
asS'nyt_eng_20130424_0047.27'
p2501
(lp2502
S'Microsoft, which operates email and cloud storage services, follows a similar practice, insisting on a search warrant for \xe2\x80\x9ccontent,\xe2\x80\x9d including documents, photos, email and instant messages.'
p2503
asS'nyt_eng_20130424_0047.26'
p2504
(lp2505
S'Twitter, too, says \xe2\x80\x9crequests for contents of communication require a U.S. search warrant,\xe2\x80\x9d and it informs users when it receives a request for information from a government agency.'
p2506
asS'nyt_eng_20130424_0047.25'
p2507
(lp2508
S'Facebook says it turns over content created by users \xe2\x80\x93 pictures, posts, messages \xe2\x80\x93 only after it is served with a search warrant, though a subpoena suffices for basic subscriber information, including a user\xe2\x80\x99s name and email address.'
p2509
asS'nyt_eng_20130424_0047.24'
p2510
(lp2511
S'Although the appeals court ruling in the Warshak criminal case is binding only in the 6th Circuit, it has since become the default legal threshold for many Web companies.'
p2512
asS'nyt_eng_20130424_0047.23'
p2513
(lp2514
S'The court declined to hear the case this month, effectively leaving it to Congress to clarify the law.'
p2515
asS'nyt_eng_20130424_0047.22'
p2516
(lp2517
S'Jennings\xe2\x80\x99 lawyer, Neal K. Katyal, a former acting solicitor general in the Obama administration, asked the Supreme Court to reconcile the dueling interpretations.'
p2518
asS'nyt_eng_20130424_0047.21'
p2519
(lp2520
S'A federal court in California years earlier had ruled differently in another case, interpreting \xe2\x80\x9celectronic storage\xe2\x80\x9d far more broadly.'
p2521
asS'nyt_eng_20130424_0047.20'
p2522
(lp2523
S'Jennings claimed a violation of his privacy under the electronic privacy act, but the highest court in his home state of South Carolina held that his emails, which sat on Yahoo\xe2\x80\x99s servers, were not held in \xe2\x80\x9celectronic storage\xe2\x80\x9d and therefore were not covered by the statute.'
p2524
asS'nyt_eng_20130816_0151.20'
p2525
(lp2526
S'The Dream Defenders didn\xe2\x80\x99t anticipate their stay would last a month or that singer Harry Belafonte, rapper Talib Kweli or civil rights leaders Jesse Jackson and Julian Bond would join them in the Capitol.'
p2527
asS'nyt_eng_20130816_0151.21'
p2528
(lp2529
S"''Gov. Scott, through his inaction, created a new group of leaders who will have a lasting effect on Florida,'' said state Rep. Alan Williams, a Tallahassee Democrat who mentored the group."
p2530
asS'nyt_eng_20130816_0151.22'
p2531
(lp2532
S'When they packed up their belongings and left the Capitol Thursday evening, the young activists wondered aloud if there had been some level of divine intervention along the way.'
p2533
asS'nyt_eng_20130816_0151.23'
p2534
(lp2535
S'On Wednesday, the state Department of Management Services announced plans to test the fire alarm system in the Capitol.'
p2536
asS'nyt_eng_20130816_0151.24'
p2537
(lp2538
S"The testing would last from 8 p.m. until midnight, and involve an ''incredibly loud, high-pitch noise,'' according to a press release."
p2539
asS'nyt_eng_20130816_0151.25'
p2540
(lp2541
S'But before the testing began, the building adjacent to the Capitol was struck by lightning.'
p2542
asS'nyt_eng_20130816_0151.26'
p2543
(lp2544
S'The Department of Management Services decided to perform maintenance on that building\xe2\x80\x99s fire alarm system instead.'
p2545
asS'nyt_eng_20130816_0151.27'
p2546
(lp2547
S"''I don\xe2\x80\x99t know how to explain it,'' Dream Defender Steven Pargett said."
p2548
asS'nyt_eng_20130816_0151.28'
p2549
(lp2550
S"''Some things are just meant to happen.''"
p2551
asS'nyt_eng_20130816_0151.29'
p2552
(lp2553
S'Times/Herald staff writers Tia Mitchell and Michael Van Sickler contributed to this report.'
p2554
asS'web1-eng-DF-199-192802-997968_0002.1'
p2555
(lp2556
S'Hmm. Looks like you beat Brandon by 29 minutes'
p2557
asS'web1-eng-DF-183-195861-5359136_0002.3'
p2558
(lp2559
S'Gee, what could possibly go wrong if firearms are allowed on campus?'
p2560
asS'web1-eng-DF-225-195996-5376307_0004.3'
p2561
(lp2562
S'Not sure about basic CRB checks.'
p2563
asS'web1-eng-DF-170-181103-5520823_0005.2'
p2564
(lp2565
S'Are you saying that Brennan hired them in the first place or what?'
p2566
asS'web1-eng-DF-225-195996-5376307_0004.2'
p2567
(lp2568
S"It'll show on enhanced CRB checks."
p2569
asS'web1-eng-DF-170-181103-5520823_0008.4'
p2570
(lp2571
S'Possibly.'
p2572
asS'web1-eng-DF-233-195474-1207335_0001.29'
p2573
(lp2574
S"I'll be learning Spanish, French."
p2575
asS'bolt-eng-DF-200-192451-5796135_0084.6'
p2576
(lp2577
S'Okay Iran should not have Nuclear weapons but Israel has no right to say it,'
p2578
asS'bolt-eng-DF-200-192451-5796135_0084.7'
p2579
(lp2580
S'Its like a thief telling other people not to thieve because its illegal'
p2581
asS'bolt-eng-DF-200-192451-5796135_0084.4'
p2582
(lp2583
S'As for an invasion, definitely not.'
p2584
asS'bolt-eng-DF-200-192451-5796135_0084.5'
p2585
(lp2586
S'why is israel allowed nukes though.'
p2587
asS'bolt-eng-DF-200-192451-5796135_0084.2'
p2588
(lp2589
S"It's so they can throw their weight around without fear of reprisal from America or Israel, not for use."
p2590
asS'bolt-eng-DF-200-192451-5796135_0084.3'
p2591
(lp2592
S"They shouldn't be allowed nukes, period."
p2593
asS'bolt-eng-DF-200-192451-5796135_0084.1'
p2594
(lp2595
S"Well it's obvious they'll say that but it's obvious they're after a bomb."
p2596
asS'nyt_eng_20131029_0228.2'
p2597
(lp2598
S'Times/Herald Tallahassee Bureau'
p2599
asS'nyt_eng_20131029_0228.35'
p2600
(lp2601
S'Contact Steve Bousquet at bousquet@tampabay.com or (850) 224-7263.'
p2602
asS'nyt_eng_20131029_0228.34'
p2603
(lp2604
S'Since becoming governor in 2011, Scott has appointed more than 100 judges statewide.'
p2605
asS'nyt_eng_20131029_0042.19'
p2606
(lp2607
S'Story Filed By Cox Newspapers'
p2608
asS'nyt_eng_20131029_0042.18'
p2609
(lp2610
S'E-mail: mward(at)statesman.com.'
p2611
asS'nyt_eng_20131029_0042.17'
p2612
(lp2613
S'Mike Ward writes for the Austin American-Statesman.'
p2614
asS'nyt_eng_20131029_0042.16'
p2615
(lp2616
S'The savings from that plan were estimated to be at least $15 million, officials said at the time.'
p2617
asS'nyt_eng_20131029_0042.15'
p2618
(lp2619
S'Proposals to deport convicts serving time for nonviolent crimes before they were paroled have failed to gain support from legislative leaders, who feared if they were paroled and returned home they would simply slip back across the border into Texas.'
p2620
asS'nyt_eng_20131029_0042.14'
p2621
(lp2622
S'Most are Mexican citizens, prison officials said.'
p2623
asS'nyt_eng_20131029_0042.13'
p2624
(lp2625
S'At one point last year, well over 12,000 state convicts had deportation detainers on them -- meaning that as soon as they complete their sentence or are paroled they are subject to being deported, officials said.'
p2626
asS'nyt_eng_20131029_0042.12'
p2627
(lp2628
S'Similarly, state officials have also complained that state prisons are holding thousands of undocumented immigrants who were convicted of state crimes.'
p2629
asS'nyt_eng_20131029_0042.11'
p2630
(lp2631
S'State and county officials have complained for years that detained immigrants are costing local taxpayers, and federal officials have declined to reimburse any costs because the jailed suspects are being held on local charges.'
p2632
asS'nyt_eng_20131029_0042.10'
p2633
(lp2634
S'Two weeks ago, Dewhurst publicly advocated Obama\xe2\x80\x99s impeachment at a tea party forum in Fort Worth -- a move that drew surprise since it came from Texas\xe2\x80\x99 No. 2 officeholder.'
p2635
asS'nyt_eng_20131029_0228.13'
p2636
(lp2637
S'* Benjamin Crump of Tallahassee, a criminal defense lawyer honored by the NAACP for his legal advocacy and who is best known for his firm\xe2\x80\x99s representation of the family of Trayvon Martin.'
p2638
asS'nyt_eng_20131029_0228.31'
p2639
(lp2640
S"''We\xe2\x80\x99re reaping what we sowed.''"
p2641
asS'nyt_eng_20130816_0151.15'
p2642
(lp2643
S"The Dream Defenders claimed several victories, including a promise from Weatherford to hold a hearing on the ''stand your ground\xe2\x80\x99' law this fall."
p2644
asS'nyt_eng_20130816_0151.9'
p2645
(lp2646
S"They promised to stay until Scott convened a special session on ''stand your ground\xe2\x80\x99' and several other criminal justice issues."
p2647
asS'nyt_eng_20130816_0151.8'
p2648
(lp2649
S'The Dream Defenders\xe2\x80\x99 occupation of the Capitol began July 16, three days after George Zimmerman was acquitted in the shooting death of Trayvon Martin, an unarmed teenager from Miami-Dade.'
p2650
asS'nyt_eng_20130816_0151.5'
p2651
(lp2652
S'On Thursday, the Miami-based group announced that their record-setting protest is over \xe2\x80\x94 for now, at least.'
p2653
asS'nyt_eng_20130816_0151.4'
p2654
(lp2655
S'But the student activists known as the Dream Defenders drew national attention to their cause by holding the longest sit-in demonstration at the Florida Capitol in recent memory.'
p2656
asS'nyt_eng_20130816_0151.7'
p2657
(lp2658
S'Agnew said the group would register thousands of new voters in the coming months and return to the Capitol for legislative committee hearings in the fall.'
p2659
asS'nyt_eng_20130816_0151.6'
p2660
(lp2661
S"''After 31 days and 30 nights, we are leaving the Capitol for our next phase,'' Dream Defenders executive director Phillip Agnew said."
p2662
asS'nyt_eng_20130816_0151.1'
p2663
(lp2664
S'No special session, but protesters leave Capitol'
p2665
asS'nyt_eng_20130816_0151.3'
p2666
(lp2667
S"TALLAHASSEE \xe2\x80\x94 They weren\xe2\x80\x99t able to persuade Gov. Rick Scott to call a special session on the controversial ''stand your ground\xe2\x80\x99' law."
p2668
asS'nyt_eng_20130816_0151.2'
p2669
(lp2670
S'Times/Herald Tallahassee Bureau'
p2671
asS'nyt_eng_20130426_0143.3'
p2672
(lp2673
S'I was then a young pop music critic at The Washington Post, so it fell to me to write a profile of the notoriously hard-drinking singer.'
p2674
asS'nyt_eng_20130426_0143.2'
p2675
(lp2676
S'Early in 1977, a couple of years after he and Tammy Wynette had divorced, the country music star George Jones played a show at the Stardust Inn in Waldorf, Md., his first in the Washington area in several years.'
p2677
asS'nyt_eng_20130426_0143.1'
p2678
(lp2679
S'GEORGE JONES IN REAL LIFE AND REAL TIME'
p2680
asS'nyt_eng_20130828_0147.6'
p2681
(lp2682
S'The bet involved so-called credit derivatives, which allow traders to bet on the perceived health of companies like American Airlines.'
p2683
asS'nyt_eng_20130426_0143.7'
p2684
(lp2685
S'On stage that weekend, he reworked songs like \xe2\x80\x9cShe Thinks I Still Care\xe2\x80\x9d and \xe2\x80\x9cPicture Me Without You\xe2\x80\x9d so that they included references to her, making them almost embarrassingly personal, as if she were in the audience and he was singing only to her.'
p2686
asS'nyt_eng_20130426_0143.6'
p2687
(lp2688
S'In those days he was still unashamedly carrying a torch for Wynette, who had left him because, as she put it in legal papers she filed, he \xe2\x80\x9cdrinks to such an extent that he becomes completely and absolutely unmanageable.\xe2\x80\x9d'
p2689
asS'nyt_eng_20130426_0143.5'
p2690
(lp2691
S'That weekend I learned two important things about Jones: that there was very little distance between him and his songs, and that the same qualities that made him a great artist also made his life a torment.'
p2692
asS'nyt_eng_20130426_0143.4'
p2693
(lp2694
S'What followed was an experience so intense, so remarkable for its raw emotional force, that I could not help but think of it Friday, when it was announced that Jones had died in a Nashville, Tenn., hospital at the age of 81.'
p2695
asS'nyt_eng_20130426_0143.9'
p2696
(lp2697
S'He was dressed in a flashy leisure suit and wore a pair of glittering diamond rings on his left hand, including one with his initials, but as he talked about Wynette and how much he still loved her, he began to weep.'
p2698
asS'nyt_eng_20130426_0143.8'
p2699
(lp2700
S'But it was on his tour bus between sets that I saw George Jones more achingly and nakedly vulnerable than any performer I have ever encountered, before or since that night.'
p2701
asS'nyt_eng_20130828_0147.9'
p2702
(lp2703
S'Prosecutors also charged them with conspiracy to commit those crimes.'
p2704
asS'nyt_eng_20130828_0147.8'
p2705
(lp2706
S'The two were charged with wire fraud, falsifying bank records and contributing to false regulatory filings.'
p2707
asS'nyt_eng_20130822_0136.25'
p2708
(lp2709
S'No other player could gain free agency based on Seitz\xe2\x80\x99s decision on Hunter.'
p2710
asS'nyt_eng_20130822_0136.22'
p2711
(lp2712
S'Seitz, in his first year as baseball\xe2\x80\x99s arbitrator, agreed with Moss\xe2\x80\x99 argument and declared Hunter a free agent.'
p2713
asS'nyt_eng_20130822_0136.23'
p2714
(lp2715
S'A year later, when Seitz ruled in the Messersmith-McNally grievance, he did not cite the Hunter decision as a basis for this decision.'
p2716
asS'nyt_eng_20130822_0136.20'
p2717
(lp2718
S'The Hunter case was exactly what the union argued, a breach-of-contract case.'
p2719
asS'nyt_eng_20130822_0136.21'
p2720
(lp2721
S'Finley had not paid the premium on Hunter\xe2\x80\x99s annuity, as stipulated in his contract, Richard Moss, the union lawyer, said, and the pitcher should be a free agent as a result.'
p2722
asS'nyt_eng_20130822_0136.26'
p2723
(lp2724
S'\xe2\x80\x9cIt didn\xe2\x80\x99t change the mind of a single owner,\xe2\x80\x9d Miller said of the Hunter decision in one of the many conversations we had on the subject.'
p2725
asS'nyt_eng_20130822_0136.27'
p2726
(lp2727
S'"The owners\xe2\x80\x99 position on free agency was the same after the Hunter case as it was before.\'\''
p2728
asS'nyt_eng_20130822_0136.24'
p2729
(lp2730
S'As a breach-of-contract case, it affected no player but Hunter.'
p2731
asS'nyt_eng_20130710_0155.11'
p2732
(lp2733
S'He faces a money laundering conspiracy charge in Brooklyn.'
p2734
asS'nyt_eng_20130822_0136.28'
p2735
(lp2736
S'Nor, Miller added, did the Flood case affect the owners\xe2\x80\x99 thinking on the reserve clause and free agency.'
p2737
asS'nyt_eng_20130822_0136.29'
p2738
(lp2739
S'The reserve clause had forever been the tie that bound players to their teams, whether they liked it or not.'
p2740
asS'nyt_eng_20131029_0042.9'
p2741
(lp2742
S'Dewhurst, who has drawn three GOP challengers in his re-election bid, has made a sharp turn to the right in his political rhetoric since losing a U.S. Senate runoff to tea party star Ted Cruz in July 2012.'
p2743
asS'nyt_eng_20131029_0042.8'
p2744
(lp2745
S'No word yet from Washington on what they think of Dewhurst\xe2\x80\x99s demand, but don\xe2\x80\x99t expect a check to be arriving anytime soon.'
p2746
asS'nyt_eng_20130703_0214.18'
p2747
(lp2748
S'\xe2\x80\x9cThis poor girl was in the basement for months.'
p2749
asS'nyt_eng_20130703_0214.19'
p2750
(lp2751
S'If she wasn\xe2\x80\x99t rescued, she would be dead.'
p2752
asS'nyt_eng_20130613_0153.14'
p2753
(lp2754
S'He was sentenced to life in prison, but was released in 1990 as the government, under intense international pressure, began negotiating with Mandela and the ANC.'
p2755
asS'nyt_eng_20130613_0153.15'
p2756
(lp2757
S'Mandela was elected as South Africa\xe2\x80\x99s first black president in 1994 and served one term.'
p2758
asS'nyt_eng_20130613_0153.16'
p2759
(lp2760
S'He retired from public life in 2004, and has not been seen in public since 2010, when South Africa hosted the World Cup.'
p2761
asS'nyt_eng_20130703_0214.15'
p2762
(lp2763
S'Afghan women\xe2\x80\x99s rights activists reacted with alarm and said they would press to have the three defendants retried.'
p2764
asS'nyt_eng_20130613_0153.10'
p2765
(lp2766
S'Mandla Mandela, who is a traditional leader in the Eastern Cape village where his grandfather was born, spoke to reporters outside Mandela\xe2\x80\x99s home.'
p2767
asS'nyt_eng_20130613_0153.11'
p2768
(lp2769
S'\xe2\x80\x9cMy grandfather is the father of the nation,\xe2\x80\x9d he said.'
p2770
asS'nyt_eng_20130613_0153.12'
p2771
(lp2772
S'\xe2\x80\x9cHe\xe2\x80\x99s embraced by the global community, and we appreciate the support that we\xe2\x80\x99ve received.\xe2\x80\x9d'
p2773
asS'nyt_eng_20130613_0153.13'
p2774
(lp2775
S'As an underground leader of the banned African National Congress, Mandela was convicted of treason 49 years ago Wednesday.'
p2776
asS'nyt_eng_20130822_0136.4'
p2777
(lp2778
S'It was two days before Christmas 1975, not a time to be conducting serious business, but Gaherin and Marvin Miller, the executive director of the union, knew why Peter Seitz, the arbitrator, had summoned them.'
p2779
asS'web1-eng-DF-183-195685-4204154_0003.2'
p2780
(lp2781
S'But you know what?'
p2782
asS'bolt-eng-DF-200-192451-5796135_0085.20'
p2783
(lp2784
S"It doesn't justify it, but it puts their actions into context."
p2785
asS'bolt-eng-DF-200-192451-5796135_0085.21'
p2786
(lp2787
S"On the same logic, being hit by someone doesn't justify hitting them, but it makes why you do (if you do) understandable."
p2788
asS'web1-eng-DF-170-181103-5520823_0014.4'
p2789
(lp2790
S'At least sometimes.'
p2791
asS'nyt_eng_20130822_0136.35'
p2792
(lp2793
S'What the owners failed to understand, in their inexperience in labor matters, was that judges rarely overruled an arbitrator\xe2\x80\x99s decision, doing so only if an arbitrator\xe2\x80\x99s authority had been exceeded.'
p2794
asS'web1-eng-DF-183-195729-5441907_0001.32'
p2795
(lp2796
S'These companies are profitable, and they must step up to meet their obligations to these retirees.\xe2\x80\x9d'
p2797
asS'nyt_eng_20130822_0136.34'
p2798
(lp2799
S'Its failure was one of the reasons the owners were so confident of winning the Messersmith-McNally grievance in court when they appealed Seitz\xe2\x80\x99s decision, which said players could be free agents if they played the renewal year in their contract without signing a new contract.'
p2800
asS'nyt_eng_20130822_0136.37'
p2801
(lp2802
S'That history continued last year when Shyam Das overturned Ryan Braun\xe2\x80\x99s 50-game suspension.'
p2803
asS'nyt_eng_20130619_0092.4'
p2804
(lp2805
S'The Shabab, the fearsome Islamist militant group that once controlled much of the capital, claimed responsibility for the attack, which government officials said left at least 15 people dead, including seven attackers.'
p2806
asS'nyt_eng_20130619_0092.5'
p2807
(lp2808
S'The assault began when Shabab militants blew up a pickup truck rigged with explosives outside the compound, witnesses said.'
p2809
asS'nyt_eng_20130619_0092.6'
p2810
(lp2811
S'Militants armed with rifles and wearing explosive vests then stormed the facility on foot.'
p2812
asS'nyt_eng_20130619_0092.7'
p2813
(lp2814
S'Somali and African Union troops responded to the scene.'
p2815
asS'nyt_eng_20130619_0092.1'
p2816
(lp2817
S'MILITANTS ATTACK U.N.'
p2818
asS'nyt_eng_20130619_0092.2'
p2819
(lp2820
S'COMPOUND IN SOMALIA'
p2821
asS'nyt_eng_20130619_0092.3'
p2822
(lp2823
S'MOGADISHU, Somalia - Militants staged a deadly assault on a U.N. compound here Wednesday, the latest in a series of attacks that have chipped away at the security gains the Somali capital has experienced in recent years.'
p2824
asS'nyt_eng_20131022_0102.1'
p2825
(lp2826
S'PROTESTS AS CITY COLLEGE CLOSES A STUDENT CENTER'
p2827
asS'nyt_eng_20130619_0092.8'
p2828
(lp2829
S'The ensuing firefight lasted more than an hour, punctuated by a series of blasts.'
p2830
asS'nyt_eng_20130619_0092.9'
p2831
(lp2832
S'Somalia\xe2\x80\x99s minister of interior and national security, Abdikarim Hussein Guled, told reporters that the dead included four foreigners, four Somalis working for the United Nations as security personnel, as well as the attackers.'
p2833
asS'web1-eng-DF-233-195474-1207335_0006.3'
p2834
(lp2835
S'Fuck the Canadian government too.'
p2836
asS'web1-eng-DF-233-195474-1207335_0006.2'
p2837
(lp2838
S'No, America is alright, but fuck the American government.'
p2839
asS'web1-eng-DF-233-195474-1207335_0006.1'
p2840
(lp2841
S'Fuck america.'
p2842
asS'web1-eng-DF-233-195474-1207335_0006.6'
p2843
(lp2844
S'He should be praised, instead of martyred'
p2845
asS'web1-eng-DF-233-195474-1207335_0006.5'
p2846
(lp2847
S"It's fookin rediculous that he will be sentenced to a few years in jail just for selling seeds."
p2848
asS'web1-eng-DF-233-195474-1207335_0003.3'
p2849
(lp2850
S'was a stupid mistake though'
p2851
asS'web1-eng-DF-170-181103-5520823_0014.2'
p2852
(lp2853
S'The irony is delicious.'
p2854
asS'nyt_eng_20130822_0136.32'
p2855
(lp2856
S'The owners always argued that elimination of the reserve clause would ruin baseball, Miller said, and Flood\xe2\x80\x99s loss in the lawsuit emboldened them to maintain their position.'
p2857
asS'nyt_eng_20130712_0047.12'
p2858
(lp2859
S'Morsi has not been seen publicly since his ouster July 3.'
p2860
asS'nyt_eng_20130712_0047.13'
p2861
(lp2862
S'It is unclear where he is being held, or whether he and the others will face the charges in court.'
p2863
asS'bolt-eng-DF-200-192446-3811676_0095.8'
p2864
(lp2865
S"If Sarkozy isn't from Brittany, then his only job should be in ensuring that the split occurs legally."
p2866
asS'bolt-eng-DF-200-192446-3811676_0095.9'
p2867
(lp2868
S"The argument that the whole of the UK should vote on Scotland's independence is like saying the whole of the EU should get to vote if the UK ever holds an in/out Eu membership referendum."
p2869
asS'web1-eng-DF-183-195685-4204154_0001.7'
p2870
(lp2871
S'In a phone conversation with Nixon on April 28, 1971, Colson said, "This fellow Kerry that they had on last week...'
p2872
asS'web1-eng-DF-183-195685-4204154_0001.6'
p2873
(lp2874
S'Colson\'s orders were to "destroy the young demagogue before he becomes another Ralph Nader."'
p2875
asS'nyt_eng_20130712_0047.14'
p2876
(lp2877
S'The ouster of Morsi and the subsequent suppression of the Brotherhood has enraged the group\xe2\x80\x99s members and led to a spate of scapegoating attacks by Muslim extremists against Christians they accuse of supporting his fall, rights activists said.'
p2878
asS'nyt_eng_20130712_0047.15'
p2879
(lp2880
S'While tensions between the Christian minority and extremist elements in the Muslim majority are not new, attacks have been reported across the country - in the northern Sinai Peninsula, in a resort town on the Mediterranean Coast, in Port Said along the Suez Canal and in isolated villages in upper Egypt.'
p2881
asS'bolt-eng-DF-200-192446-3811676_0095.2'
p2882
(lp2883
S'That was my point.'
p2884
asS'bolt-eng-DF-200-192446-3811676_0095.3'
p2885
(lp2886
S'My grandfather settled in the Falkirk area of Scotland after the second world war (having served alongside British armed forces during the liberation of Europe).'
p2887
asS'web1-eng-DF-183-195685-4204154_0001.9'
p2888
(lp2889
S'Watergate and Ellsberg scandals'
p2890
asS'bolt-eng-DF-200-192446-3811676_0095.1'
p2891
(lp2892
S"I'm not Polish."
p2893
asS'bolt-eng-DF-200-192446-3811676_0095.6'
p2894
(lp2895
S'The argument that since Cameron is the prime minister of the UK, he should have a voice is more legitimate, but it is not an argument I agree with.'
p2896
asS'bolt-eng-DF-200-192446-3811676_0095.7'
p2897
(lp2898
S'And if Brittany wished to split, that is an issue for those living in Brittany.'
p2899
asS'bolt-eng-DF-200-192446-3811676_0095.4'
p2900
(lp2901
S'I have Polish ancestry, the same way Cameron has Scottish ancestry.'
p2902
asS'bolt-eng-DF-200-192446-3811676_0095.5'
p2903
(lp2904
S"The idea that Cameron's ancestry should entitle him to vote on matters concerning the Scottish parliament is as ludicrous as my ancestry entitling me to vote in the Polish Sejm."
p2905
asS'web1-eng-DF-233-195474-1207335_0002.5'
p2906
(lp2907
S'*spits*'
p2908
asS'web1-eng-DF-233-195474-1207335_0002.4'
p2909
(lp2910
S"It's disgusting that instead of dealing with Mr. Emery like a responsible government should - we pass him off like a hot potato to the USA for them to deal with, and to be prosecuted under their laws where he has no bargaining power and fewer rights."
p2911
asS'web1-eng-DF-233-195474-1207335_0002.3'
p2912
(lp2913
S'Stupid Conservative Government.'
p2914
asS'web1-eng-DF-233-195474-1207335_0002.2'
p2915
(lp2916
S"That's what happens when you have Stephen Harper in Parliament."
p2917
asS'web1-eng-DF-233-195474-1207335_0002.1'
p2918
(lp2919
S'*sigh*'
p2920
asS'web1-eng-DF-225-195996-5376307_0006.1'
p2921
(lp2922
S'No It will not.'
p2923
asS'nyt_eng_20131029_0228.7'
p2924
(lp2925
S'All 26 nominating commissions for the trial and appellate courts and the Supreme Court are composed of nine members.'
p2926
asS'web1-eng-DF-225-195996-5376307_0006.2'
p2927
(lp2928
S'LOCOG and the ODA used Disclosure Scotland for their checks'
p2929
asS'bolt-eng-DF-200-192446-3811676_0094.19'
p2930
(lp2931
S"I'm sure there wouldn't be as much appetite for independence north of the border if the Scots felt that they weren't subordinate to a parliament situated hundreds of miles away that doesn't really represent them (Holyrood is overwhelmingly full of centre-left MSPs, yet we effectively have a centre right majority government in Westminster)."
p2932
asS'nyt_eng_20130712_0047.1'
p2933
(lp2934
S'EGYPT CALLS FOR NEW LOOK AT MORSI PRISON ESCAPE'
p2935
asS'bolt-eng-DF-200-192446-3811676_0094.17'
p2936
(lp2937
S'(North/Midlands/London/South east/west?)'
p2938
asS'bolt-eng-DF-200-192446-3811676_0094.16'
p2939
(lp2940
S'Indeed, it would be far more pragmatic if we devolved the entire union -a parliament for every 5 or 10 million people in England perhaps?'
p2941
asS'bolt-eng-DF-200-192446-3811676_0094.15'
p2942
(lp2943
S"I don't agree that Scottish should have a voice in Westminster concerning England-only matters."
p2944
asS'bolt-eng-DF-200-192446-3811676_0094.14'
p2945
(lp2946
S'This is why there should be an appetite for reform within the Union - not a messy divorce that will leave us weakened, not strengthened.'
p2947
asS'bolt-eng-DF-200-192446-3811676_0094.13'
p2948
(lp2949
S"You argue that David Cameron should not be able to 'poke his big nose in' to the idea of Scottish independence - yet, Scottish MPs are able to do just that when certain English affairs are debated in Westminster (something English MPs are not able to do with Scottish affairs)."
p2950
asS'bolt-eng-DF-200-192446-3811676_0094.12'
p2951
(lp2952
S"Bit of an off point - but I'll just say the 'West Lothian' question and leave you with that."
p2953
asS'afp_eng_20100601_0724.12'
p2954
(lp2955
S'Two other school assailants have committed suicide.'
p2956
asS'bolt-eng-DF-200-192446-3811676_0094.10'
p2957
(lp2958
S'I agree, Scottish independence is a matter for the Scots, and should they vote for it, then that vote should be respected.'
p2959
asS'nyt_eng_20131003_0269.16'
p2960
(lp2961
S'Arriving at the capital\xe2\x80\x99s court complex, Pappas told reporters, \xe2\x80\x9cGolden Dawn will run in the next elections, whenever they may be.\xe2\x80\x9d'
p2962
asS'bolt-eng-DF-200-192446-3812122_0067.4'
p2963
(lp2964
S'Where else does the money the government spend come from?'
p2965
asS'nyt_eng_20131003_0269.14'
p2966
(lp2967
S'Later Thursday, a sixth lawmaker, Christos Pappas, the party\xe2\x80\x99s second in command, was also ordered returned to custody after testifying for at least six hours before a magistrate.'
p2968
asS'nyt_eng_20130709_0087.11'
p2969
(lp2970
S'He then forged paperwork, including consent forms and death certificates, to make the cause of death and age acceptable.'
p2971
asS'nyt_eng_20131003_0269.12'
p2972
(lp2973
S'According to the police, Lagos telephoned Michaloliakos half an hour after the killing of Fyssas on Sept. 18.'
p2974
asS'nyt_eng_20131003_0269.13'
p2975
(lp2976
S'The lawmaker has been tied to protection and prostitution rackets as well as blackmail and money laundering, according to secret service documents leaked to the Greek media this week.'
p2977
asS'nyt_eng_20131003_0269.10'
p2978
(lp2979
S'Michaloliakos was transferred to the capital\xe2\x80\x99s high-security Korydallos prison later in the day along with Yiannis Lagos, another Golden Dawn lawmaker.'
p2980
asS'nyt_eng_20131003_0269.11'
p2981
(lp2982
S'Giorgos Patelis, the head of the party\xe2\x80\x99s chapter in Nikaia, near the spot where Fyssas was fatally stabbed, and an officer from the regional police precinct accused of supplying Golden Dawn with information were taken to two other jails in central Greece, state television reported.'
p2983
asS'nyt_eng_20130712_0047.4'
p2984
(lp2985
S'No charges have been filed as yet.'
p2986
asS'nyt_eng_20130619_0092.21'
p2987
(lp2988
S'\xe2\x80\x9cWe\xe2\x80\x99re here to help and we\xe2\x80\x99re here to stay.\xe2\x80\x9d'
p2989
asS'nyt_eng_20130619_0092.20'
p2990
(lp2991
S'While the United Nations would review its security procedures, \xe2\x80\x9cthe U.N. is committed to its mission,\xe2\x80\x9d Kay said in a telephone interview.'
p2992
asS'web1-eng-DF-199-192802-997968_0001.5'
p2993
(lp2994
S'Rahman was charged with rejecting Islam.'
p2995
asS'nyt_eng_20130712_0047.5'
p2996
(lp2997
S'Its acceptance by powerful prosecutors follows the arrest of many Muslim Brotherhood members and is a new blow to the group by the military-backed government.'
p2998
asS'web1-eng-DF-233-195474-1207335_0003.1'
p2999
(lp3000
S'I hate seein the prince go to jail'
p3001
asS'nyt_eng_20130712_0047.6'
p3002
(lp3003
S'The detentions have been criticized by rights groups and the Obama administration, which spent Thursday walking back remarks made early in the day by a State Department spokeswoman, Jen Psaki, seeming to criticize Morsi as undemocratic and in so doing seeming to validate the military\xe2\x80\x99s move to oust him.'
p3004
asS'bolt-eng-DF-200-192446-3812122_0069.14'
p3005
(lp3006
S'You have it so bad.'
p3007
asS'bolt-eng-DF-200-192446-3812122_0069.15'
p3008
(lp3009
S'Idiot.'
p3010
asS'bolt-eng-DF-200-192446-3812122_0069.12'
p3011
(lp3012
S"And it's not like Blacks and Asians ever suffer discrimination at the hands of whites, is it?"
p3013
asS'bolt-eng-DF-200-192446-3812122_0069.13'
p3014
(lp3015
S'Poor whites.'
p3016
asS'bolt-eng-DF-200-192446-3812122_0069.10'
p3017
(lp3018
S'Who the hell are the Indians, who were enslaved and robbed blind by whites to complain?'
p3019
asS'bolt-eng-DF-200-192446-3812122_0069.11'
p3020
(lp3021
S"They've been sooo bad to the whites over the years, haven't they?"
p3022
asS'bolt-eng-DF-200-192446-3811676_0095.21'
p3023
(lp3024
S'Apologies for misunderstanding your nationality.'
p3025
asS'bolt-eng-DF-200-192446-3811676_0095.20'
p3026
(lp3027
S"Add to that revenue from hybrocarbon extractions in the north sea, fishing exports, and the ability to become reasonably self-sufficient in renewable energy (wind, tidal, hydroelectric -there's potential for it on Scotland's rugged landscape) and I see no reason why Scotland would be unable to function as an independent nation."
p3028
asS'bolt-eng-DF-200-192446-3810379_0021.2'
p3029
(lp3030
S'He thinks that European politicians are allowing the colonisation of Europe by Muslims and so are all legitimate targets.'
p3031
asS'bolt-eng-DF-200-192446-3811676_0095.22'
p3032
(lp3033
S"I think the difference with Scotland to those Nordic economies is that Scotland's current expenditure is higher than it would be ovule were to split."
p3034
asS'bolt-eng-DF-200-192446-3811676_0095.25'
p3035
(lp3036
S"If it wasn't to go bankrupt it would certainly struggle for decades."
p3037
asS'bolt-eng-DF-200-192446-3810379_0021.5'
p3038
(lp3039
S'So instead he decided to take out "the next generation of Left wing seeds".'
p3040
asS'bolt-eng-DF-200-192446-3811676_0095.27'
p3041
(lp3042
S"The EU is not a country that actively supports each other economically (other than bailouts) as much as a country does, it isn't as socially connected, it employs an extremely small percentage of people, they aren't politically connected and have no national identity."
p3043
asS'bolt-eng-DF-200-192446-3811676_0095.26'
p3044
(lp3045
S"The EU example just isn't the same at all."
p3046
asS'bolt-eng-DF-200-192446-3810379_0021.8'
p3047
(lp3048
S'This.'
p3049
asS'bolt-eng-DF-200-192446-3810379_0021.9'
p3050
(lp3051
S"He isn't a White Supremacist though."
p3052
asS'web1-eng-DF-199-192802-997968_0001.4'
p3053
(lp3054
S'The defendant, Abdul Rahman, 41, was arrested last month after his family accused him of becoming a Christian, according to Judge Ansarullah Mawlavezada.'
p3055
asS'nyt_eng_20130828_0147.11'
p3056
(lp3057
S'After announcing charges this month against Martin-Artajo and Grout, federal prosecutors and the FBI in Manhattan have encountered logistical hurdles.'
p3058
asS'nyt_eng_20130828_0147.10'
p3059
(lp3060
S'The arrest in Spain, the latest development in an episode that left a rare stain on JPMorgan\xe2\x80\x99s once-stellar reputation, underscores the challenge U.S. authorities face in their pursuit of the traders.'
p3061
asS'nyt_eng_20130828_0147.13'
p3062
(lp3063
S'According to his lawyers, Martin-Artajo left London \xe2\x80\x9con a long-planned vacation\xe2\x80\x9d to his native Spain without knowing of the pending charges.'
p3064
asS'nyt_eng_20130828_0147.12'
p3065
(lp3066
S'British police issued an arrest warrant for Martin-Artajo at the behest of authorities in New York, and then visited his house in London only to find that he was gone.'
p3067
asS'bolt-eng-DF-200-192451-5796135_0083.19'
p3068
(lp3069
S"(1) Yet for 30 years, they didn't do anything."
p3070
asS'bolt-eng-DF-200-192451-5796135_0083.18'
p3071
(lp3072
S'The mullahs themselves see the Arabs as more of an enemy than Israel so this comparison is idiotic as there will never, ever be unity in the Middle East amongst Muslims and I hope there never is either.'
p3073
asS'nyt_eng_20130828_0147.17'
p3074
(lp3075
S'Prosecutors have not charged a third trader, nicknamed \xe2\x80\x9cthe London Whale.\xe2\x80\x9d'
p3076
asS'nyt_eng_20130828_0147.16'
p3077
(lp3078
S'According to a person close to the case, both of the former traders have indicated through their lawyers that they are open to extradition but only if prosecutors recommend bail.'
p3079
asS'bolt-eng-DF-200-192451-5796135_0083.15'
p3080
(lp3081
S"It's been the warmongering on the mullahs' part after they decided they wanted Israel destroyed for some obscure reason because their ideology advocated it."
p3082
asS'bolt-eng-DF-200-192451-5796135_0083.14'
p3083
(lp3084
S"First of all to put it into context Israel didn't threaten Iran."
p3085
asS'bolt-eng-DF-200-192451-5796135_0083.17'
p3086
(lp3087
S'The mullahs have no right funding proxies there because they are getting involved in something that has nothing to do with them.'
p3088
asS'bolt-eng-DF-200-192451-5796135_0083.16'
p3089
(lp3090
S'Iran is not an Arab country, the Israel-Arab conflict has absolutely nothing to do with Iran.'
p3091
asS'bolt-eng-DF-200-192451-5796135_0083.11'
p3092
(lp3093
S'I Know America AND ISRAEL are being hypocritical.'
p3094
asS'bolt-eng-DF-200-192451-5796135_0083.10'
p3095
(lp3096
S"3) As I said before here you are, making a pipsqueak about it and you only have to have an open mind to know that America's being hypocritical."
p3097
asS'web1-eng-DF-183-195685-4204154_0001.2'
p3098
(lp3099
S'A quip that "Colson would walk over his own grandmother if necessary" mutated into claims in news stories that Colson had boasted that he would run over his own grandmother to re-elect Nixon.'
p3100
asS'bolt-eng-DF-200-192451-5796135_0083.12'
p3101
(lp3102
S'Yet no one is telling them that.'
p3103
asS'web1-eng-DF-183-195861-5359136_0004.2'
p3104
(lp3105
S'Attempted murder means that your intentions where to kill someone.'
p3106
asS'web1-eng-DF-183-195861-5359136_0004.3'
p3107
(lp3108
S'This doesnt sound like that'
p3109
asS'web1-eng-DF-225-195996-5376307_0004.1'
p3110
(lp3111
S"Long as you wasn't acquited due to a technicality and it's just you who's claiming to be mistaken for someone else, then it's all good."
p3112
asS'web1-eng-DF-183-195861-5359136_0004.1'
p3113
(lp3114
S'4. who did he attempt to kill?'
p3115
asS'web1-eng-DF-183-195861-5359136_0006.1'
p3116
(lp3117
S'5. miracle Its a real miracle'
p3118
asS'web1-eng-DF-183-195729-5441907_0001.34'
p3119
(lp3120
S'Additional information is available at FairnessAtPatriot.org.'
p3121
asS'apw_eng_20101231_0037.8'
p3122
(lp3123
S'Taxi drivers held a strike that largely paralyzed La Paz on Thursday, and protests were also held in the cities of Cochabamba, Santa Cruz, Potosi and Oruro.'
p3124
asS'apw_eng_20101231_0037.9'
p3125
(lp3126
S'The march in the capital began peacefully but clashes with police erupted when demonstrators tried to enter the main plaza where the government palace is located.'
p3127
asS'apw_eng_20101231_0037.6'
p3128
(lp3129
S'Some demanded the resignation of Morales, a close ally of Venezuelan President Hugo Chavez.'
p3130
asS'apw_eng_20101231_0037.7'
p3131
(lp3132
S"It has been the most unpopular measure of Morales' five-year presidency."
p3133
asS'apw_eng_20101231_0037.4'
p3134
(lp3135
S'Demonstrators filled the streets in La Paz and other cities to protest the higher prices, which were announced suddenly on Sunday, prompting an immediate 73 percent jump in gasoline prices and an 83 percent rise in prices for diesel.'
p3136
asS'apw_eng_20101231_0037.5'
p3137
(lp3138
S'It also led to rapid increases in transport and food prices in the Andean country.'
p3139
asS'apw_eng_20101231_0037.2'
p3140
(lp3141
S'LA PAZ, Bolivia 2010-12-31 01:59:04 UTC'
p3142
asS'apw_eng_20101231_0037.3'
p3143
(lp3144
S"Protests against a sharp increase in fuel prices intensified and turned violent in Bolivia on Thursday, as thousands of demonstrators demanded President Evo Morales' government repeal the hike."
p3145
asS'apw_eng_20101231_0037.1'
p3146
(lp3147
S'Protests intensify in Bolivia over gasoline prices'
p3148
asS'nyt_eng_20131029_0228.27'
p3149
(lp3150
S'Macnab serves on a statewide judicial nominating panel for federal judges and was appointed by U.S. Sens. Bill Nelson, a Democrat, and Marco Rubio, a Republican.'
p3151
asS'nyt_eng_20130816_0151.14'
p3152
(lp3153
S'This week, House Speaker Will Weatherford called for the group\xe2\x80\x99s departure.'
p3154
asS'web1-eng-DF-225-195996-5376307_0002.1'
p3155
(lp3156
S'Im bumping'
p3157
asS'web1-eng-DF-225-195996-5376307_0002.3'
p3158
(lp3159
S'x'
as.