(dp1
Vfawn
p2
(lp3
S'fawn-01'
p4
asVpardon
p5
(lp6
S'pardon-01'
p7
asVretch
p8
(lp9
S'retch-01'
p10
asVjollify
p11
(lp12
S'jollify-01'
p13
asVunfurl
p14
(lp15
S'unfurl-01'
p16
asVhitch
p17
(lp18
S'hitch-01'
p19
asVsleet
p20
(lp21
S'sleet-01'
p22
asVprotest
p23
(lp24
S'protest-01'
p25
asVscutter
p26
(lp27
S'scutter-01'
p28
asVsleep
p29
(lp30
S'sleep-01'
p31
aS'sleep-05'
p32
asVknell
p33
(lp34
S'knell-01'
p35
asVcaptain
p36
(lp37
S'captain-01'
p38
asVhate
p39
(lp40
S'hate-01'
p41
asVshamble
p42
(lp43
S'shamble-01'
p44
asVdefraud
p45
(lp46
S'defraud-01'
p47
asVlace
p48
(lp49
S'lace-01'
p50
asVregularize
p51
(lp52
S'regularize-01'
p53
asVmuzzle
p54
(lp55
S'muzzle-01'
p56
asVswag
p57
(lp58
S'swag-01'
p59
aS'swag-02'
p60
asVventilate
p61
(lp62
S'ventilate-01'
p63
asVswab
p64
(lp65
S'swab-01'
p66
asVheighten
p67
(lp68
S'heighten-01'
p69
asVrouse
p70
(lp71
S'rouse-01'
p72
asVexcoriate
p73
(lp74
S'excoriate-01'
p75
asVscold
p76
(lp77
S'scold-01'
p78
asVwhack
p79
(lp80
S'whack-01'
p81
asVbludgeon
p82
(lp83
S'bludgeon-01'
p84
asVtickle
p85
(lp86
S'tickle-01'
p87
asVswat
p88
(lp89
S'swat-01'
p90
asVoutwit
p91
(lp92
S'outwit-01'
p93
asVbike
p94
(lp95
S'bike-01'
p96
asVrankle
p97
(lp98
S'rankle-01'
p99
asVdaze
p100
(lp101
S'daze-01'
p102
asVsputter
p103
(lp104
S'sputter-01'
p105
asVdapple
p106
(lp107
S'dapple-01'
p108
asVsway
p109
(lp110
S'sway-01'
p111
asVshellac
p112
(lp113
S'shellac-01'
p114
asVconjecture
p115
(lp116
S'conjecture-01'
p117
asVcollaborate
p118
(lp119
S'collaborate-01'
p120
asVrescue
p121
(lp122
S'rescue-01'
p123
asVtame
p124
(lp125
S'tame-01'
p126
asVdefuzz
p127
(lp128
S'defuzz-01'
p129
asVblanket
p130
(lp131
S'blanket-01'
p132
asVrise
p133
(lp134
S'rise-01'
p135
asVlurk
p136
(lp137
S'lurk-01'
p138
asVdistort
p139
(lp140
S'distort-01'
p141
asVwarble
p142
(lp143
S'warble-01'
p144
asVsmack
p145
(lp146
S'smack-02'
p147
asVyellow
p148
(lp149
S'yellow-01'
p150
asVconfederate
p151
(lp152
S'confederate-01'
p153
asVaffect
p154
(lp155
S'affect-01'
p156
asVdemast
p157
(lp158
S'demast-01'
p159
asVembroider
p160
(lp161
S'embroider-01'
p162
asVlook
p163
(lp164
S'look-01'
p165
aS'look-02'
p166
asVsemaphore
p167
(lp168
S'semaphore-01'
p169
asVdisturb
p170
(lp171
S'disturb-01'
p172
asVprize
p173
(lp174
S'prize-01'
p175
asVunstitch
p176
(lp177
S'unstitch-01'
p178
asVbuttonhole
p179
(lp180
S'buttonhole-01'
p181
asVpinch
p182
(lp183
S'pinch-01'
p184
aS'pinch-02'
p185
asVaffirm
p186
(lp187
S'affirm-01'
p188
asVenhance
p189
(lp190
S'enhance-01'
p191
asVobsess
p192
(lp193
S'obsess-01'
p194
asVenjoy
p195
(lp196
S'enjoy-01'
p197
asVchew
p198
(lp199
S'chew-01'
p200
asVcharter
p201
(lp202
S'charter-01'
p203
asVbicycle
p204
(lp205
S'bicycle-01'
p206
asVwidow
p207
(lp208
S'widow-01'
p209
asVtolerate
p210
(lp211
S'tolerate-01'
p212
asVdirect
p213
(lp214
S'direct-01'
p215
asVpulse
p216
(lp217
S'pulse-01'
p218
asVnail
p219
(lp220
S'nail-01'
p221
aS'nail-02'
p222
asVcrave
p223
(lp224
S'crave-01'
p225
asVpersuade
p226
(lp227
S'persuade-01'
p228
asVblaspheme
p229
(lp230
S'blaspheme-01'
p231
asVlevitate
p232
(lp233
S'levitate-01'
p234
asVkidnap
p235
(lp236
S'kidnap-01'
p237
asVransack
p238
(lp239
S'ransack-01'
p240
asVeven
p241
(lp242
S'even-01'
p243
asVaim
p244
(lp245
S'aim-01'
p246
asVintermingle
p247
(lp248
S'intermingle-02'
p249
asVhide
p250
(lp251
S'hide-01'
p252
asVdeliberate
p253
(lp254
S'deliberate-01'
p255
asVworsen
p256
(lp257
S'worsen-01'
p258
asVrekindle
p259
(lp260
S'rekindle-01'
p261
asVboogie
p262
(lp263
S'boogie-01'
p264
asVpoison
p265
(lp266
S'poison-01'
p267
aS'poison-02'
p268
asVchitchat
p269
(lp270
S'chitchat-01'
p271
asVdecry
p272
(lp273
S'decry-01'
p274
asVinsinuate
p275
(lp276
S'insinuate-01'
p277
asVsunder
p278
(lp279
S'sunder-01'
p280
asVendorse
p281
(lp282
S'endorse-02'
p283
asVupset
p284
(lp285
S'upset-01'
p286
asVslumber
p287
(lp288
S'slumber-01'
p289
asVcull
p290
(lp291
S'cull-01'
p292
asVcrunch
p293
(lp294
S'crunch-01'
p295
asVjilt
p296
(lp297
S'jilt-01'
p298
asVcrouch
p299
(lp300
S'crouch-01'
p301
asVdevein
p302
(lp303
S'devein-01'
p304
asVsplinter
p305
(lp306
S'splinter-01'
p307
asVmetamorphose
p308
(lp309
S'metamorphose-01'
p310
asVherd
p311
(lp312
S'herd-01'
p313
asVacidify
p314
(lp315
S'acidify-01'
p316
asVmew
p317
(lp318
S'mew-01'
p319
asVundo
p320
(lp321
S'undo-01'
p322
asVsubjugate
p323
(lp324
S'subjugate-01'
p325
asVburgle
p326
(lp327
S'burgle-01'
p328
asVshriek
p329
(lp330
S'shriek-01'
p331
asVinterpret
p332
(lp333
S'interpret-01'
p334
asVtinsel
p335
(lp336
S'tinsel-01'
p337
asVdry
p338
(lp339
S'dry-02'
p340
aS'dry-01'
p341
aS'dry-03'
p342
asVvoice
p343
(lp344
S'voice-01'
p345
asVrumba
p346
(lp347
S'rumba-01'
p348
asVravish
p349
(lp350
S'ravish-01'
p351
asVauction
p352
(lp353
S'auction-02'
p354
asVslow
p355
(lp356
S'slow-01'
p357
asVderind
p358
(lp359
S'derind-01'
p360
asVridicule
p361
(lp362
S'ridicule-01'
p363
asVprecede
p364
(lp365
S'precede-01'
p366
asVcredit
p367
(lp368
S'credit-01'
p369
asVharass
p370
(lp371
S'harass-01'
p372
aS'harass-02'
p373
asVlignify
p374
(lp375
S'lignify-01'
p376
asVvroom
p377
(lp378
S'vroom-01'
p379
asVleaven
p380
(lp381
S'leaven-01'
p382
asVintrigue
p383
(lp384
S'intrigue-01'
p385
asVfix
p386
(lp387
S'fix-01'
p388
aS'fix-03'
p389
asVdivide
p390
(lp391
S'divide-01'
p392
aS'divide-02'
p393
asVstray
p394
(lp395
S'stray-01'
p396
asVbayonet
p397
(lp398
S'bayonet-01'
p399
asVlengthen
p400
(lp401
S'lengthen-01'
p402
asVreplace
p403
(lp404
S'replace-01'
p405
asVelude
p406
(lp407
S'elude-01'
p408
asVsneer
p409
(lp410
S'sneer-01'
p411
asVquadruple
p412
(lp413
S'quadruple-01'
p414
asVdescale
p415
(lp416
S'descale-01'
p417
asVglance
p418
(lp419
S'glance-01'
p420
asVtotal
p421
(lp422
S'total-01'
p423
aS'total-03'
p424
asVcircumvent
p425
(lp426
S'circumvent-01'
p427
asVplot
p428
(lp429
S'plot-01'
p430
asVplow
p431
(lp432
S'plow-01'
p433
asVtranquilize
p434
(lp435
S'tranquilize-01'
p436
asVoverheat
p437
(lp438
S'overheat-01'
p439
asVplop
p440
(lp441
S'plop-01'
p442
asVpulp
p443
(lp444
S'pulp-01'
p445
asVmotivate
p446
(lp447
S'motivate-01'
p448
asVunroll
p449
(lp450
S'unroll-01'
p451
asVpigeonhole
p452
(lp453
S'pigeonhole-01'
p454
asVinsult
p455
(lp456
S'insult-01'
p457
asVinterlace
p458
(lp459
S'interlace-01'
p460
asVcalk
p461
(lp462
S'calk-01'
p463
aS'calk-02'
p464
asVcall
p465
(lp466
S'call-01'
p467
aS'call-02'
p468
aS'call-03'
p469
aS'call-07'
p470
asVcalm
p471
(lp472
S'calm-01'
p473
aS'calm-02'
p474
asVrecommend
p475
(lp476
S'recommend-01'
p477
asVstrike
p478
(lp479
S'strike-01'
p480
aS'strike-04'
p481
aS'strike-09'
p482
asVsurvive
p483
(lp484
S'survive-01'
p485
asVcare
p486
(lp487
S'care-01'
p488
asVtype
p489
(lp490
S'type-01'
p491
aS'type-02'
p492
asVtell
p493
(lp494
S'tell-01'
p495
asVswap
p496
(lp497
S'swap-01'
p498
asVbreathe
p499
(lp500
S'breathe-01'
p501
asVrelay
p502
(lp503
S'relay-01'
p504
asVdesalt
p505
(lp506
S'desalt-01'
p507
asVremark
p508
(lp509
S'remark-01'
p510
asVexpose
p511
(lp512
S'expose-01'
p513
asVaward
p514
(lp515
S'award-01'
p516
asVhurt
p517
(lp518
S'hurt-01'
p519
aS'hurt-02'
p520
asVwarn
p521
(lp522
S'warn-01'
p523
asVglass
p524
(lp525
S'glass-01'
p526
asVtelecast
p527
(lp528
S'telecast-01'
p529
asVmasticate
p530
(lp531
S'masticate-01'
p532
asVhurl
p533
(lp534
S'hurl-01'
p535
asVhold
p536
(lp537
S'hold-01'
p538
aS'hold-02'
p539
aS'hold-13'
p540
aS'hold-06'
p541
asVdestarch
p542
(lp543
S'destarch-01'
p544
asVblindfold
p545
(lp546
S'blindfold-01'
p547
asVshoot
p548
(lp549
S'shoot-01'
p550
aS'shoot-02'
p551
asVjoin
p552
(lp553
S'join-01'
p554
aS'join-05'
p555
aS'join-02'
p556
asVunstaple
p557
(lp558
S'unstaple-01'
p559
asVtinkle
p560
(lp561
S'tinkle-01'
p562
asVshame
p563
(lp564
S'shame-01'
p565
aS'shame-02'
p566
asVpant
p567
(lp568
S'pant-01'
p569
aS'pant-02'
p570
asVdebark
p571
(lp572
S'debark-01'
p573
asVsweeten
p574
(lp575
S'sweeten-01'
p576
asVwork
p577
(lp578
S'work-01'
p579
aS'work-07'
p580
asVworm
p581
(lp582
S'worm-01'
p583
asVroof
p584
(lp585
S'roof-01'
p586
asVstraddle
p587
(lp588
S'straddle-01'
p589
asVcuddle
p590
(lp591
S'cuddle-01'
p592
asVinstall
p593
(lp594
S'install-01'
p595
asVflare
p596
(lp597
S'flare-02'
p598
asVelbow
p599
(lp600
S'elbow-01'
p601
asVexhale
p602
(lp603
S'exhale-01'
p604
asVendow
p605
(lp606
S'endow-01'
p607
asVdither
p608
(lp609
S'dither-01'
p610
asVquarrel
p611
(lp612
S'quarrel-01'
p613
asVdefer
p614
(lp615
S'defer-02'
p616
asVloosen
p617
(lp618
S'loosen-01'
p619
aS'loosen-02'
p620
asVdebone
p621
(lp622
S'debone-01'
p623
asVpollute
p624
(lp625
S'pollute-01'
p626
asVgive
p627
(lp628
S'give-01'
p629
aS'give-02'
p630
aS'give-03'
p631
aS'give-06'
p632
aS'give-08'
p633
aS'give-09'
p634
asVfederate
p635
(lp636
S'federate-01'
p637
asVskateboard
p638
(lp639
S'skateboard-01'
p640
asVlure
p641
(lp642
S'lure-01'
p643
asVfrown
p644
(lp645
S'frown-01'
p646
aS'frown-02'
p647
asVimpair
p648
(lp649
S'impair-01'
p650
asVmalign
p651
(lp652
S'malign-01'
p653
asVcaution
p654
(lp655
S'caution-01'
p656
asVdegenerate
p657
(lp658
S'degenerate-01'
p659
asVjumble
p660
(lp661
S'jumble-01'
p662
asVfreshen
p663
(lp664
S'freshen-01'
p665
asVreprove
p666
(lp667
S'reprove-01'
p668
asVrid
p669
(lp670
S'rid-01'
p671
asVcalve
p672
(lp673
S'calve-01'
p674
asVguarantee
p675
(lp676
S'guarantee-01'
p677
asVcollude
p678
(lp679
S'collude-01'
p680
asVhoe
p681
(lp682
S'hoe-01'
p683
asVend
p684
(lp685
S'end-01'
p686
asVtrill
p687
(lp688
S'trill-01'
p689
asVturn
p690
(lp691
S'turn-01'
p692
aS'turn-02'
p693
asVprovide
p694
(lp695
S'provide-01'
p696
asVverify
p697
(lp698
S'verify-01'
p699
asVbunk
p700
(lp701
S'bunk-02'
p702
asVdamage
p703
(lp704
S'damage-01'
p705
asVpunt
p706
(lp707
S'punt-01'
p708
aS'punt-02'
p709
aS'punt-03'
p710
asVenquire
p711
(lp712
S'enquire-01'
p713
asVbunt
p714
(lp715
S'bunt-01'
p716
asVhop
p717
(lp718
S'hop-01'
p719
asVinterview
p720
(lp721
S'interview-01'
p722
asVdisappoint
p723
(lp724
S'disappoint-01'
p725
asVbeach
p726
(lp727
S'beach-01'
p728
asVvoid
p729
(lp730
S'void-01'
p731
asVclassify
p732
(lp733
S'classify-01'
p734
aS'classify-02'
p735
asVrecompense
p736
(lp737
S'recompense-01'
p738
asVcredential
p739
(lp740
S'credential-01'
p741
asVmoisten
p742
(lp743
S'moisten-01'
p744
asVdegrit
p745
(lp746
S'degrit-01'
p747
asVdisassemble
p748
(lp749
S'disassemble-01'
p750
asVfamish
p751
(lp752
S'famish-01'
p753
asVswing
p754
(lp755
S'swing-02'
p756
asVlump
p757
(lp758
S'lump-01'
p759
asVwhittle
p760
(lp761
S'whittle-01'
p762
asVlay
p763
(lp764
S'lay-01'
p765
asVarch
p766
(lp767
S'arch-01'
p768
asVpurchase
p769
(lp770
S'purchase-01'
p771
asVdeflesh
p772
(lp773
S'deflesh-01'
p774
asVattempt
p775
(lp776
S'attempt-01'
p777
asValienate
p778
(lp779
S'alienate-01'
p780
asVpulsate
p781
(lp782
S'pulsate-01'
p783
asVspout
p784
(lp785
S'spout-01'
p786
asVseduce
p787
(lp788
S'seduce-01'
p789
asVappreciate
p790
(lp791
S'appreciate-01'
p792
aS'appreciate-02'
p793
asVgreet
p794
(lp795
S'greet-01'
p796
asVstimulate
p797
(lp798
S'stimulate-01'
p799
asVperform
p800
(lp801
S'perform-01'
p802
asVmaintain
p803
(lp804
S'maintain-01'
p805
asVenter
p806
(lp807
S'enter-01'
p808
asVoperate
p809
(lp810
S'operate-01'
p811
asVheft
p812
(lp813
S'heft-01'
p814
asVsquint
p815
(lp816
S'squint-01'
p817
asVfetter
p818
(lp819
S'fetter-01'
p820
asVdeform
p821
(lp822
S'deform-01'
p823
asVdeck
p824
(lp825
S'deck-01'
p826
aS'deck-02'
p827
asVconsent
p828
(lp829
S'consent-01'
p830
asVfall
p831
(lp832
S'fall-01'
p833
asVtapdance
p834
(lp835
S'tapdance-01'
p836
asVbefall
p837
(lp838
S'befall-01'
p839
asVhandcuff
p840
(lp841
S'handcuff-01'
p842
asVfortify
p843
(lp844
S'fortify-01'
p845
aS'fortify-02'
p846
asVjapan
p847
(lp848
S'japan-01'
p849
asVstrangle
p850
(lp851
S'strangle-01'
p852
asVfit
p853
(lp854
S'fit-01'
p855
asVslather
p856
(lp857
S'slather-01'
p858
asVbackpack
p859
(lp860
S'backpack-01'
p861
asVthrust
p862
(lp863
S'thrust-01'
p864
asVshackle
p865
(lp866
S'shackle-01'
p867
asVcomprehend
p868
(lp869
S'comprehend-01'
p870
asVtramp
p871
(lp872
S'tramp-01'
p873
asVsip
p874
(lp875
S'sip-01'
p876
asVfade
p877
(lp878
S'fade-01'
p879
asVpersist
p880
(lp881
S'persist-01'
p882
asVcarve
p883
(lp884
S'carve-01'
p885
aS'carve-02'
p886
asVovercome
p887
(lp888
S'overcome-01'
p889
asVsplit
p890
(lp891
S'split-01'
p892
aS'split-02'
p893
asVglorify
p894
(lp895
S'glorify-01'
p896
asVanimate
p897
(lp898
S'animate-01'
p899
asVenrich
p900
(lp901
S'enrich-01'
p902
asVplaster
p903
(lp904
S'plaster-01'
p905
asVroost
p906
(lp907
S'roost-01'
p908
asVdepopulate
p909
(lp910
S'depopulate-01'
p911
asVmicrofilm
p912
(lp913
S'microfilm-01'
p914
asVbreak
p915
(lp916
S'break-01'
p917
aS'break-13'
p918
aS'break-16'
p919
aS'break-12'
p920
aS'break-04'
p921
aS'break-06'
p922
aS'break-07'
p923
aS'break-08'
p924
asVband
p925
(lp926
S'band-01'
p927
asVbang
p928
(lp929
S'bang-01'
p930
aS'bang-02'
p931
asVsack
p932
(lp933
S'sack-01'
p934
asVmanicure
p935
(lp936
S'manicure-01'
p937
asVblink
p938
(lp939
S'blink-01'
p940
asVsilver
p941
(lp942
S'silver-01'
p943
asVbank
p944
(lp945
S'bank-01'
p946
aS'bank-04'
p947
asVbread
p948
(lp949
S'bread-01'
p950
asVwhoop
p951
(lp952
S'whoop-01'
p953
asVrepaint
p954
(lp955
S'repaint-01'
p956
asVgallop
p957
(lp958
S'gallop-01'
p959
asVwhish
p960
(lp961
S'whish-01'
p962
asVdefecate
p963
(lp964
S'defecate-01'
p965
asVabsolve
p966
(lp967
S'absolve-01'
p968
asVexplode
p969
(lp970
S'explode-01'
p971
aS'explode-02'
p972
asVrecommit
p973
(lp974
S'recommit-01'
p975
asVaffiliate
p976
(lp977
S'affiliate-01'
p978
asVwhiff
p979
(lp980
S'whiff-01'
p981
aS'whiff-05'
p982
asVdebug
p983
(lp984
S'debug-01'
p985
asVside
p986
(lp987
S'side-02'
p988
asVbone
p989
(lp990
S'bone-01'
p991
asVbond
p992
(lp993
S'bond-01'
p994
aS'bond-02'
p995
asVconsolidate
p996
(lp997
S'consolidate-01'
p998
asVimprovise
p999
(lp1000
S'improvise-01'
p1001
asVprefill
p1002
(lp1003
S'prefill-01'
p1004
asVswathe
p1005
(lp1006
S'swathe-01'
p1007
asVtaiwanize
p1008
(lp1009
S'taiwanize-01'
p1010
asVunscrew
p1011
(lp1012
S'unscrew-01'
p1013
asVprawn
p1014
(lp1015
S'prawn-01'
p1016
asVsled
p1017
(lp1018
S'sled-01'
p1019
asVtip
p1020
(lp1021
S'tip-01'
p1022
aS'tip-02'
p1023
asVcombust
p1024
(lp1025
S'combust-01'
p1026
asVwhiz
p1027
(lp1028
S'whiz-01'
p1029
asVameliorate
p1030
(lp1031
S'ameliorate-01'
p1032
asVdawn
p1033
(lp1034
S'dawn-01'
p1035
aS'dawn-02'
p1036
asVextract
p1037
(lp1038
S'extract-01'
p1039
asVwhip
p1040
(lp1041
S'whip-01'
p1042
asVclothe
p1043
(lp1044
S'clothe-01'
p1045
asVcontend
p1046
(lp1047
S'contend-01'
p1048
aS'contend-02'
p1049
asVaccurse
p1050
(lp1051
S'accurse-01'
p1052
asVdecree
p1053
(lp1054
S'decree-01'
p1055
asVnetwork
p1056
(lp1057
S'network-01'
p1058
asVvideotape
p1059
(lp1060
S'videotape-01'
p1061
asVsmirk
p1062
(lp1063
S'smirk-01'
p1064
asVwhoosh
p1065
(lp1066
S'whoosh-01'
p1067
asVpauper
p1068
(lp1069
S'pauper-01'
p1070
asVcontent
p1071
(lp1072
S'content-01'
p1073
asVsparkle
p1074
(lp1075
S'sparkle-01'
p1076
asVencourage
p1077
(lp1078
S'encourage-01'
p1079
aS'encourage-02'
p1080
asVadapt
p1081
(lp1082
S'adapt-01'
p1083
asVengrave
p1084
(lp1085
S'engrave-01'
p1086
asVsurprise
p1087
(lp1088
S'surprise-01'
p1089
asVpalaver
p1090
(lp1091
S'palaver-01'
p1092
asVgrease
p1093
(lp1094
S'grease-01'
p1095
asVassociate
p1096
(lp1097
S'associate-01'
p1098
asVutilize
p1099
(lp1100
S'utilize-01'
p1101
asVwaddle
p1102
(lp1103
S'waddle-01'
p1104
asVfree
p1105
(lp1106
S'free-01'
p1107
asVinscribe
p1108
(lp1109
S'inscribe-01'
p1110
asVdodder
p1111
(lp1112
S'dodder-01'
p1113
asVpolarize
p1114
(lp1115
S'polarize-01'
p1116
asVputty
p1117
(lp1118
S'putty-01'
p1119
asVcement
p1120
(lp1121
S'cement-01'
p1122
asVabate
p1123
(lp1124
S'abate-01'
p1125
asVenrapture
p1126
(lp1127
S'enrapture-01'
p1128
asVestimate
p1129
(lp1130
S'estimate-01'
p1131
asVmutilate
p1132
(lp1133
S'mutilate-01'
p1134
asVknit
p1135
(lp1136
S'knit-01'
p1137
aS'knit-02'
p1138
aS'knit-03'
p1139
asVquickstep
p1140
(lp1141
S'quickstep-01'
p1142
asVfret
p1143
(lp1144
S'fret-01'
p1145
asVdrench
p1146
(lp1147
S'drench-01'
p1148
asVnitrify
p1149
(lp1150
S'nitrify-01'
p1151
asVchortle
p1152
(lp1153
S'chortle-01'
p1154
asVlour
p1155
(lp1156
S'lour-01'
p1157
asVrumple
p1158
(lp1159
S'rumple-01'
p1160
asVlouse
p1161
(lp1162
S'louse-01'
p1163
aS'louse-02'
p1164
asVscrounge
p1165
(lp1166
S'scrounge-01'
p1167
asVfilter
p1168
(lp1169
S'filter-02'
p1170
asVspindle
p1171
(lp1172
S'spindle-01'
p1173
asVfuse
p1174
(lp1175
S'fuse-01'
p1176
asVfleck
p1177
(lp1178
S'fleck-01'
p1179
asVdomesticate
p1180
(lp1181
S'domesticate-01'
p1182
asVexplicate
p1183
(lp1184
S'explicate-01'
p1185
asVhire
p1186
(lp1187
S'hire-01'
p1188
asVthumbtack
p1189
(lp1190
S'thumbtack-01'
p1191
asVrecite
p1192
(lp1193
S'recite-01'
p1194
asVorganize
p1195
(lp1196
S'organize-01'
p1197
asVrender
p1198
(lp1199
S'render-02'
p1200
asVyank
p1201
(lp1202
S'yank-01'
p1203
asVgrade
p1204
(lp1205
S'grade-01'
p1206
aS'grade-02'
p1207
asVgoggle
p1208
(lp1209
S'goggle-01'
p1210
asVreassure
p1211
(lp1212
S'reassure-01'
p1213
asVhoot
p1214
(lp1215
S'hoot-01'
p1216
asVbushwhack
p1217
(lp1218
S'bushwhack-01'
p1219
asVbombard
p1220
(lp1221
S'bombard-01'
p1222
asVhook
p1223
(lp1224
S'hook-01'
p1225
aS'hook-03'
p1226
asVinstruct
p1227
(lp1228
S'instruct-01'
p1229
asVguzzle
p1230
(lp1231
S'guzzle-01'
p1232
asVdeplete
p1233
(lp1234
S'deplete-01'
p1235
asVulcerate
p1236
(lp1237
S'ulcerate-01'
p1238
asVsober
p1239
(lp1240
S'sober-01'
p1241
aS'sober-02'
p1242
asVcategorize
p1243
(lp1244
S'categorize-01'
p1245
asVillustrate
p1246
(lp1247
S'illustrate-01'
p1248
aS'illustrate-02'
p1249
asVdiscompose
p1250
(lp1251
S'discompose-01'
p1252
asVundercharge
p1253
(lp1254
S'undercharge-01'
p1255
asVacquaint
p1256
(lp1257
S'acquaint-01'
p1258
asVtop
p1259
(lp1260
S'top-01'
p1261
aS'top-02'
p1262
asVdegum
p1263
(lp1264
S'degum-01'
p1265
asVoutrace
p1266
(lp1267
S'outrace-01'
p1268
asVtow
p1269
(lp1270
S'tow-01'
p1271
asVtango
p1272
(lp1273
S'tango-01'
p1274
asVstack
p1275
(lp1276
S'stack-01'
p1277
asVsidle
p1278
(lp1279
S'sidle-01'
p1280
asVdegut
p1281
(lp1282
S'degut-01'
p1283
asVshiver
p1284
(lp1285
S'shiver-01'
p1286
asVcompromise
p1287
(lp1288
S'compromise-01'
p1289
aS'compromise-02'
p1290
asVfumble
p1291
(lp1292
S'fumble-01'
p1293
asVunderlie
p1294
(lp1295
S'underlie-01'
p1296
asVdwell
p1297
(lp1298
S'dwell-01'
p1299
asVinflate
p1300
(lp1301
S'inflate-01'
p1302
asVtog
p1303
(lp1304
S'tog-01'
p1305
asVlambaste
p1306
(lp1307
S'lambaste-01'
p1308
asVmutate
p1309
(lp1310
S'mutate-01'
p1311
asVdecentralize
p1312
(lp1313
S'decentralize-01'
p1314
asVmurder
p1315
(lp1316
S'murder-01'
p1317
asVoverdraw
p1318
(lp1319
S'overdraw-01'
p1320
asVcollapse
p1321
(lp1322
S'collapse-01'
p1323
asVenthrall
p1324
(lp1325
S'enthrall-01'
p1326
asVsire
p1327
(lp1328
S'sire-01'
p1329
asVluncheon
p1330
(lp1331
S'luncheon-01'
p1332
asVswoosh
p1333
(lp1334
S'swoosh-01'
p1335
asVserve
p1336
(lp1337
S'serve-01'
p1338
aS'serve-02'
p1339
aS'serve-03'
p1340
asVtassel
p1341
(lp1342
S'tassel-01'
p1343
asVembellish
p1344
(lp1345
S'embellish-01'
p1346
asVemaciate
p1347
(lp1348
S'emaciate-01'
p1349
asVtoot
p1350
(lp1351
S'toot-01'
p1352
asVjingle
p1353
(lp1354
S'jingle-01'
p1355
asVsulphur
p1356
(lp1357
S'sulphur-01'
p1358
asVcrawl
p1359
(lp1360
S'crawl-01'
p1361
asVsubselect
p1362
(lp1363
S'subselect-01'
p1364
asVgelatinize
p1365
(lp1366
S'gelatinize-01'
p1367
asVsnuffle
p1368
(lp1369
S'snuffle-01'
p1370
aS'snuffle-03'
p1371
asVtrek
p1372
(lp1373
S'trek-01'
p1374
asVaffront
p1375
(lp1376
S'affront-01'
p1377
asVululate
p1378
(lp1379
S'ululate-01'
p1380
asVdredge
p1381
(lp1382
S'dredge-01'
p1383
asVhike
p1384
(lp1385
S'hike-01'
p1386
aS'hike-02'
p1387
asVoutlaw
p1388
(lp1389
S'outlaw-01'
p1390
asVtree
p1391
(lp1392
S'tree-01'
p1393
asVscrutinize
p1394
(lp1395
S'scrutinize-01'
p1396
asVproject
p1397
(lp1398
S'project-01'
p1399
asVmatter
p1400
(lp1401
S'matter-01'
p1402
asVflame
p1403
(lp1404
S'flame-01'
p1405
asVendure
p1406
(lp1407
S'endure-01'
p1408
asViron
p1409
(lp1410
S'iron-01'
p1411
asVloiter
p1412
(lp1413
S'loiter-01'
p1414
asVexorcise
p1415
(lp1416
S'exorcise-01'
p1417
asVbridge
p1418
(lp1419
S'bridge-01'
p1420
asVacclaim
p1421
(lp1422
S'acclaim-01'
p1423
asVrecommence
p1424
(lp1425
S'recommence-01'
p1426
asVseep
p1427
(lp1428
S'seep-01'
p1429
asVquench
p1430
(lp1431
S'quench-01'
p1432
asVnavigate
p1433
(lp1434
S'navigate-01'
p1435
asVpass
p1436
(lp1437
S'pass-03'
p1438
aS'pass-04'
p1439
aS'pass-05'
p1440
aS'pass-09'
p1441
aS'pass-19'
p1442
aS'pass-14'
p1443
aS'pass-10'
p1444
asVmind
p1445
(lp1446
S'mind-01'
p1447
asVmine
p1448
(lp1449
S'mine-01'
p1450
asVtaint
p1451
(lp1452
S'taint-01'
p1453
asVseed
p1454
(lp1455
S'seed-02'
p1456
aS'seed-03'
p1457
aS'seed-04'
p1458
asVlull
p1459
(lp1460
S'lull-01'
p1461
asVrap
p1462
(lp1463
S'rap-02'
p1464
asVyaw
p1465
(lp1466
S'yaw-01'
p1467
aS'yaw-02'
p1468
asVcadge
p1469
(lp1470
S'cadge-01'
p1471
asVseem
p1472
(lp1473
S'seem-01'
p1474
asVchurn
p1475
(lp1476
S'churn-01'
p1477
asVmint
p1478
(lp1479
S'mint-01'
p1480
asVscram
p1481
(lp1482
S'scram-01'
p1483
asVunfasten
p1484
(lp1485
S'unfasten-01'
p1486
asVmisspell
p1487
(lp1488
S'misspell-01'
p1489
asVsecure
p1490
(lp1491
S'secure-01'
p1492
aS'secure-02'
p1493
asVquarry
p1494
(lp1495
S'quarry-01'
p1496
asVsmooth
p1497
(lp1498
S'smooth-01'
p1499
asVgripe
p1500
(lp1501
S'gripe-01'
p1502
asVdivulge
p1503
(lp1504
S'divulge-01'
p1505
asVdesist
p1506
(lp1507
S'desist-01'
p1508
asVlament
p1509
(lp1510
S'lament-01'
p1511
asVhatch
p1512
(lp1513
S'hatch-01'
p1514
asVtransmit
p1515
(lp1516
S'transmit-01'
p1517
asVquicken
p1518
(lp1519
S'quicken-01'
p1520
asVquieten
p1521
(lp1522
S'quieten-01'
p1523
asVwrithe
p1524
(lp1525
S'writhe-01'
p1526
asVglom
p1527
(lp1528
S'glom-01'
p1529
asVobject
p1530
(lp1531
S'object-01'
p1532
asVfoliate
p1533
(lp1534
S'foliate-02'
p1535
asVscarify
p1536
(lp1537
S'scarify-01'
p1538
asVhypnotize
p1539
(lp1540
S'hypnotize-01'
p1541
asVaddict
p1542
(lp1543
S'addict-01'
p1544
asVletter
p1545
(lp1546
S'letter-02'
p1547
asVfluster
p1548
(lp1549
S'fluster-01'
p1550
asVcoil
p1551
(lp1552
S'coil-01'
p1553
asVcoin
p1554
(lp1555
S'coin-01'
p1556
asVexonerate
p1557
(lp1558
S'exonerate-01'
p1559
asVglow
p1560
(lp1561
S'glow-01'
p1562
asVexpound
p1563
(lp1564
S'expound-01'
p1565
asVrepossess
p1566
(lp1567
S'repossess-01'
p1568
asVdon
p1569
(lp1570
S'don-01'
p1571
asVnasalize
p1572
(lp1573
S'nasalize-01'
p1574
asValarm
p1575
(lp1576
S'alarm-01'
p1577
asVcamp
p1578
(lp1579
S'camp-01'
p1580
aS'camp-02'
p1581
asVdemagnetize
p1582
(lp1583
S'demagnetize-01'
p1584
asVproclaim
p1585
(lp1586
S'proclaim-01'
p1587
asVnettle
p1588
(lp1589
S'nettle-01'
p1590
asVbracket
p1591
(lp1592
S'bracket-01'
p1593
asVdeclaw
p1594
(lp1595
S'declaw-01'
p1596
asVthunder
p1597
(lp1598
S'thunder-01'
p1599
asVconstrict
p1600
(lp1601
S'constrict-01'
p1602
asVflog
p1603
(lp1604
S'flog-01'
p1605
asVresonate
p1606
(lp1607
S'resonate-01'
p1608
asVdot
p1609
(lp1610
S'dot-01'
p1611
asVmarvel
p1612
(lp1613
S'marvel-01'
p1614
asVincorporate
p1615
(lp1616
S'incorporate-01'
p1617
aS'incorporate-02'
p1618
asVchariot
p1619
(lp1620
S'chariot-01'
p1621
asVbait
p1622
(lp1623
S'bait-03'
p1624
asVinspire
p1625
(lp1626
S'inspire-01'
p1627
asVhunger
p1628
(lp1629
S'hunger-01'
p1630
asVreorganize
p1631
(lp1632
S'reorganize-01'
p1633
asVprobe
p1634
(lp1635
S'probe-01'
p1636
asVdicker
p1637
(lp1638
S'dicker-01'
p1639
asVskitter
p1640
(lp1641
S'skitter-01'
p1642
asVcancan
p1643
(lp1644
S'cancan-01'
p1645
asVlurch
p1646
(lp1647
S'lurch-01'
p1648
asVdupe
p1649
(lp1650
S'dupe-01'
p1651
asVgauge
p1652
(lp1653
S'gauge-01'
p1654
asVanesthetize
p1655
(lp1656
S'anesthetize-01'
p1657
asVmingle
p1658
(lp1659
S'mingle-01'
p1660
aS'mingle-02'
p1661
asVpeddle
p1662
(lp1663
S'peddle-01'
p1664
asVbail
p1665
(lp1666
S'bail-01'
p1667
aS'bail-02'
p1668
asVadminister
p1669
(lp1670
S'administer-01'
p1671
asVtoast
p1672
(lp1673
S'toast-01'
p1674
asVstoop
p1675
(lp1676
S'stoop-01'
p1677
asVacquit
p1678
(lp1679
S'acquit-01'
p1680
asVexplain
p1681
(lp1682
S'explain-01'
p1683
asVcripple
p1684
(lp1685
S'cripple-01'
p1686
asVspecify
p1687
(lp1688
S'specify-01'
p1689
asVdisgust
p1690
(lp1691
S'disgust-01'
p1692
asVintegrate
p1693
(lp1694
S'integrate-01'
p1695
asVenslave
p1696
(lp1697
S'enslave-01'
p1698
asVhoard
p1699
(lp1700
S'hoard-01'
p1701
asVplate
p1702
(lp1703
S'plate-01'
p1704
asVwaltz
p1705
(lp1706
S'waltz-01'
p1707
asVsense
p1708
(lp1709
S'sense-01'
p1710
asVpatter
p1711
(lp1712
S'patter-01'
p1713
asVremarry
p1714
(lp1715
S'remarry-01'
p1716
asVdeforest
p1717
(lp1718
S'deforest-01'
p1719
asVblur
p1720
(lp1721
S'blur-01'
p1722
asVstop
p1723
(lp1724
S'stop-01'
p1725
aS'stop-03'
p1726
aS'stop-04'
p1727
asVdenounce
p1728
(lp1729
S'denounce-01'
p1730
asVcoast
p1731
(lp1732
S'coast-01'
p1733
asVbaffle
p1734
(lp1735
S'baffle-01'
p1736
asVmeditate
p1737
(lp1738
S'meditate-01'
p1739
asVreport
p1740
(lp1741
S'report-01'
p1742
asVreinstall
p1743
(lp1744
S'reinstall-01'
p1745
asVbat
p1746
(lp1747
S'bat-01'
p1748
aS'bat-02'
p1749
asVperforate
p1750
(lp1751
S'perforate-01'
p1752
asVbar
p1753
(lp1754
S'bar-01'
p1755
asVflour
p1756
(lp1757
S'flour-01'
p1758
asVbay
p1759
(lp1760
S'bay-01'
p1761
asVbag
p1762
(lp1763
S'bag-01'
p1764
asVerupt
p1765
(lp1766
S'erupt-01'
p1767
asVtroop
p1768
(lp1769
S'troop-01'
p1770
asVbaa
p1771
(lp1772
S'baa-01'
p1773
asVban
p1774
(lp1775
S'ban-01'
p1776
asVhasten
p1777
(lp1778
S'hasten-01'
p1779
asVsteal
p1780
(lp1781
S'steal-01'
p1782
asVsteam
p1783
(lp1784
S'steam-01'
p1785
aS'steam-02'
p1786
asVrespond
p1787
(lp1788
S'respond-01'
p1789
asVattest
p1790
(lp1791
S'attest-01'
p1792
asVtraverse
p1793
(lp1794
S'traverse-01'
p1795
asVdeaccent
p1796
(lp1797
S'deaccent-01'
p1798
asVpummel
p1799
(lp1800
S'pummel-01'
p1801
asVmisdirect
p1802
(lp1803
S'misdirect-01'
p1804
asVimitate
p1805
(lp1806
S'imitate-01'
p1807
asVnut
p1808
(lp1809
S'nut-01'
p1810
asVallure
p1811
(lp1812
S'allure-01'
p1813
asVresult
p1814
(lp1815
S'result-01'
p1816
asVfail
p1817
(lp1818
S'fail-01'
p1819
asVruffle
p1820
(lp1821
S'ruffle-01'
p1822
asVhammer
p1823
(lp1824
S'hammer-01'
p1825
aS'hammer-02'
p1826
aS'hammer-03'
p1827
asVsnuff
p1828
(lp1829
S'snuff-01'
p1830
asVaccede
p1831
(lp1832
S'accede-01'
p1833
asVhunch
p1834
(lp1835
S'hunch-01'
p1836
asVsail
p1837
(lp1838
S'sail-01'
p1839
asVdehead
p1840
(lp1841
S'dehead-01'
p1842
asVcatalogue
p1843
(lp1844
S'catalogue-01'
p1845
asVirk
p1846
(lp1847
S'irk-01'
p1848
asVbestride
p1849
(lp1850
S'bestride-01'
p1851
asVflagellate
p1852
(lp1853
S'flagellate-01'
p1854
asVscorn
p1855
(lp1856
S'scorn-01'
p1857
asVvociferate
p1858
(lp1859
S'vociferate-01'
p1860
asVdrawl
p1861
(lp1862
S'drawl-01'
p1863
asVapproach
p1864
(lp1865
S'approach-01'
p1866
aS'approach-02'
p1867
asVpirate
p1868
(lp1869
S'pirate-01'
p1870
asVpreserve
p1871
(lp1872
S'preserve-01'
p1873
asVdrowse
p1874
(lp1875
S'drowse-01'
p1876
asVextend
p1877
(lp1878
S'extend-01'
p1879
aS'extend-02'
p1880
asVwean
p1881
(lp1882
S'wean-01'
p1883
asVcontort
p1884
(lp1885
S'contort-01'
p1886
asVboss
p1887
(lp1888
S'boss-01'
p1889
asVemulsify
p1890
(lp1891
S'emulsify-01'
p1892
asVdevour
p1893
(lp1894
S'devour-01'
p1895
asVreconstitute
p1896
(lp1897
S'reconstitute-01'
p1898
asVunfold
p1899
(lp1900
S'unfold-01'
p1901
asVexcavate
p1902
(lp1903
S'excavate-01'
p1904
asVimprove
p1905
(lp1906
S'improve-01'
p1907
aS'improve-02'
p1908
asVpity
p1909
(lp1910
S'pity-01'
p1911
asVcop
p1912
(lp1913
S'cop-01'
p1914
asVprotect
p1915
(lp1916
S'protect-01'
p1917
asVcow
p1918
(lp1919
S'cow-01'
p1920
asVdisdain
p1921
(lp1922
S'disdain-01'
p1923
asVcox
p1924
(lp1925
S'cox-01'
p1926
asVbray
p1927
(lp1928
S'bray-01'
p1929
asVbotch
p1930
(lp1931
S'botch-01'
p1932
asVstow
p1933
(lp1934
S'stow-01'
p1935
asVincense
p1936
(lp1937
S'incense-01'
p1938
asVdisengage
p1939
(lp1940
S'disengage-01'
p1941
asVpith
p1942
(lp1943
S'pith-01'
p1944
asVbrag
p1945
(lp1946
S'brag-01'
p1947
asVgambol
p1948
(lp1949
S'gambol-01'
p1950
asVmobilize
p1951
(lp1952
S'mobilize-01'
p1953
asVvote
p1954
(lp1955
S'vote-01'
p1956
aS'vote-02'
p1957
asVargue
p1958
(lp1959
S'argue-02'
p1960
asVtinge
p1961
(lp1962
S'tinge-01'
p1963
asVcoo
p1964
(lp1965
S'coo-01'
p1966
asVeradicate
p1967
(lp1968
S'eradicate-01'
p1969
asVexhibit
p1970
(lp1971
S'exhibit-01'
p1972
asVwiden
p1973
(lp1974
S'widen-01'
p1975
asVabbreviate
p1976
(lp1977
S'abbreviate-01'
p1978
asVspear
p1979
(lp1980
S'spear-01'
p1981
asVconfide
p1982
(lp1983
S'confide-01'
p1984
asVburble
p1985
(lp1986
S'burble-01'
p1987
asVagglomerate
p1988
(lp1989
S'agglomerate-01'
p1990
asVwhisper
p1991
(lp1992
S'whisper-01'
p1993
asVdehull
p1994
(lp1995
S'dehull-01'
p1996
asVvitrify
p1997
(lp1998
S'vitrify-01'
p1999
asVtrust
p2000
(lp2001
S'trust-01'
p2002
aS'trust-02'
p2003
asVtruss
p2004
(lp2005
S'truss-01'
p2006
asVspeak
p2007
(lp2008
S'speak-01'
p2009
asVparalyze
p2010
(lp2011
S'paralyze-01'
p2012
asVtint
p2013
(lp2014
S'tint-01'
p2015
asVbewilder
p2016
(lp2017
S'bewilder-01'
p2018
asVhay
p2019
(lp2020
S'hay-01'
p2021
asVchrome
p2022
(lp2023
S'chrome-01'
p2024
asVsmash
p2025
(lp2026
S'smash-01'
p2027
aS'smash-02'
p2028
asVsubside
p2029
(lp2030
S'subside-01'
p2031
asVerect
p2032
(lp2033
S'erect-01'
p2034
asVbeep
p2035
(lp2036
S'beep-01'
p2037
aS'beep-02'
p2038
asVcommission
p2039
(lp2040
S'commission-01'
p2041
asVresupply
p2042
(lp2043
S'resupply-01'
p2044
aS'resupply-02'
p2045
asVfrisk
p2046
(lp2047
S'frisk-01'
p2048
asVsaute
p2049
(lp2050
S'saute-01'
p2051
asVsilkscreen
p2052
(lp2053
S'silkscreen-01'
p2054
asVfry
p2055
(lp2056
S'fry-01'
p2057
asVchug
p2058
(lp2059
S'chug-01'
p2060
asVstud
p2061
(lp2062
S'stud-01'
p2063
asVwheedle
p2064
(lp2065
S'wheedle-01'
p2066
asVloft
p2067
(lp2068
S'loft-01'
p2069
asVmushroom
p2070
(lp2071
S'mushroom-01'
p2072
asVsuppress
p2073
(lp2074
S'suppress-01'
p2075
asVstifle
p2076
(lp2077
S'stifle-01'
p2078
asVdismiss
p2079
(lp2080
S'dismiss-01'
p2081
asVexcite
p2082
(lp2083
S'excite-01'
p2084
asVgrunt
p2085
(lp2086
S'grunt-02'
p2087
asVwish
p2088
(lp2089
S'wish-01'
p2090
asVdisgruntle
p2091
(lp2092
S'disgruntle-01'
p2093
asVjoust
p2094
(lp2095
S'joust-01'
p2096
asVcraft
p2097
(lp2098
S'craft-01'
p2099
asVhoist
p2100
(lp2101
S'hoist-01'
p2102
asVfess
p2103
(lp2104
S'fess-01'
p2105
asVcatch
p2106
(lp2107
S'catch-01'
p2108
asVdeepen
p2109
(lp2110
S'deepen-01'
p2111
asVspellbind
p2112
(lp2113
S'spellbind-01'
p2114
asVspin
p2115
(lp2116
S'spin-01'
p2117
aS'spin-03'
p2118
aS'spin-04'
p2119
asVchill
p2120
(lp2121
S'chill-01'
p2122
asVinhibit
p2123
(lp2124
S'inhibit-01'
p2125
asVdiffract
p2126
(lp2127
S'diffract-01'
p2128
asViodize
p2129
(lp2130
S'iodize-01'
p2131
asVshrink
p2132
(lp2133
S'shrink-01'
p2134
asVschlep
p2135
(lp2136
S'schlep-01'
p2137
asVlessen
p2138
(lp2139
S'lessen-01'
p2140
asVair
p2141
(lp2142
S'air-01'
p2143
asVemploy
p2144
(lp2145
S'employ-01'
p2146
aS'employ-02'
p2147
asVail
p2148
(lp2149
S'ail-01'
p2150
asVslam
p2151
(lp2152
S'slam-01'
p2153
aS'slam-02'
p2154
asVsuppose
p2155
(lp2156
S'suppose-01'
p2157
asVthrash
p2158
(lp2159
S'thrash-01'
p2160
asVaid
p2161
(lp2162
S'aid-01'
p2163
asVstash
p2164
(lp2165
S'stash-01'
p2166
asVbalance
p2167
(lp2168
S'balance-01'
p2169
asVmangle
p2170
(lp2171
S'mangle-01'
p2172
aS'mangle-02'
p2173
asVanchor
p2174
(lp2175
S'anchor-01'
p2176
asVspawn
p2177
(lp2178
S'spawn-01'
p2179
asVupgrade
p2180
(lp2181
S'upgrade-02'
p2182
asVsouse
p2183
(lp2184
S'souse-01'
p2185
asVcane
p2186
(lp2187
S'cane-01'
p2188
asVoutstrip
p2189
(lp2190
S'outstrip-01'
p2191
asVremunerate
p2192
(lp2193
S'remunerate-01'
p2194
asVtaper
p2195
(lp2196
S'taper-01'
p2197
asVphosphoresce
p2198
(lp2199
S'phosphoresce-01'
p2200
asVsting
p2201
(lp2202
S'sting-01'
p2203
asVtease
p2204
(lp2205
S'tease-01'
p2206
aS'tease-02'
p2207
aS'tease-03'
p2208
aS'tease-04'
p2209
asVcharacterize
p2210
(lp2211
S'characterize-01'
p2212
asVscurry
p2213
(lp2214
S'scurry-01'
p2215
asVjest
p2216
(lp2217
S'jest-01'
p2218
asVexile
p2219
(lp2220
S'exile-01'
p2221
asVconk
p2222
(lp2223
S'conk-01'
p2224
asVdisappear
p2225
(lp2226
S'disappear-01'
p2227
asVsterilize
p2228
(lp2229
S'sterilize-01'
p2230
asVgrowl
p2231
(lp2232
S'growl-01'
p2233
asVsap
p2234
(lp2235
S'sap-01'
p2236
asVpatent
p2237
(lp2238
S'patent-01'
p2239
asVsuggest
p2240
(lp2241
S'suggest-01'
p2242
asVmake
p2243
(lp2244
S'make-01'
p2245
aS'make-02'
p2246
aS'make-18'
p2247
aS'make-07'
p2248
aS'make-08'
p2249
aS'make-10'
p2250
aS'make-12'
p2251
asVwound
p2252
(lp2253
S'wound-01'
p2254
asVhonk
p2255
(lp2256
S'honk-01'
p2257
asVoverstep
p2258
(lp2259
S'overstep-01'
p2260
asVgrapple
p2261
(lp2262
S'grapple-01'
p2263
asVdescend
p2264
(lp2265
S'descend-01'
p2266
asVcontaminate
p2267
(lp2268
S'contaminate-01'
p2269
asVwheel
p2270
(lp2271
S'wheel-01'
p2272
asVevolve
p2273
(lp2274
S'evolve-01'
p2275
aS'evolve-02'
p2276
asVsatellite
p2277
(lp2278
S'satellite-01'
p2279
asVraid
p2280
(lp2281
S'raid-01'
p2282
asVswell
p2283
(lp2284
S'swell-01'
p2285
asVpermit
p2286
(lp2287
S'permit-01'
p2288
asVhang
p2289
(lp2290
S'hang-01'
p2291
aS'hang-02'
p2292
asVrain
p2293
(lp2294
S'rain-01'
p2295
asVhand
p2296
(lp2297
S'hand-01'
p2298
aS'hand-03'
p2299
asVdelight
p2300
(lp2301
S'delight-01'
p2302
aS'delight-03'
p2303
asVstucco
p2304
(lp2305
S'stucco-01'
p2306
asVdepict
p2307
(lp2308
S'depict-01'
p2309
asVmisconstrue
p2310
(lp2311
S'misconstrue-01'
p2312
asVdescry
p2313
(lp2314
S'descry-01'
p2315
asVpostmark
p2316
(lp2317
S'postmark-01'
p2318
asVnip
p2319
(lp2320
S'nip-01'
p2321
asVcycle
p2322
(lp2323
S'cycle-01'
p2324
asVbutter
p2325
(lp2326
S'butter-01'
p2327
asVjangle
p2328
(lp2329
S'jangle-01'
p2330
asVpunctuate
p2331
(lp2332
S'punctuate-01'
p2333
asVromp
p2334
(lp2335
S'romp-01'
p2336
asVraze
p2337
(lp2338
S'raze-01'
p2339
asVhumble
p2340
(lp2341
S'humble-01'
p2342
asVdrip
p2343
(lp2344
S'drip-01'
p2345
aS'drip-02'
p2346
asVinherit
p2347
(lp2348
S'inherit-01'
p2349
asVdoff
p2350
(lp2351
S'doff-01'
p2352
asVunhook
p2353
(lp2354
S'unhook-01'
p2355
asVmother
p2356
(lp2357
S'mother-01'
p2358
asVsnigger
p2359
(lp2360
S'snigger-01'
p2361
asVrecombine
p2362
(lp2363
S'recombine-01'
p2364
asVbereave
p2365
(lp2366
S'bereave-01'
p2367
asVbellow
p2368
(lp2369
S'bellow-01'
p2370
asVappease
p2371
(lp2372
S'appease-01'
p2373
asVdistribute
p2374
(lp2375
S'distribute-01'
p2376
asVbruise
p2377
(lp2378
S'bruise-01'
p2379
asVrepose
p2380
(lp2381
S'repose-01'
p2382
asVrarefy
p2383
(lp2384
S'rarefy-01'
p2385
asVdisguise
p2386
(lp2387
S'disguise-01'
p2388
asVidentify
p2389
(lp2390
S'identify-01'
p2391
aS'identify-02'
p2392
asVshuffle
p2393
(lp2394
S'shuffle-01'
p2395
aS'shuffle-02'
p2396
aS'shuffle-03'
p2397
aS'shuffle-05'
p2398
asVextol
p2399
(lp2400
S'extol-01'
p2401
asVenlighten
p2402
(lp2403
S'enlighten-01'
p2404
asVawaken
p2405
(lp2406
S'awaken-01'
p2407
asVnudge
p2408
(lp2409
S'nudge-01'
p2410
aS'nudge-02'
p2411
asVinterweave
p2412
(lp2413
S'interweave-01'
p2414
asVmix
p2415
(lp2416
S'mix-01'
p2417
asVease
p2418
(lp2419
S'ease-01'
p2420
aS'ease-04'
p2421
asVvie
p2422
(lp2423
S'vie-01'
p2424
asVsprawl
p2425
(lp2426
S'sprawl-01'
p2427
asVexalt
p2428
(lp2429
S'exalt-01'
p2430
asVshout
p2431
(lp2432
S'shout-01'
p2433
aS'shout-03'
p2434
asVspread
p2435
(lp2436
S'spread-01'
p2437
aS'spread-02'
p2438
asVrelearn
p2439
(lp2440
S'relearn-01'
p2441
asVboard
p2442
(lp2443
S'board-01'
p2444
aS'board-02'
p2445
aS'board-03'
p2446
aS'board-04'
p2447
asVfalter
p2448
(lp2449
S'falter-01'
p2450
asVsave
p2451
(lp2452
S'save-01'
p2453
aS'save-03'
p2454
asVhat
p2455
(lp2456
S'hat-01'
p2457
asVdesignate
p2458
(lp2459
S'designate-01'
p2460
asVshoulder
p2461
(lp2462
S'shoulder-01'
p2463
asVreuse
p2464
(lp2465
S'reuse-01'
p2466
asVrerelease
p2467
(lp2468
S'rerelease-01'
p2469
asVsinge
p2470
(lp2471
S'singe-01'
p2472
asVdismount
p2473
(lp2474
S'dismount-01'
p2475
asVbarge
p2476
(lp2477
S'barge-01'
p2478
asVjudge
p2479
(lp2480
S'judge-01'
p2481
asVshadow
p2482
(lp2483
S'shadow-01'
p2484
asVstrap
p2485
(lp2486
S'strap-01'
p2487
aS'strap-03'
p2488
asVscruple
p2489
(lp2490
S'scruple-01'
p2491
asVretreat
p2492
(lp2493
S'retreat-01'
p2494
asVdesire
p2495
(lp2496
S'desire-01'
p2497
asVnauseate
p2498
(lp2499
S'nauseate-01'
p2500
asVscan
p2501
(lp2502
S'scan-01'
p2503
asVswill
p2504
(lp2505
S'swill-01'
p2506
asVgift
p2507
(lp2508
S'gift-01'
p2509
asVchlorinate
p2510
(lp2511
S'chlorinate-01'
p2512
asVhunt
p2513
(lp2514
S'hunt-01'
p2515
asVzoom
p2516
(lp2517
S'zoom-01'
p2518
asVpencil
p2519
(lp2520
S'pencil-01'
p2521
asVsoap
p2522
(lp2523
S'soap-01'
p2524
asVremind
p2525
(lp2526
S'remind-01'
p2527
asVreassign
p2528
(lp2529
S'reassign-01'
p2530
asVsoar
p2531
(lp2532
S'soar-01'
p2533
aS'soar-02'
p2534
asVsympathize
p2535
(lp2536
S'sympathize-01'
p2537
asVscout
p2538
(lp2539
S'scout-01'
p2540
aS'scout-02'
p2541
asVantique
p2542
(lp2543
S'antique-01'
p2544
asVhyperventilate
p2545
(lp2546
S'hyperventilate-01'
p2547
asVenvision
p2548
(lp2549
S'envision-01'
p2550
asVdeal
p2551
(lp2552
S'deal-01'
p2553
aS'deal-02'
p2554
asVrepudiate
p2555
(lp2556
S'repudiate-01'
p2557
asVflatter
p2558
(lp2559
S'flatter-01'
p2560
asVcrown
p2561
(lp2562
S'crown-01'
p2563
aS'crown-03'
p2564
aS'crown-04'
p2565
asVsponge
p2566
(lp2567
S'sponge-01'
p2568
asVrevel
p2569
(lp2570
S'revel-01'
p2571
asVrile
p2572
(lp2573
S'rile-01'
p2574
asVhoover
p2575
(lp2576
S'hoover-01'
p2577
asVscrabble
p2578
(lp2579
S'scrabble-01'
p2580
asVflatten
p2581
(lp2582
S'flatten-01'
p2583
asVinvoice
p2584
(lp2585
S'invoice-01'
p2586
asVescape
p2587
(lp2588
S'escape-01'
p2589
asVpain
p2590
(lp2591
S'pain-01'
p2592
asVadvertise
p2593
(lp2594
S'advertise-01'
p2595
asVguess
p2596
(lp2597
S'guess-01'
p2598
asVcreep
p2599
(lp2600
S'creep-01'
p2601
asVtotter
p2602
(lp2603
S'totter-01'
p2604
asVcede
p2605
(lp2606
S'cede-01'
p2607
asVcombat
p2608
(lp2609
S'combat-01'
p2610
asVflux
p2611
(lp2612
S'flux-01'
p2613
aS'flux-02'
p2614
asVpurple
p2615
(lp2616
S'purple-01'
p2617
asVfox
p2618
(lp2619
S'fox-01'
p2620
asVjolt
p2621
(lp2622
S'jolt-01'
p2623
aS'jolt-02'
p2624
asVice
p2625
(lp2626
S'ice-01'
p2627
aS'ice-02'
p2628
asVtrack
p2629
(lp2630
S'track-01'
p2631
asVfog
p2632
(lp2633
S'fog-01'
p2634
asVallocate
p2635
(lp2636
S'allocate-01'
p2637
asVsuction
p2638
(lp2639
S'suction-01'
p2640
asVovercook
p2641
(lp2642
S'overcook-01'
p2643
asVgerminate
p2644
(lp2645
S'germinate-01'
p2646
asVbeget
p2647
(lp2648
S'beget-01'
p2649
asVbamboozle
p2650
(lp2651
S'bamboozle-01'
p2652
asVcore
p2653
(lp2654
S'core-01'
p2655
asVpeel
p2656
(lp2657
S'peel-01'
p2658
asVburl
p2659
(lp2660
S'burl-01'
p2661
asVburn
p2662
(lp2663
S'burn-01'
p2664
asVuntie
p2665
(lp2666
S'untie-01'
p2667
asVconfer
p2668
(lp2669
S'confer-01'
p2670
asVply
p2671
(lp2672
S'ply-01'
p2673
asVcork
p2674
(lp2675
S'cork-01'
p2676
asVsift
p2677
(lp2678
S'sift-01'
p2679
asVyoke
p2680
(lp2681
S'yoke-01'
p2682
asVburp
p2683
(lp2684
S'burp-01'
p2685
asVburr
p2686
(lp2687
S'burr-01'
p2688
asVpeer
p2689
(lp2690
S'peer-01'
p2691
asVpeep
p2692
(lp2693
S'peep-01'
p2694
aS'peep-02'
p2695
asVbury
p2696
(lp2697
S'bury-01'
p2698
asVshuck
p2699
(lp2700
S'shuck-01'
p2701
asVplug
p2702
(lp2703
S'plug-01'
p2704
asVslither
p2705
(lp2706
S'slither-01'
p2707
asVconceal
p2708
(lp2709
S'conceal-01'
p2710
asVinjure
p2711
(lp2712
S'injure-01'
p2713
asVchoke
p2714
(lp2715
S'choke-01'
p2716
aS'choke-02'
p2717
asVrecollect
p2718
(lp2719
S'recollect-01'
p2720
asVcaulk
p2721
(lp2722
S'caulk-01'
p2723
asVwatch
p2724
(lp2725
S'watch-01'
p2726
aS'watch-02'
p2727
asVhyperbolize
p2728
(lp2729
S'hyperbolize-01'
p2730
asVdespair
p2731
(lp2732
S'despair-01'
p2733
asVensure
p2734
(lp2735
S'ensure-01'
p2736
asVcherish
p2737
(lp2738
S'cherish-01'
p2739
asVcommit
p2740
(lp2741
S'commit-01'
p2742
asVtwitch
p2743
(lp2744
S'twitch-01'
p2745
asVcurry
p2746
(lp2747
S'curry-01'
p2748
asVblabber
p2749
(lp2750
S'blabber-01'
p2751
asVemcee
p2752
(lp2753
S'emcee-01'
p2754
asVphotocopy
p2755
(lp2756
S'photocopy-01'
p2757
asVabut
p2758
(lp2759
S'abut-01'
p2760
asVabet
p2761
(lp2762
S'abet-01'
p2763
asVsob
p2764
(lp2765
S'sob-01'
p2766
asVsod
p2767
(lp2768
S'sod-01'
p2769
asVgoosestep
p2770
(lp2771
S'goosestep-01'
p2772
asVmantle
p2773
(lp2774
S'mantle-01'
p2775
asVdehusk
p2776
(lp2777
S'dehusk-01'
p2778
asVsock
p2779
(lp2780
S'sock-01'
p2781
asVpuzzle
p2782
(lp2783
S'puzzle-01'
p2784
asVcrochet
p2785
(lp2786
S'crochet-01'
p2787
asVbound
p2788
(lp2789
S'bound-01'
p2790
aS'bound-02'
p2791
asVsaddle
p2792
(lp2793
S'saddle-01'
p2794
asVaccommodate
p2795
(lp2796
S'accommodate-01'
p2797
asVmultiply
p2798
(lp2799
S'multiply-01'
p2800
asVclomp
p2801
(lp2802
S'clomp-01'
p2803
asVobligate
p2804
(lp2805
S'obligate-01'
p2806
asVswelter
p2807
(lp2808
S'swelter-01'
p2809
asVsow
p2810
(lp2811
S'sow-01'
p2812
asVwrap
p2813
(lp2814
S'wrap-01'
p2815
asVchime
p2816
(lp2817
S'chime-01'
p2818
asVstall
p2819
(lp2820
S'stall-01'
p2821
asVmass
p2822
(lp2823
S'mass-01'
p2824
asVunseal
p2825
(lp2826
S'unseal-01'
p2827
asVunclip
p2828
(lp2829
S'unclip-01'
p2830
asVrely
p2831
(lp2832
S'rely-01'
p2833
asVchitter
p2834
(lp2835
S'chitter-01'
p2836
asVcrowd
p2837
(lp2838
S'crowd-01'
p2839
aS'crowd-02'
p2840
asVpearl
p2841
(lp2842
S'pearl-01'
p2843
asVwag
p2844
(lp2845
S'wag-01'
p2846
asVscamper
p2847
(lp2848
S'scamper-01'
p2849
asVinitial
p2850
(lp2851
S'initial-01'
p2852
asVapproximate
p2853
(lp2854
S'approximate-01'
p2855
asVfight
p2856
(lp2857
S'fight-01'
p2858
asVgermanize
p2859
(lp2860
S'germanize-01'
p2861
asVquiet
p2862
(lp2863
S'quiet-01'
p2864
asVwax
p2865
(lp2866
S'wax-01'
p2867
aS'wax-02'
p2868
asVunseat
p2869
(lp2870
S'unseat-01'
p2871
asVstalk
p2872
(lp2873
S'stalk-02'
p2874
asVwar
p2875
(lp2876
S'war-01'
p2877
asVoverhang
p2878
(lp2879
S'overhang-01'
p2880
asVfizz
p2881
(lp2882
S'fizz-01'
p2883
asVfork
p2884
(lp2885
S'fork-01'
p2886
aS'fork-02'
p2887
asVstarve
p2888
(lp2889
S'starve-01'
p2890
asVhead
p2891
(lp2892
S'head-01'
p2893
asVform
p2894
(lp2895
S'form-01'
p2896
asVoffer
p2897
(lp2898
S'offer-01'
p2899
asVheal
p2900
(lp2901
S'heal-01'
p2902
asVconverse
p2903
(lp2904
S'converse-01'
p2905
asVdiscourage
p2906
(lp2907
S'discourage-01'
p2908
asVwireless
p2909
(lp2910
S'wireless-01'
p2911
asVjive
p2912
(lp2913
S'jive-01'
p2914
asVheat
p2915
(lp2916
S'heat-01'
p2917
aS'heat-02'
p2918
asVhear
p2919
(lp2920
S'hear-01'
p2921
asVbounce
p2922
(lp2923
S'bounce-01'
p2924
asVheap
p2925
(lp2926
S'heap-01'
p2927
asVoverburden
p2928
(lp2929
S'overburden-01'
p2930
asVchoreograph
p2931
(lp2932
S'choreograph-01'
p2933
asVsurrender
p2934
(lp2935
S'surrender-01'
p2936
asVhumiliate
p2937
(lp2938
S'humiliate-01'
p2939
asVduel
p2940
(lp2941
S'duel-01'
p2942
asVtack
p2943
(lp2944
S'tack-01'
p2945
aS'tack-02'
p2946
asVslope
p2947
(lp2948
S'slope-01'
p2949
asVunpin
p2950
(lp2951
S'unpin-01'
p2952
asVbargain
p2953
(lp2954
S'bargain-01'
p2955
asVcrop
p2956
(lp2957
S'crop-01'
p2958
asVadore
p2959
(lp2960
S'adore-01'
p2961
asVdecorate
p2962
(lp2963
S'decorate-01'
p2964
asVusher
p2965
(lp2966
S'usher-02'
p2967
asVlatch
p2968
(lp2969
S'latch-01'
p2970
aS'latch-02'
p2971
asVadorn
p2972
(lp2973
S'adorn-01'
p2974
asVdiagnose
p2975
(lp2976
S'diagnose-01'
p2977
asVplagiarize
p2978
(lp2979
S'plagiarize-01'
p2980
asVdisgrace
p2981
(lp2982
S'disgrace-01'
p2983
asVsuborn
p2984
(lp2985
S'suborn-01'
p2986
asVtoss
p2987
(lp2988
S'toss-01'
p2989
asVabstract
p2990
(lp2991
S'abstract-01'
p2992
asVsidestep
p2993
(lp2994
S'sidestep-01'
p2995
asVmolt
p2996
(lp2997
S'molt-01'
p2998
asVingest
p2999
(lp3000
S'ingest-01'
p3001
asVcrumble
p3002
(lp3003
S'crumble-01'
p3004
asVeffervesce
p3005
(lp3006
S'effervesce-01'
p3007
asVthunk
p3008
(lp3009
S'thunk-01'
p3010
asVscrawl
p3011
(lp3012
S'scrawl-01'
p3013
aS'scrawl-02'
p3014
asVruin
p3015
(lp3016
S'ruin-01'
p3017
asVexist
p3018
(lp3019
S'exist-01'
p3020
asVrevitalize
p3021
(lp3022
S'revitalize-01'
p3023
asVsplotch
p3024
(lp3025
S'splotch-01'
p3026
asVship
p3027
(lp3028
S'ship-01'
p3029
asVdent
p3030
(lp3031
S'dent-01'
p3032
asVmold
p3033
(lp3034
S'mold-01'
p3035
asVcheck
p3036
(lp3037
S'check-01'
p3038
aS'check-05'
p3039
aS'check-06'
p3040
asVshit
p3041
(lp3042
S'shit-01'
p3043
asVgraft
p3044
(lp3045
S'graft-01'
p3046
asVdiscriminate
p3047
(lp3048
S'discriminate-02'
p3049
asVfloor
p3050
(lp3051
S'floor-01'
p3052
asVpale
p3053
(lp3054
S'pale-01'
p3055
asVrelax
p3056
(lp3057
S'relax-01'
p3058
asVexcel
p3059
(lp3060
S'excel-01'
p3061
asVflood
p3062
(lp3063
S'flood-01'
p3064
asVtin
p3065
(lp3066
S'tin-01'
p3067
asVdesecrate
p3068
(lp3069
S'desecrate-01'
p3070
asVtest
p3071
(lp3072
S'test-01'
p3073
asVtie
p3074
(lp3075
S'tie-01'
p3076
asVimplant
p3077
(lp3078
S'implant-01'
p3079
asVfrolic
p3080
(lp3081
S'frolic-01'
p3082
asVinterlard
p3083
(lp3084
S'interlard-01'
p3085
asVcircumcise
p3086
(lp3087
S'circumcise-01'
p3088
asVpicture
p3089
(lp3090
S'picture-01'
p3091
asVintend
p3092
(lp3093
S'intend-01'
p3094
asVgarland
p3095
(lp3096
S'garland-01'
p3097
asVcongratulate
p3098
(lp3099
S'congratulate-01'
p3100
asVwing
p3101
(lp3102
S'wing-01'
p3103
asVliquidate
p3104
(lp3105
S'liquidate-01'
p3106
asVslink
p3107
(lp3108
S'slink-01'
p3109
asVscream
p3110
(lp3111
S'scream-01'
p3112
asVjourney
p3113
(lp3114
S'journey-01'
p3115
asVobjectify
p3116
(lp3117
S'objectify-01'
p3118
asVmuse
p3119
(lp3120
S'muse-01'
p3121
asVsnooze
p3122
(lp3123
S'snooze-01'
p3124
asVdischarge
p3125
(lp3126
S'discharge-01'
p3127
asVentrust
p3128
(lp3129
S'entrust-01'
p3130
asVspy
p3131
(lp3132
S'spy-01'
p3133
asVweekend
p3134
(lp3135
S'weekend-01'
p3136
asVjitterbug
p3137
(lp3138
S'jitterbug-01'
p3139
asVbullet
p3140
(lp3141
S'bullet-01'
p3142
asVphone
p3143
(lp3144
S'phone-01'
p3145
asVassume
p3146
(lp3147
S'assume-01'
p3148
asVyacht
p3149
(lp3150
S'yacht-01'
p3151
asVhyperextend
p3152
(lp3153
S'hyperextend-01'
p3154
asVwarm
p3155
(lp3156
S'warm-01'
p3157
aS'warm-02'
p3158
asVgyrate
p3159
(lp3160
S'gyrate-01'
p3161
asVtime
p3162
(lp3163
S'time-01'
p3164
asVpush
p3165
(lp3166
S'push-01'
p3167
aS'push-02'
p3168
asVfasten
p3169
(lp3170
S'fasten-01'
p3171
asVdispirit
p3172
(lp3173
S'dispirit-01'
p3174
asVmeander
p3175
(lp3176
S'meander-01'
p3177
asVteethe
p3178
(lp3179
S'teethe-01'
p3180
asVdecelerate
p3181
(lp3182
S'decelerate-01'
p3183
asVshop
p3184
(lp3185
S'shop-01'
p3186
asVcoach
p3187
(lp3188
S'coach-01'
p3189
asVchain
p3190
(lp3191
S'chain-01'
p3192
asVtrickle
p3193
(lp3194
S'trickle-01'
p3195
asVdance
p3196
(lp3197
S'dance-01'
p3198
aS'dance-02'
p3199
asVskip
p3200
(lp3201
S'skip-02'
p3202
asVrob
p3203
(lp3204
S'rob-01'
p3205
asVrelieve
p3206
(lp3207
S'relieve-01'
p3208
aS'relieve-02'
p3209
asVperuse
p3210
(lp3211
S'peruse-01'
p3212
asVfocus
p3213
(lp3214
S'focus-01'
p3215
asVinvent
p3216
(lp3217
S'invent-01'
p3218
asVsnip
p3219
(lp3220
S'snip-01'
p3221
asVskate
p3222
(lp3223
S'skate-01'
p3224
asVredouble
p3225
(lp3226
S'redouble-01'
p3227
asVmicrowave
p3228
(lp3229
S'microwave-01'
p3230
asVrecode
p3231
(lp3232
S'recode-01'
p3233
asVskin
p3234
(lp3235
S'skin-01'
p3236
asVbattle
p3237
(lp3238
S'battle-01'
p3239
asVmill
p3240
(lp3241
S'mill-01'
p3242
asVrot
p3243
(lp3244
S'rot-01'
p3245
asVmilk
p3246
(lp3247
S'milk-01'
p3248
aS'milk-02'
p3249
asVempathize
p3250
(lp3251
S'empathize-01'
p3252
asVdiscern
p3253
(lp3254
S'discern-01'
p3255
asVrecur
p3256
(lp3257
S'recur-01'
p3258
asVvarnish
p3259
(lp3260
S'varnish-01'
p3261
asVmoil
p3262
(lp3263
S'moil-02'
p3264
asVdepend
p3265
(lp3266
S'depend-01'
p3267
asVscribble
p3268
(lp3269
S'scribble-01'
p3270
asVflash
p3271
(lp3272
S'flash-01'
p3273
aS'flash-02'
p3274
asVwhirl
p3275
(lp3276
S'whirl-01'
p3277
asVvex
p3278
(lp3279
S'vex-01'
p3280
asVamaze
p3281
(lp3282
S'amaze-01'
p3283
asVcharge
p3284
(lp3285
S'charge-01'
p3286
aS'charge-02'
p3287
aS'charge-03'
p3288
asVcompensate
p3289
(lp3290
S'compensate-01'
p3291
asVreassemble
p3292
(lp3293
S'reassemble-01'
p3294
asVsimmer
p3295
(lp3296
S'simmer-01'
p3297
asVbrown
p3298
(lp3299
S'brown-01'
p3300
asVcoop
p3301
(lp3302
S'coop-01'
p3303
asVslash
p3304
(lp3305
S'slash-01'
p3306
asVjerk
p3307
(lp3308
S'jerk-01'
p3309
asVreconvene
p3310
(lp3311
S'reconvene-01'
p3312
asVterminate
p3313
(lp3314
S'terminate-01'
p3315
aS'terminate-02'
p3316
asVnationalize
p3317
(lp3318
S'nationalize-01'
p3319
asVfleece
p3320
(lp3321
S'fleece-01'
p3322
asVchirrup
p3323
(lp3324
S'chirrup-01'
p3325
asVdecamp
p3326
(lp3327
S'decamp-01'
p3328
asVbustle
p3329
(lp3330
S'bustle-01'
p3331
asVsunbathe
p3332
(lp3333
S'sunbathe-01'
p3334
asVkitten
p3335
(lp3336
S'kitten-01'
p3337
asVcook
p3338
(lp3339
S'cook-01'
p3340
aS'cook-03'
p3341
asVsimper
p3342
(lp3343
S'simper-01'
p3344
asVtrouble
p3345
(lp3346
S'trouble-01'
p3347
asVblast
p3348
(lp3349
S'blast-01'
p3350
aS'blast-05'
p3351
asVexact
p3352
(lp3353
S'exact-01'
p3354
asVwind
p3355
(lp3356
S'wind-01'
p3357
asVcool
p3358
(lp3359
S'cool-01'
p3360
aS'cool-02'
p3361
aS'cool-03'
p3362
asVmaterialize
p3363
(lp3364
S'materialize-01'
p3365
asVdim
p3366
(lp3367
S'dim-01'
p3368
asVprod
p3369
(lp3370
S'prod-01'
p3371
asVlevel
p3372
(lp3373
S'level-01'
p3374
asVtear
p3375
(lp3376
S'tear-01'
p3377
aS'tear-02'
p3378
asVdie
p3379
(lp3380
S'die-01'
p3381
asVdig
p3382
(lp3383
S'dig-01'
p3384
aS'dig-02'
p3385
aS'dig-03'
p3386
asVenthuse
p3387
(lp3388
S'enthuse-02'
p3389
asVgum
p3390
(lp3391
S'gum-01'
p3392
aS'gum-02'
p3393
asVleave
p3394
(lp3395
S'leave-01'
p3396
aS'leave-02'
p3397
asVpursue
p3398
(lp3399
S'pursue-01'
p3400
asVsettle
p3401
(lp3402
S'settle-01'
p3403
aS'settle-02'
p3404
aS'settle-03'
p3405
aS'settle-04'
p3406
aS'settle-05'
p3407
asVgrimace
p3408
(lp3409
S'grimace-01'
p3410
asVburgeon
p3411
(lp3412
S'burgeon-01'
p3413
asVskewer
p3414
(lp3415
S'skewer-01'
p3416
asVdetusk
p3417
(lp3418
S'detusk-01'
p3419
asVround
p3420
(lp3421
S'round-03'
p3422
aS'round-04'
p3423
asVshave
p3424
(lp3425
S'shave-01'
p3426
asVgasify
p3427
(lp3428
S'gasify-01'
p3429
asVbrave
p3430
(lp3431
S'brave-01'
p3432
asVregret
p3433
(lp3434
S'regret-01'
p3435
asVofficiate
p3436
(lp3437
S'officiate-01'
p3438
asVpeek
p3439
(lp3440
S'peek-01'
p3441
asVsigh
p3442
(lp3443
S'sigh-01'
p3444
aS'sigh-02'
p3445
asVdiscover
p3446
(lp3447
S'discover-01'
p3448
asVagitate
p3449
(lp3450
S'agitate-01'
p3451
asVcosh
p3452
(lp3453
S'cosh-01'
p3454
asVcost
p3455
(lp3456
S'cost-01'
p3457
asVstupefy
p3458
(lp3459
S'stupefy-01'
p3460
asVsubsist
p3461
(lp3462
S'subsist-01'
p3463
asVbake
p3464
(lp3465
S'bake-01'
p3466
asVfear
p3467
(lp3468
S'fear-01'
p3469
asVsubstitute
p3470
(lp3471
S'substitute-01'
p3472
asVeducate
p3473
(lp3474
S'educate-01'
p3475
asVcurse
p3476
(lp3477
S'curse-01'
p3478
asVappear
p3479
(lp3480
S'appear-01'
p3481
aS'appear-02'
p3482
asVconvulse
p3483
(lp3484
S'convulse-01'
p3485
asVfillet
p3486
(lp3487
S'fillet-01'
p3488
asVtarmac
p3489
(lp3490
S'tarmac-01'
p3491
asVreunite
p3492
(lp3493
S'reunite-01'
p3494
asVsuspect
p3495
(lp3496
S'suspect-01'
p3497
asVelucidate
p3498
(lp3499
S'elucidate-01'
p3500
asVreply
p3501
(lp3502
S'reply-01'
p3503
asVappeal
p3504
(lp3505
S'appeal-03'
p3506
asVboost
p3507
(lp3508
S'boost-01'
p3509
asVmeld
p3510
(lp3511
S'meld-01'
p3512
asVsatisfy
p3513
(lp3514
S'satisfy-01'
p3515
asVpose
p3516
(lp3517
S'pose-01'
p3518
aS'pose-02'
p3519
asVshuttle
p3520
(lp3521
S'shuttle-01'
p3522
asVclerk
p3523
(lp3524
S'clerk-01'
p3525
asVshelve
p3526
(lp3527
S'shelve-01'
p3528
asVdisillusion
p3529
(lp3530
S'disillusion-01'
p3531
asVgawk
p3532
(lp3533
S'gawk-01'
p3534
asVblackmail
p3535
(lp3536
S'blackmail-01'
p3537
asVwater
p3538
(lp3539
S'water-01'
p3540
asVderib
p3541
(lp3542
S'derib-01'
p3543
asVdewax
p3544
(lp3545
S'dewax-01'
p3546
asVentertain
p3547
(lp3548
S'entertain-01'
p3549
asVseparate
p3550
(lp3551
S'separate-01'
p3552
asVaddress
p3553
(lp3554
S'address-01'
p3555
asVgorge
p3556
(lp3557
S'gorge-01'
p3558
asVstem
p3559
(lp3560
S'stem-01'
p3561
asVchange
p3562
(lp3563
S'change-01'
p3564
aS'change-02'
p3565
asVwait
p3566
(lp3567
S'wait-01'
p3568
asVbox
p3569
(lp3570
S'box-01'
p3571
aS'box-02'
p3572
aS'box-03'
p3573
asVbuck
p3574
(lp3575
S'buck-01'
p3576
asVenroll
p3577
(lp3578
S'enroll-01'
p3579
asVsleepwalk
p3580
(lp3581
S'sleepwalk-01'
p3582
asVtheorize
p3583
(lp3584
S'theorize-01'
p3585
asVboast
p3586
(lp3587
S'boast-01'
p3588
asVbop
p3589
(lp3590
S'bop-01'
p3591
asVsalvage
p3592
(lp3593
S'salvage-01'
p3594
asVcatnap
p3595
(lp3596
S'catnap-01'
p3597
asVbow
p3598
(lp3599
S'bow-01'
p3600
aS'bow-02'
p3601
aS'bow-06'
p3602
asVdetonate
p3603
(lp3604
S'detonate-01'
p3605
asVscavenge
p3606
(lp3607
S'scavenge-01'
p3608
asVmoralize
p3609
(lp3610
S'moralize-01'
p3611
asVdecouple
p3612
(lp3613
S'decouple-01'
p3614
asVbob
p3615
(lp3616
S'bob-01'
p3617
asVmassage
p3618
(lp3619
S'massage-01'
p3620
asVbolt
p3621
(lp3622
S'bolt-01'
p3623
aS'bolt-02'
p3624
asVemerge
p3625
(lp3626
S'emerge-01'
p3627
asVmachinate
p3628
(lp3629
S'machinate-01'
p3630
asVelect
p3631
(lp3632
S'elect-01'
p3633
asVraise
p3634
(lp3635
S'raise-01'
p3636
asVoverspread
p3637
(lp3638
S'overspread-01'
p3639
asVtweak
p3640
(lp3641
S'tweak-01'
p3642
asVprefer
p3643
(lp3644
S'prefer-01'
p3645
asVshark
p3646
(lp3647
S'shark-01'
p3648
asVbloody
p3649
(lp3650
S'bloody-01'
p3651
asVkayak
p3652
(lp3653
S'kayak-01'
p3654
asVabash
p3655
(lp3656
S'abash-01'
p3657
asVthrum
p3658
(lp3659
S'thrum-01'
p3660
aS'thrum-03'
p3661
asVsurmount
p3662
(lp3663
S'surmount-01'
p3664
asVossify
p3665
(lp3666
S'ossify-01'
p3667
asVpost
p3668
(lp3669
S'post-01'
p3670
asVabase
p3671
(lp3672
S'abase-01'
p3673
asVconcoct
p3674
(lp3675
S'concoct-01'
p3676
asVprove
p3677
(lp3678
S'prove-01'
p3679
asVcaptivate
p3680
(lp3681
S'captivate-01'
p3682
asVdangle
p3683
(lp3684
S'dangle-01'
p3685
asVvisit
p3686
(lp3687
S'visit-01'
p3688
asVperm
p3689
(lp3690
S'perm-01'
p3691
asVcoalesce
p3692
(lp3693
S'coalesce-01'
p3694
asVlive
p3695
(lp3696
S'live-01'
p3697
asVresubmit
p3698
(lp3699
S'resubmit-01'
p3700
asVsomersault
p3701
(lp3702
S'somersault-01'
p3703
asVsharpen
p3704
(lp3705
S'sharpen-01'
p3706
asVdismay
p3707
(lp3708
S'dismay-01'
p3709
asVentrance
p3710
(lp3711
S'entrance-01'
p3712
asVcremate
p3713
(lp3714
S'cremate-01'
p3715
asVclub
p3716
(lp3717
S'club-01'
p3718
asVcluck
p3719
(lp3720
S'cluck-01'
p3721
asVdeluster
p3722
(lp3723
S'deluster-01'
p3724
asVrefrain
p3725
(lp3726
S'refrain-01'
p3727
asVdrown
p3728
(lp3729
S'drown-02'
p3730
asVdegrade
p3731
(lp3732
S'degrade-01'
p3733
asVrobe
p3734
(lp3735
S'robe-01'
p3736
asVfly
p3737
(lp3738
S'fly-01'
p3739
asVdemolish
p3740
(lp3741
S'demolish-01'
p3742
asVbefuddle
p3743
(lp3744
S'befuddle-01'
p3745
asVcap
p3746
(lp3747
S'cap-01'
p3748
asVcaw
p3749
(lp3750
S'caw-01'
p3751
asVunburden
p3752
(lp3753
S'unburden-01'
p3754
asVimpel
p3755
(lp3756
S'impel-01'
p3757
asVmeow
p3758
(lp3759
S'meow-01'
p3760
asVsour
p3761
(lp3762
S'sour-01'
p3763
asVdissimilate
p3764
(lp3765
S'dissimilate-01'
p3766
asVdispossess
p3767
(lp3768
S'dispossess-01'
p3769
asVcab
p3770
(lp3771
S'cab-01'
p3772
asVarrive
p3773
(lp3774
S'arrive-01'
p3775
asVpickle
p3776
(lp3777
S'pickle-01'
p3778
asVstreak
p3779
(lp3780
S'streak-01'
p3781
asVclaim
p3782
(lp3783
S'claim-01'
p3784
asVwant
p3785
(lp3786
S'want-01'
p3787
asVfigure
p3788
(lp3789
S'figure-02'
p3790
aS'figure-03'
p3791
aS'figure-05'
p3792
asVprosecute
p3793
(lp3794
S'prosecute-01'
p3795
asVchir
p3796
(lp3797
S'chir-01'
p3798
asVchip
p3799
(lp3800
S'chip-01'
p3801
asVjunket
p3802
(lp3803
S'junket-01'
p3804
aS'junket-02'
p3805
asVembrocate
p3806
(lp3807
S'embrocate-01'
p3808
asVsheathe
p3809
(lp3810
S'sheathe-01'
p3811
asVparachute
p3812
(lp3813
S'parachute-01'
p3814
asVdisbelieve
p3815
(lp3816
S'disbelieve-01'
p3817
asVsurround
p3818
(lp3819
S'surround-01'
p3820
asVtopple
p3821
(lp3822
S'topple-01'
p3823
asVbirdnest
p3824
(lp3825
S'birdnest-01'
p3826
asVoccur
p3827
(lp3828
S'occur-01'
p3829
asVnormalize
p3830
(lp3831
S'normalize-01'
p3832
asVpurr
p3833
(lp3834
S'purr-02'
p3835
asVtraipse
p3836
(lp3837
S'traipse-01'
p3838
asVwinter
p3839
(lp3840
S'winter-01'
p3841
asVsavor
p3842
(lp3843
S'savor-01'
p3844
asVdress
p3845
(lp3846
S'dress-01'
p3847
aS'dress-02'
p3848
asVping
p3849
(lp3850
S'ping-01'
p3851
asVparch
p3852
(lp3853
S'parch-01'
p3854
asVpine
p3855
(lp3856
S'pine-01'
p3857
aS'pine-02'
p3858
asVlounge
p3859
(lp3860
S'lounge-01'
p3861
asVflank
p3862
(lp3863
S'flank-01'
p3864
asVtile
p3865
(lp3866
S'tile-01'
p3867
asVloathe
p3868
(lp3869
S'loathe-01'
p3870
asVstomp
p3871
(lp3872
S'stomp-01'
p3873
asVrecline
p3874
(lp3875
S'recline-01'
p3876
asVdeteriorate
p3877
(lp3878
S'deteriorate-01'
p3879
asVsuffer
p3880
(lp3881
S'suffer-01'
p3882
asVdive
p3883
(lp3884
S'dive-01'
p3885
asVfascinate
p3886
(lp3887
S'fascinate-01'
p3888
asVscoff
p3889
(lp3890
S'scoff-01'
p3891
asVbawl
p3892
(lp3893
S'bawl-01'
p3894
asVproduce
p3895
(lp3896
S'produce-01'
p3897
asVpave
p3898
(lp3899
S'pave-01'
p3900
asVdate
p3901
(lp3902
S'date-01'
p3903
aS'date-02'
p3904
asVinterconnect
p3905
(lp3906
S'interconnect-01'
p3907
asVcoagulate
p3908
(lp3909
S'coagulate-01'
p3910
asVflourish
p3911
(lp3912
S'flourish-01'
p3913
asVgrow
p3914
(lp3915
S'grow-01'
p3916
aS'grow-02'
p3917
aS'grow-03'
p3918
aS'grow-04'
p3919
asVrepeat
p3920
(lp3921
S'repeat-01'
p3922
asVfossilize
p3923
(lp3924
S'fossilize-01'
p3925
asVrelinquish
p3926
(lp3927
S'relinquish-01'
p3928
asVstress
p3929
(lp3930
S'stress-01'
p3931
aS'stress-02'
p3932
asVneck
p3933
(lp3934
S'neck-01'
p3935
asVcorrelate
p3936
(lp3937
S'correlate-01'
p3938
asVperambulate
p3939
(lp3940
S'perambulate-01'
p3941
asVamuse
p3942
(lp3943
S'amuse-01'
p3944
asVdisembowel
p3945
(lp3946
S'disembowel-01'
p3947
asVcascade
p3948
(lp3949
S'cascade-01'
p3950
asVswitch
p3951
(lp3952
S'switch-01'
p3953
aS'switch-02'
p3954
asVjail
p3955
(lp3956
S'jail-01'
p3957
asVdeposit
p3958
(lp3959
S'deposit-01'
p3960
asVdeceive
p3961
(lp3962
S'deceive-01'
p3963
asVunleash
p3964
(lp3965
S'unleash-01'
p3966
asVoffend
p3967
(lp3968
S'offend-01'
p3969
asVcrumple
p3970
(lp3971
S'crumple-01'
p3972
asVgesture
p3973
(lp3974
S'gesture-01'
p3975
asVrefund
p3976
(lp3977
S'refund-01'
p3978
asVtreble
p3979
(lp3980
S'treble-01'
p3981
asVthieve
p3982
(lp3983
S'thieve-01'
p3984
asVforfeit
p3985
(lp3986
S'forfeit-01'
p3987
asVblare
p3988
(lp3989
S'blare-01'
p3990
asVgoad
p3991
(lp3992
S'goad-01'
p3993
asVbrain
p3994
(lp3995
S'brain-01'
p3996
asVyearn
p3997
(lp3998
S'yearn-01'
p3999
asVrecoup
p4000
(lp4001
S'recoup-01'
p4002
asVogle
p4003
(lp4004
S'ogle-01'
p4005
asVhorrify
p4006
(lp4007
S'horrify-01'
p4008
asVequip
p4009
(lp4010
S'equip-01'
p4011
asVbraid
p4012
(lp4013
S'braid-01'
p4014
asVworship
p4015
(lp4016
S'worship-01'
p4017
asVsubmit
p4018
(lp4019
S'submit-01'
p4020
asVjig
p4021
(lp4022
S'jig-01'
p4023
asVderive
p4024
(lp4025
S'derive-01'
p4026
asVdisconnect
p4027
(lp4028
S'disconnect-01'
p4029
asVmonitor
p4030
(lp4031
S'monitor-01'
p4032
asVacknowledge
p4033
(lp4034
S'acknowledge-01'
p4035
asVmoisturize
p4036
(lp4037
S'moisturize-01'
p4038
asVsalivate
p4039
(lp4040
S'salivate-01'
p4041
asVstroll
p4042
(lp4043
S'stroll-01'
p4044
asVthump
p4045
(lp4046
S'thump-01'
p4047
aS'thump-02'
p4048
asVmaim
p4049
(lp4050
S'maim-01'
p4051
asVmail
p4052
(lp4053
S'mail-01'
p4054
asVinterrelate
p4055
(lp4056
S'interrelate-01'
p4057
asVfloat
p4058
(lp4059
S'float-01'
p4060
asVcling
p4061
(lp4062
S'cling-01'
p4063
aS'cling-02'
p4064
asVfling
p4065
(lp4066
S'fling-01'
p4067
asVnod
p4068
(lp4069
S'nod-01'
p4070
asVrake
p4071
(lp4072
S'rake-01'
p4073
asVshatter
p4074
(lp4075
S'shatter-01'
p4076
asVintroduce
p4077
(lp4078
S'introduce-01'
p4079
aS'introduce-02'
p4080
asVlunch
p4081
(lp4082
S'lunch-01'
p4083
asVconquer
p4084
(lp4085
S'conquer-01'
p4086
asVsmarten
p4087
(lp4088
S'smarten-01'
p4089
asVtitillate
p4090
(lp4091
S'titillate-01'
p4092
asVrecap
p4093
(lp4094
S'recap-01'
p4095
asVprick
p4096
(lp4097
S'prick-01'
p4098
asVoutweigh
p4099
(lp4100
S'outweigh-01'
p4101
asVdaub
p4102
(lp4103
S'daub-01'
p4104
asVexecute
p4105
(lp4106
S'execute-01'
p4107
asVplacate
p4108
(lp4109
S'placate-01'
p4110
asVname
p4111
(lp4112
S'name-01'
p4113
aS'name-02'
p4114
aS'name-03'
p4115
asVstabilize
p4116
(lp4117
S'stabilize-01'
p4118
asVslurp
p4119
(lp4120
S'slurp-01'
p4121
asVclutch
p4122
(lp4123
S'clutch-01'
p4124
aS'clutch-02'
p4125
asVreinscribe
p4126
(lp4127
S'reinscribe-01'
p4128
asVdrop
p4129
(lp4130
S'drop-01'
p4131
aS'drop-05'
p4132
asVdeify
p4133
(lp4134
S'deify-01'
p4135
asVpromulgate
p4136
(lp4137
S'promulgate-01'
p4138
asVvegetate
p4139
(lp4140
S'vegetate-01'
p4141
asVgamble
p4142
(lp4143
S'gamble-01'
p4144
asVrock
p4145
(lp4146
S'rock-01'
p4147
asVhijack
p4148
(lp4149
S'hijack-01'
p4150
asVquarter
p4151
(lp4152
S'quarter-01'
p4153
aS'quarter-03'
p4154
asVrevere
p4155
(lp4156
S'revere-01'
p4157
asVnick
p4158
(lp4159
S'nick-01'
p4160
aS'nick-02'
p4161
asVsquare
p4162
(lp4163
S'square-01'
p4164
asVretrieve
p4165
(lp4166
S'retrieve-01'
p4167
asVgape
p4168
(lp4169
S'gape-01'
p4170
asVgash
p4171
(lp4172
S'gash-01'
p4173
asVsprinkle
p4174
(lp4175
S'sprinkle-01'
p4176
aS'sprinkle-02'
p4177
asVunlock
p4178
(lp4179
S'unlock-01'
p4180
asVinvolve
p4181
(lp4182
S'involve-01'
p4183
asVsponsor
p4184
(lp4185
S'sponsor-01'
p4186
asVhappen
p4187
(lp4188
S'happen-01'
p4189
aS'happen-02'
p4190
asVwallpaper
p4191
(lp4192
S'wallpaper-01'
p4193
asVabdicate
p4194
(lp4195
S'abdicate-01'
p4196
asVtroll
p4197
(lp4198
S'troll-01'
p4199
asVaccomplish
p4200
(lp4201
S'accomplish-01'
p4202
asVconcur
p4203
(lp4204
S'concur-01'
p4205
asVstitch
p4206
(lp4207
S'stitch-01'
p4208
aS'stitch-02'
p4209
asVundulate
p4210
(lp4211
S'undulate-01'
p4212
asVthirst
p4213
(lp4214
S'thirst-01'
p4215
asVstumble
p4216
(lp4217
S'stumble-01'
p4218
asVincrease
p4219
(lp4220
S'increase-01'
p4221
asVextrapolate
p4222
(lp4223
S'extrapolate-01'
p4224
asVhallucinate
p4225
(lp4226
S'hallucinate-01'
p4227
asVintermix
p4228
(lp4229
S'intermix-01'
p4230
asVcollate
p4231
(lp4232
S'collate-01'
p4233
asVblubber
p4234
(lp4235
S'blubber-01'
p4236
asVdominate
p4237
(lp4238
S'dominate-01'
p4239
asVcorrect
p4240
(lp4241
S'correct-01'
p4242
asVsquish
p4243
(lp4244
S'squish-01'
p4245
aS'squish-02'
p4246
asVsmatter
p4247
(lp4248
S'smatter-01'
p4249
asVdumbfound
p4250
(lp4251
S'dumbfound-01'
p4252
asVscandalize
p4253
(lp4254
S'scandalize-01'
p4255
asVhull
p4256
(lp4257
S'hull-01'
p4258
asVcontain
p4259
(lp4260
S'contain-01'
p4261
asVrecede
p4262
(lp4263
S'recede-01'
p4264
asVcart
p4265
(lp4266
S'cart-01'
p4267
aS'cart-02'
p4268
asVsneak
p4269
(lp4270
S'sneak-01'
p4271
aS'sneak-02'
p4272
asVbaptize
p4273
(lp4274
S'baptize-02'
p4275
asVrebel
p4276
(lp4277
S'rebel-01'
p4278
asVhobble
p4279
(lp4280
S'hobble-01'
p4281
asVcough
p4282
(lp4283
S'cough-01'
p4284
aS'cough-02'
p4285
asVdelude
p4286
(lp4287
S'delude-01'
p4288
asVadvance
p4289
(lp4290
S'advance-01'
p4291
asVmiss
p4292
(lp4293
S'miss-01'
p4294
asVrecharge
p4295
(lp4296
S'recharge-01'
p4297
asVdewater
p4298
(lp4299
S'dewater-01'
p4300
asVimpose
p4301
(lp4302
S'impose-01'
p4303
asVhighjack
p4304
(lp4305
S'highjack-01'
p4306
asVinitiate
p4307
(lp4308
S'initiate-01'
p4309
asVcorrugate
p4310
(lp4311
S'corrugate-01'
p4312
asVplace
p4313
(lp4314
S'place-01'
p4315
asVquibble
p4316
(lp4317
S'quibble-01'
p4318
asVstuff
p4319
(lp4320
S'stuff-01'
p4321
asVturf
p4322
(lp4323
S'turf-01'
p4324
asVprofess
p4325
(lp4326
S'profess-01'
p4327
asVneglect
p4328
(lp4329
S'neglect-01'
p4330
asVexcommunicate
p4331
(lp4332
S'excommunicate-01'
p4333
asVfeign
p4334
(lp4335
S'feign-01'
p4336
asVsuspend
p4337
(lp4338
S'suspend-02'
p4339
asVwaver
p4340
(lp4341
S'waver-01'
p4342
asVcommercialize
p4343
(lp4344
S'commercialize-01'
p4345
asVpotter
p4346
(lp4347
S'potter-01'
p4348
asVdisburse
p4349
(lp4350
S'disburse-01'
p4351
asVreopen
p4352
(lp4353
S'reopen-01'
p4354
asVinsist
p4355
(lp4356
S'insist-01'
p4357
asVscollop
p4358
(lp4359
S'scollop-01'
p4360
aS'scollop-02'
p4361
asVlong
p4362
(lp4363
S'long-01'
p4364
asVsalaam
p4365
(lp4366
S'salaam-01'
p4367
asVcarry
p4368
(lp4369
S'carry-01'
p4370
aS'carry-02'
p4371
aS'carry-04'
p4372
asVrind
p4373
(lp4374
S'rind-01'
p4375
asVring
p4376
(lp4377
S'ring-01'
p4378
aS'ring-02'
p4379
asVintone
p4380
(lp4381
S'intone-01'
p4382
asVopen
p4383
(lp4384
S'open-01'
p4385
aS'open-02'
p4386
aS'open-03'
p4387
asVlanguish
p4388
(lp4389
S'languish-01'
p4390
asVimprecate
p4391
(lp4392
S'imprecate-01'
p4393
asVlampoon
p4394
(lp4395
S'lampoon-01'
p4396
asVbite
p4397
(lp4398
S'bite-01'
p4399
asVhaggle
p4400
(lp4401
S'haggle-01'
p4402
asVplank
p4403
(lp4404
S'plank-01'
p4405
aS'plank-02'
p4406
asVpurloin
p4407
(lp4408
S'purloin-01'
p4409
asVindicate
p4410
(lp4411
S'indicate-01'
p4412
asVmolder
p4413
(lp4414
S'molder-01'
p4415
asVdissipate
p4416
(lp4417
S'dissipate-01'
p4418
asVescort
p4419
(lp4420
S'escort-01'
p4421
asVconvene
p4422
(lp4423
S'convene-01'
p4424
asVdaunt
p4425
(lp4426
S'daunt-01'
p4427
asVhug
p4428
(lp4429
S'hug-01'
p4430
asVthaw
p4431
(lp4432
S'thaw-01'
p4433
asVcope
p4434
(lp4435
S'cope-01'
p4436
asVhum
p4437
(lp4438
S'hum-02'
p4439
asVshawl
p4440
(lp4441
S'shawl-01'
p4442
asVsnatch
p4443
(lp4444
S'snatch-01'
p4445
aS'snatch-02'
p4446
asVbroadcast
p4447
(lp4448
S'broadcast-01'
p4449
asVspar
p4450
(lp4451
S'spar-01'
p4452
asVdisabuse
p4453
(lp4454
S'disabuse-01'
p4455
asVpalpitate
p4456
(lp4457
S'palpitate-01'
p4458
asVcopy
p4459
(lp4460
S'copy-01'
p4461
aS'copy-02'
p4462
asVcleanse
p4463
(lp4464
S'cleanse-01'
p4465
asVcarbonize
p4466
(lp4467
S'carbonize-01'
p4468
asVdeafen
p4469
(lp4470
S'deafen-01'
p4471
asVbewitch
p4472
(lp4473
S'bewitch-01'
p4474
asVskirmish
p4475
(lp4476
S'skirmish-01'
p4477
asVaromatize
p4478
(lp4479
S'aromatize-01'
p4480
asVcower
p4481
(lp4482
S'cower-01'
p4483
asVrequire
p4484
(lp4485
S'require-01'
p4486
asVrecruit
p4487
(lp4488
S'recruit-01'
p4489
asVdistill
p4490
(lp4491
S'distill-01'
p4492
asVdefat
p4493
(lp4494
S'defat-01'
p4495
asVooze
p4496
(lp4497
S'ooze-01'
p4498
asVventure
p4499
(lp4500
S'venture-01'
p4501
aS'venture-02'
p4502
asVlaminate
p4503
(lp4504
S'laminate-01'
p4505
asVgobble
p4506
(lp4507
S'gobble-01'
p4508
aS'gobble-02'
p4509
aS'gobble-03'
p4510
asVextinguish
p4511
(lp4512
S'extinguish-01'
p4513
asVdecompose
p4514
(lp4515
S'decompose-01'
p4516
asVprospect
p4517
(lp4518
S'prospect-01'
p4519
asVlick
p4520
(lp4521
S'lick-01'
p4522
aS'lick-02'
p4523
asVcapsize
p4524
(lp4525
S'capsize-01'
p4526
asVrend
p4527
(lp4528
S'rend-01'
p4529
asVfroth
p4530
(lp4531
S'froth-01'
p4532
asVslay
p4533
(lp4534
S'slay-01'
p4535
asVretort
p4536
(lp4537
S'retort-01'
p4538
asVsag
p4539
(lp4540
S'sag-01'
p4541
asVslap
p4542
(lp4543
S'slap-01'
p4544
asVovernight
p4545
(lp4546
S'overnight-01'
p4547
asVdash
p4548
(lp4549
S'dash-01'
p4550
aS'dash-02'
p4551
aS'dash-03'
p4552
asVsay
p4553
(lp4554
S'say-01'
p4555
asVsizzle
p4556
(lp4557
S'sizzle-01'
p4558
asVrent
p4559
(lp4560
S'rent-01'
p4561
aS'rent-02'
p4562
asVsulk
p4563
(lp4564
S'sulk-01'
p4565
asVanger
p4566
(lp4567
S'anger-01'
p4568
asVmechanize
p4569
(lp4570
S'mechanize-01'
p4571
asVbreakfast
p4572
(lp4573
S'breakfast-01'
p4574
asVrecover
p4575
(lp4576
S'recover-02'
p4577
asVsaw
p4578
(lp4579
S'saw-03'
p4580
aS'saw-04'
p4581
asVperplex
p4582
(lp4583
S'perplex-01'
p4584
asVsquat
p4585
(lp4586
S'squat-01'
p4587
asVpirouette
p4588
(lp4589
S'pirouette-01'
p4590
asVwink
p4591
(lp4592
S'wink-01'
p4593
asVtranslate
p4594
(lp4595
S'translate-01'
p4596
asVknead
p4597
(lp4598
S'knead-01'
p4599
asVisolate
p4600
(lp4601
S'isolate-01'
p4602
asVclunk
p4603
(lp4604
S'clunk-01'
p4605
asVnote
p4606
(lp4607
S'note-01'
p4608
aS'note-02'
p4609
asVtake
p4610
(lp4611
S'take-01'
p4612
aS'take-03'
p4613
aS'take-04'
p4614
aS'take-10'
p4615
aS'take-09'
p4616
aS'take-21'
p4617
aS'take-12'
p4618
asVfracture
p4619
(lp4620
S'fracture-01'
p4621
asVtally
p4622
(lp4623
S'tally-01'
p4624
asVdestroy
p4625
(lp4626
S'destroy-01'
p4627
asVcoincide
p4628
(lp4629
S'coincide-01'
p4630
asVunfix
p4631
(lp4632
S'unfix-01'
p4633
asVblunt
p4634
(lp4635
S'blunt-01'
p4636
asVchannel
p4637
(lp4638
S'channel-01'
p4639
asVwrench
p4640
(lp4641
S'wrench-01'
p4642
aS'wrench-03'
p4643
asVurge
p4644
(lp4645
S'urge-01'
p4646
asVbegin
p4647
(lp4648
S'begin-01'
p4649
aS'begin-02'
p4650
asVbiff
p4651
(lp4652
S'biff-01'
p4653
asVembitter
p4654
(lp4655
S'embitter-01'
p4656
asVtrace
p4657
(lp4658
S'trace-01'
p4659
asVsledge
p4660
(lp4661
S'sledge-01'
p4662
asVprice
p4663
(lp4664
S'price-01'
p4665
aS'price-02'
p4666
asVcompress
p4667
(lp4668
S'compress-01'
p4669
asVevaporate
p4670
(lp4671
S'evaporate-01'
p4672
asVsurveil
p4673
(lp4674
S'surveil-01'
p4675
asVunclothe
p4676
(lp4677
S'unclothe-01'
p4678
asVassault
p4679
(lp4680
S'assault-01'
p4681
asVwire
p4682
(lp4683
S'wire-01'
p4684
aS'wire-02'
p4685
asVbillow
p4686
(lp4687
S'billow-01'
p4688
asVclatter
p4689
(lp4690
S'clatter-01'
p4691
asVknee
p4692
(lp4693
S'knee-01'
p4694
asVsaunter
p4695
(lp4696
S'saunter-01'
p4697
asVannul
p4698
(lp4699
S'annul-01'
p4700
asVsurmise
p4701
(lp4702
S'surmise-01'
p4703
asVenamel
p4704
(lp4705
S'enamel-01'
p4706
asVenergize
p4707
(lp4708
S'energize-01'
p4709
asVlollop
p4710
(lp4711
S'lollop-01'
p4712
asVaverage
p4713
(lp4714
S'average-01'
p4715
asVadopt
p4716
(lp4717
S'adopt-01'
p4718
asVsteady
p4719
(lp4720
S'steady-01'
p4721
asVdrive
p4722
(lp4723
S'drive-01'
p4724
aS'drive-02'
p4725
asVorder
p4726
(lp4727
S'order-01'
p4728
aS'order-02'
p4729
asVcalcify
p4730
(lp4731
S'calcify-01'
p4732
asVtweet
p4733
(lp4734
S'tweet-01'
p4735
asVscowl
p4736
(lp4737
S'scowl-01'
p4738
asVsalt
p4739
(lp4740
S'salt-01'
p4741
asVreview
p4742
(lp4743
S'review-01'
p4744
asVsibilate
p4745
(lp4746
S'sibilate-01'
p4747
asVdiaper
p4748
(lp4749
S'diaper-01'
p4750
asVintoxicate
p4751
(lp4752
S'intoxicate-01'
p4753
asVperch
p4754
(lp4755
S'perch-01'
p4756
asVforage
p4757
(lp4758
S'forage-01'
p4759
asVspritz
p4760
(lp4761
S'spritz-01'
p4762
asVshow
p4763
(lp4764
S'show-01'
p4765
aS'show-02'
p4766
aS'show-03'
p4767
asVcheat
p4768
(lp4769
S'cheat-01'
p4770
asVornament
p4771
(lp4772
S'ornament-01'
p4773
asVinfuriate
p4774
(lp4775
S'infuriate-01'
p4776
asVmince
p4777
(lp4778
S'mince-01'
p4779
aS'mince-02'
p4780
asVreheat
p4781
(lp4782
S'reheat-01'
p4783
asVelevate
p4784
(lp4785
S'elevate-01'
p4786
asVshoe
p4787
(lp4788
S'shoe-01'
p4789
asVhack
p4790
(lp4791
S'hack-01'
p4792
aS'hack-03'
p4793
aS'hack-02'
p4794
asVladle
p4795
(lp4796
S'ladle-01'
p4797
asVboggle
p4798
(lp4799
S'boggle-01'
p4800
asVline
p4801
(lp4802
S'line-01'
p4803
asVground
p4804
(lp4805
S'ground-01'
p4806
asVghost
p4807
(lp4808
S'ghost-01'
p4809
asVgnaw
p4810
(lp4811
S'gnaw-01'
p4812
aS'gnaw-02'
p4813
asVslop
p4814
(lp4815
S'slop-01'
p4816
asVdice
p4817
(lp4818
S'dice-01'
p4819
asVdesex
p4820
(lp4821
S'desex-01'
p4822
asVdevote
p4823
(lp4824
S'devote-01'
p4825
asVgull
p4826
(lp4827
S'gull-01'
p4828
asVcloak
p4829
(lp4830
S'cloak-01'
p4831
asVshimmer
p4832
(lp4833
S'shimmer-01'
p4834
asVshort
p4835
(lp4836
S'short-02'
p4837
asVgulp
p4838
(lp4839
S'gulp-01'
p4840
aS'gulp-02'
p4841
asVwoof
p4842
(lp4843
S'woof-01'
p4844
asVslog
p4845
(lp4846
S'slog-01'
p4847
asVblack
p4848
(lp4849
S'black-01'
p4850
asVsprout
p4851
(lp4852
S'sprout-01'
p4853
asVoutrage
p4854
(lp4855
S'outrage-01'
p4856
asVcrimp
p4857
(lp4858
S'crimp-01'
p4859
asVshrill
p4860
(lp4861
S'shrill-01'
p4862
asVdispute
p4863
(lp4864
S'dispute-01'
p4865
asVclank
p4866
(lp4867
S'clank-01'
p4868
asVensnare
p4869
(lp4870
S'ensnare-01'
p4871
asVget
p4872
(lp4873
S'get-01'
p4874
aS'get-03'
p4875
aS'get-04'
p4876
aS'get-05'
p4877
aS'get-13'
p4878
aS'get-17'
p4879
aS'get-15'
p4880
asVvary
p4881
(lp4882
S'vary-01'
p4883
asVlighten
p4884
(lp4885
S'lighten-01'
p4886
aS'lighten-02'
p4887
aS'lighten-03'
p4888
asVcounsel
p4889
(lp4890
S'counsel-01'
p4891
asVclang
p4892
(lp4893
S'clang-01'
p4894
asVfestoon
p4895
(lp4896
S'festoon-01'
p4897
asVtailor
p4898
(lp4899
S'tailor-01'
p4900
asVdye
p4901
(lp4902
S'dye-01'
p4903
asVwheeze
p4904
(lp4905
S'wheeze-01'
p4906
aS'wheeze-02'
p4907
asVgibber
p4908
(lp4909
S'gibber-01'
p4910
asVdrydock
p4911
(lp4912
S'drydock-01'
p4913
asVcelebrate
p4914
(lp4915
S'celebrate-01'
p4916
aS'celebrate-02'
p4917
asVyammer
p4918
(lp4919
S'yammer-01'
p4920
aS'yammer-02'
p4921
aS'yammer-03'
p4922
asVreveal
p4923
(lp4924
S'reveal-01'
p4925
asVbeseech
p4926
(lp4927
S'beseech-01'
p4928
asVdeprecate
p4929
(lp4930
S'deprecate-01'
p4931
asVassimilate
p4932
(lp4933
S'assimilate-01'
p4934
asVobliterate
p4935
(lp4936
S'obliterate-01'
p4937
asVborrow
p4938
(lp4939
S'borrow-01'
p4940
asVyield
p4941
(lp4942
S'yield-02'
p4943
asVpaper
p4944
(lp4945
S'paper-01'
p4946
asVprimp
p4947
(lp4948
S'primp-01'
p4949
asVdisparage
p4950
(lp4951
S'disparage-01'
p4952
asVpicnic
p4953
(lp4954
S'picnic-01'
p4955
asVburst
p4956
(lp4957
S'burst-01'
p4958
aS'burst-02'
p4959
asVzigzag
p4960
(lp4961
S'zigzag-01'
p4962
asVsear
p4963
(lp4964
S'sear-01'
p4965
asVwhitewash
p4966
(lp4967
S'whitewash-01'
p4968
aS'whitewash-02'
p4969
asVfixate
p4970
(lp4971
S'fixate-01'
p4972
asVprowl
p4973
(lp4974
S'prowl-01'
p4975
asVwelcome
p4976
(lp4977
S'welcome-01'
p4978
asVespy
p4979
(lp4980
S'espy-01'
p4981
asVseal
p4982
(lp4983
S'seal-01'
p4984
asVwesternize
p4985
(lp4986
S'westernize-01'
p4987
asVconcern
p4988
(lp4989
S'concern-01'
p4990
aS'concern-02'
p4991
asVdetect
p4992
(lp4993
S'detect-01'
p4994
asVemplace
p4995
(lp4996
S'emplace-01'
p4997
asVpomade
p4998
(lp4999
S'pomade-01'
p5000
asVincite
p5001
(lp5002
S'incite-01'
p5003
asVglaze
p5004
(lp5005
S'glaze-01'
p5006
aS'glaze-02'
p5007
asVwinkle
p5008
(lp5009
S'winkle-01'
p5010
asVlabel
p5011
(lp5012
S'label-01'
p5013
asVpump
p5014
(lp5015
S'pump-01'
p5016
asVyip
p5017
(lp5018
S'yip-01'
p5019
asVhiss
p5020
(lp5021
S'hiss-01'
p5022
asVmope
p5023
(lp5024
S'mope-01'
p5025
asVclench
p5026
(lp5027
S'clench-01'
p5028
asVsatiate
p5029
(lp5030
S'satiate-01'
p5031
asVnotice
p5032
(lp5033
S'notice-01'
p5034
asVstyle
p5035
(lp5036
S'style-01'
p5037
asVpluck
p5038
(lp5039
S'pluck-01'
p5040
asVblame
p5041
(lp5042
S'blame-01'
p5043
asVconcentrate
p5044
(lp5045
S'concentrate-01'
p5046
asVovercharge
p5047
(lp5048
S'overcharge-01'
p5049
asVbroil
p5050
(lp5051
S'broil-01'
p5052
asVhydrate
p5053
(lp5054
S'hydrate-01'
p5055
asVcomb
p5056
(lp5057
S'comb-01'
p5058
aS'comb-02'
p5059
asVcome
p5060
(lp5061
S'come-01'
p5062
aS'come-03'
p5063
aS'come-06'
p5064
aS'come-09'
p5065
aS'come-13'
p5066
aS'come-15'
p5067
asVfoxtrot
p5068
(lp5069
S'foxtrot-01'
p5070
asVquack
p5071
(lp5072
S'quack-01'
p5073
asVoust
p5074
(lp5075
S'oust-01'
p5076
asVcleave
p5077
(lp5078
S'cleave-01'
p5079
asVstun
p5080
(lp5081
S'stun-01'
p5082
asVglide
p5083
(lp5084
S'glide-01'
p5085
asVguffaw
p5086
(lp5087
S'guffaw-01'
p5088
asVtuck
p5089
(lp5090
S'tuck-01'
p5091
asVdedicate
p5092
(lp5093
S'dedicate-01'
p5094
asVcontract
p5095
(lp5096
S'contract-01'
p5097
aS'contract-02'
p5098
asVtour
p5099
(lp5100
S'tour-01'
p5101
asVtout
p5102
(lp5103
S'tout-01'
p5104
asVberry
p5105
(lp5106
S'berry-01'
p5107
asVremake
p5108
(lp5109
S'remake-01'
p5110
asVspare
p5111
(lp5112
S'spare-02'
p5113
asVdelete
p5114
(lp5115
S'delete-01'
p5116
asVcalumniate
p5117
(lp5118
S'calumniate-01'
p5119
asVevict
p5120
(lp5121
S'evict-01'
p5122
asVriddle
p5123
(lp5124
S'riddle-01'
p5125
asVtrim
p5126
(lp5127
S'trim-01'
p5128
aS'trim-03'
p5129
asVsulfurize
p5130
(lp5131
S'sulfurize-01'
p5132
asVwreathe
p5133
(lp5134
S'wreathe-01'
p5135
asVcolor
p5136
(lp5137
S'color-01'
p5138
asVeternalize
p5139
(lp5140
S'eternalize-01'
p5141
asVpot
p5142
(lp5143
S'pot-01'
p5144
asVstrangulate
p5145
(lp5146
S'strangulate-01'
p5147
asVdispatch
p5148
(lp5149
S'dispatch-01'
p5150
asVexploit
p5151
(lp5152
S'exploit-01'
p5153
asVsteepen
p5154
(lp5155
S'steepen-01'
p5156
asVguesstimate
p5157
(lp5158
S'guesstimate-01'
p5159
asVcrew
p5160
(lp5161
S'crew-01'
p5162
asVafricanize
p5163
(lp5164
S'africanize-01'
p5165
asVspark
p5166
(lp5167
S'spark-01'
p5168
asVboat
p5169
(lp5170
S'boat-01'
p5171
asVseason
p5172
(lp5173
S'season-01'
p5174
asVintrude
p5175
(lp5176
S'intrude-01'
p5177
asVresort
p5178
(lp5179
S'resort-01'
p5180
asVstretch
p5181
(lp5182
S'stretch-01'
p5183
asVwobble
p5184
(lp5185
S'wobble-01'
p5186
asVinvert
p5187
(lp5188
S'invert-01'
p5189
asVcertify
p5190
(lp5191
S'certify-01'
p5192
asVvacation
p5193
(lp5194
S'vacation-01'
p5195
asVconcede
p5196
(lp5197
S'concede-03'
p5198
asVmark
p5199
(lp5200
S'mark-01'
p5201
aS'mark-02'
p5202
asVhelicopter
p5203
(lp5204
S'helicopter-01'
p5205
asVtug
p5206
(lp5207
S'tug-01'
p5208
aS'tug-02'
p5209
aS'tug-03'
p5210
asVumpire
p5211
(lp5212
S'umpire-01'
p5213
asVasphyxiate
p5214
(lp5215
S'asphyxiate-01'
p5216
asVwhisk
p5217
(lp5218
S'whisk-01'
p5219
asVexasperate
p5220
(lp5221
S'exasperate-01'
p5222
asVreimburse
p5223
(lp5224
S'reimburse-01'
p5225
asVcatholicize
p5226
(lp5227
S'catholicize-01'
p5228
asVpadlock
p5229
(lp5230
S'padlock-01'
p5231
asVobserve
p5232
(lp5233
S'observe-01'
p5234
aS'observe-02'
p5235
asVwake
p5236
(lp5237
S'wake-01'
p5238
asVinundate
p5239
(lp5240
S'inundate-01'
p5241
asVdribble
p5242
(lp5243
S'dribble-01'
p5244
asVpilot
p5245
(lp5246
S'pilot-01'
p5247
asVcase
p5248
(lp5249
S'case-01'
p5250
asVchar
p5251
(lp5252
S'char-01'
p5253
asVcrumb
p5254
(lp5255
S'crumb-01'
p5256
aS'crumb-02'
p5257
asVinvigorate
p5258
(lp5259
S'invigorate-01'
p5260
asVsauce
p5261
(lp5262
S'sauce-01'
p5263
asVmount
p5264
(lp5265
S'mount-02'
p5266
aS'mount-03'
p5267
asVcash
p5268
(lp5269
S'cash-01'
p5270
asVcompile
p5271
(lp5272
S'compile-01'
p5273
asVcast
p5274
(lp5275
S'cast-01'
p5276
aS'cast-02'
p5277
aS'cast-03'
p5278
asVshear
p5279
(lp5280
S'shear-01'
p5281
asVshingle
p5282
(lp5283
S'shingle-01'
p5284
asVseethe
p5285
(lp5286
S'seethe-01'
p5287
asVmound
p5288
(lp5289
S'mound-01'
p5290
asVcock
p5291
(lp5292
S'cock-01'
p5293
asVscrawk
p5294
(lp5295
S'scrawk-01'
p5296
asVbathe
p5297
(lp5298
S'bathe-01'
p5299
asVforce
p5300
(lp5301
S'force-01'
p5302
asVindurate
p5303
(lp5304
S'indurate-01'
p5305
asVcanoe
p5306
(lp5307
S'canoe-01'
p5308
asVsoil
p5309
(lp5310
S'soil-01'
p5311
asVcontrive
p5312
(lp5313
S'contrive-02'
p5314
asVblat
p5315
(lp5316
S'blat-01'
p5317
asVoverbake
p5318
(lp5319
S'overbake-01'
p5320
asVcluster
p5321
(lp5322
S'cluster-01'
p5323
asVbias
p5324
(lp5325
S'bias-01'
p5326
asVclutter
p5327
(lp5328
S'clutter-01'
p5329
asVroil
p5330
(lp5331
S'roil-01'
p5332
asVblab
p5333
(lp5334
S'blab-01'
p5335
asVworry
p5336
(lp5337
S'worry-01'
p5338
aS'worry-02'
p5339
asVride
p5340
(lp5341
S'ride-01'
p5342
asVdevelop
p5343
(lp5344
S'develop-01'
p5345
aS'develop-02'
p5346
asVmisunderstand
p5347
(lp5348
S'misunderstand-01'
p5349
asVdoctor
p5350
(lp5351
S'doctor-01'
p5352
asVinquire
p5353
(lp5354
S'inquire-01'
p5355
asVpay
p5356
(lp5357
S'pay-01'
p5358
asVlave
p5359
(lp5360
S'lave-01'
p5361
asVpester
p5362
(lp5363
S'pester-01'
p5364
asVbowl
p5365
(lp5366
S'bowl-01'
p5367
aS'bowl-02'
p5368
asVreanimate
p5369
(lp5370
S'reanimate-01'
p5371
asVarchive
p5372
(lp5373
S'archive-01'
p5374
asVpad
p5375
(lp5376
S'pad-01'
p5377
asVunderestimate
p5378
(lp5379
S'underestimate-01'
p5380
asVdocument
p5381
(lp5382
S'document-01'
p5383
asVunionize
p5384
(lp5385
S'unionize-01'
p5386
asVnuzzle
p5387
(lp5388
S'nuzzle-01'
p5389
asVexhaust
p5390
(lp5391
S'exhaust-01'
p5392
asVfinish
p5393
(lp5394
S'finish-01'
p5395
asVunlace
p5396
(lp5397
S'unlace-01'
p5398
asVapplaud
p5399
(lp5400
S'applaud-01'
p5401
asVfoal
p5402
(lp5403
S'foal-01'
p5404
asVassist
p5405
(lp5406
S'assist-01'
p5407
asVmunch
p5408
(lp5409
S'munch-01'
p5410
asVcauterize
p5411
(lp5412
S'cauterize-01'
p5413
asVdeflate
p5414
(lp5415
S'deflate-01'
p5416
asVdecompress
p5417
(lp5418
S'decompress-01'
p5419
aS'decompress-02'
p5420
asVleer
p5421
(lp5422
S'leer-01'
p5423
asVweep
p5424
(lp5425
S'weep-01'
p5426
asVrecapture
p5427
(lp5428
S'recapture-01'
p5429
asVweave
p5430
(lp5431
S'weave-01'
p5432
aS'weave-02'
p5433
asVdrain
p5434
(lp5435
S'drain-01'
p5436
asVdesalinate
p5437
(lp5438
S'desalinate-01'
p5439
asVinspissate
p5440
(lp5441
S'inspissate-01'
p5442
asVclobber
p5443
(lp5444
S'clobber-01'
p5445
asVsolve
p5446
(lp5447
S'solve-01'
p5448
asVbottle
p5449
(lp5450
S'bottle-01'
p5451
aS'bottle-02'
p5452
asVmodel
p5453
(lp5454
S'model-01'
p5455
aS'model-02'
p5456
asVmodem
p5457
(lp5458
S'modem-01'
p5459
asVjustify
p5460
(lp5461
S'justify-01'
p5462
asVtaxi
p5463
(lp5464
S'taxi-01'
p5465
asVsummer
p5466
(lp5467
S'summer-01'
p5468
asVclog
p5469
(lp5470
S'clog-01'
p5471
aS'clog-02'
p5472
aS'clog-03'
p5473
asVroughen
p5474
(lp5475
S'roughen-01'
p5476
asVpoach
p5477
(lp5478
S'poach-01'
p5479
aS'poach-02'
p5480
asVfume
p5481
(lp5482
S'fume-01'
p5483
asVcompound
p5484
(lp5485
S'compound-01'
p5486
asVdisconcert
p5487
(lp5488
S'disconcert-01'
p5489
asVrest
p5490
(lp5491
S'rest-01'
p5492
asVamalgamate
p5493
(lp5494
S'amalgamate-01'
p5495
asVcease
p5496
(lp5497
S'cease-01'
p5498
asVdisperse
p5499
(lp5500
S'disperse-01'
p5501
asVtouch
p5502
(lp5503
S'touch-01'
p5504
aS'touch-04'
p5505
asVpolish
p5506
(lp5507
S'polish-01'
p5508
asVspeed
p5509
(lp5510
S'speed-01'
p5511
asVcloy
p5512
(lp5513
S'cloy-01'
p5514
asVblow
p5515
(lp5516
S'blow-01'
p5517
aS'blow-02'
p5518
aS'blow-04'
p5519
aS'blow-06'
p5520
asVblot
p5521
(lp5522
S'blot-01'
p5523
asVcoldcream
p5524
(lp5525
S'coldcream-01'
p5526
asVhint
p5527
(lp5528
S'hint-01'
p5529
asVnap
p5530
(lp5531
S'nap-01'
p5532
asVpile
p5533
(lp5534
S'pile-01'
p5535
asVeviscerate
p5536
(lp5537
S'eviscerate-01'
p5538
asVbackbite
p5539
(lp5540
S'backbite-01'
p5541
asVimpound
p5542
(lp5543
S'impound-01'
p5544
asVgrip
p5545
(lp5546
S'grip-01'
p5547
asVream
p5548
(lp5549
S'ream-01'
p5550
asVhover
p5551
(lp5552
S'hover-01'
p5553
asVexult
p5554
(lp5555
S'exult-01'
p5556
asVread
p5557
(lp5558
S'read-01'
p5559
asVrejoin
p5560
(lp5561
S'rejoin-01'
p5562
asVswig
p5563
(lp5564
S'swig-01'
p5565
asVmop
p5566
(lp5567
S'mop-01'
p5568
asVdiscontinue
p5569
(lp5570
S'discontinue-01'
p5571
asVstopper
p5572
(lp5573
S'stopper-01'
p5574
asVdart
p5575
(lp5576
S'dart-01'
p5577
aS'dart-02'
p5578
asVforge
p5579
(lp5580
S'forge-01'
p5581
aS'forge-02'
p5582
asVsnarl
p5583
(lp5584
S'snarl-01'
p5585
asVmoo
p5586
(lp5587
S'moo-01'
p5588
asVbandage
p5589
(lp5590
S'bandage-01'
p5591
aS'bandage-03'
p5592
asVvacuum
p5593
(lp5594
S'vacuum-01'
p5595
asVmob
p5596
(lp5597
S'mob-02'
p5598
asVsnare
p5599
(lp5600
S'snare-01'
p5601
asVreap
p5602
(lp5603
S'reap-01'
p5604
asVdare
p5605
(lp5606
S'dare-01'
p5607
asVsecularize
p5608
(lp5609
S'secularize-01'
p5610
asVclam
p5611
(lp5612
S'clam-01'
p5613
asVsnore
p5614
(lp5615
S'snore-01'
p5616
asVterrorize
p5617
(lp5618
S'terrorize-01'
p5619
asVwiggle
p5620
(lp5621
S'wiggle-01'
p5622
aS'wiggle-02'
p5623
asVexpunge
p5624
(lp5625
S'expunge-01'
p5626
asVsmell
p5627
(lp5628
S'smell-01'
p5629
aS'smell-02'
p5630
asVclad
p5631
(lp5632
S'clad-01'
p5633
asVlightning
p5634
(lp5635
S'lightning-01'
p5636
asVengross
p5637
(lp5638
S'engross-01'
p5639
asVinterleave
p5640
(lp5641
S'interleave-01'
p5642
asVblackberry
p5643
(lp5644
S'blackberry-01'
p5645
asVimmolate
p5646
(lp5647
S'immolate-01'
p5648
asVclay
p5649
(lp5650
S'clay-01'
p5651
asVnosh
p5652
(lp5653
S'nosh-01'
p5654
asVclaw
p5655
(lp5656
S'claw-02'
p5657
asVtower
p5658
(lp5659
S'tower-01'
p5660
asVkennel
p5661
(lp5662
S'kennel-01'
p5663
asVclap
p5664
(lp5665
S'clap-01'
p5666
asVobstruct
p5667
(lp5668
S'obstruct-01'
p5669
asVweight
p5670
(lp5671
S'weight-01'
p5672
asVdeduct
p5673
(lp5674
S'deduct-01'
p5675
asVoutnumber
p5676
(lp5677
S'outnumber-01'
p5678
asVafflict
p5679
(lp5680
S'afflict-01'
p5681
asVdoll
p5682
(lp5683
S'doll-01'
p5684
aS'doll-02'
p5685
asVsplash
p5686
(lp5687
S'splash-01'
p5688
asVcommandeer
p5689
(lp5690
S'commandeer-01'
p5691
asVascend
p5692
(lp5693
S'ascend-01'
p5694
asVchuck
p5695
(lp5696
S'chuck-01'
p5697
asVdeduce
p5698
(lp5699
S'deduce-01'
p5700
asVerase
p5701
(lp5702
S'erase-01'
p5703
asVreplay
p5704
(lp5705
S'replay-01'
p5706
asVrefresh
p5707
(lp5708
S'refresh-01'
p5709
asVrespect
p5710
(lp5711
S'respect-01'
p5712
asVpasture
p5713
(lp5714
S'pasture-01'
p5715
asVpod
p5716
(lp5717
S'pod-01'
p5718
asVbonk
p5719
(lp5720
S'bonk-01'
p5721
asVslice
p5722
(lp5723
S'slice-01'
p5724
aS'slice-02'
p5725
asVsling
p5726
(lp5727
S'sling-01'
p5728
asVtote
p5729
(lp5730
S'tote-01'
p5731
asVconfirm
p5732
(lp5733
S'confirm-01'
p5734
asVstutter
p5735
(lp5736
S'stutter-01'
p5737
asVputter
p5738
(lp5739
S'putter-01'
p5740
asVjiggle
p5741
(lp5742
S'jiggle-01'
p5743
asVmoon
p5744
(lp5745
S'moon-01'
p5746
asVpioneer
p5747
(lp5748
S'pioneer-01'
p5749
asVmoor
p5750
(lp5751
S'moor-01'
p5752
asVexit
p5753
(lp5754
S'exit-01'
p5755
asVinject
p5756
(lp5757
S'inject-01'
p5758
asVgladden
p5759
(lp5760
S'gladden-01'
p5761
asVsquirt
p5762
(lp5763
S'squirt-01'
p5764
asVmoderate
p5765
(lp5766
S'moderate-01'
p5767
asVsituate
p5768
(lp5769
S'situate-01'
p5770
asVknife
p5771
(lp5772
S'knife-01'
p5773
asVrefer
p5774
(lp5775
S'refer-02'
p5776
asVsquabble
p5777
(lp5778
S'squabble-01'
p5779
asVzest
p5780
(lp5781
S'zest-01'
p5782
asVintimate
p5783
(lp5784
S'intimate-01'
p5785
asVthrob
p5786
(lp5787
S'throb-01'
p5788
asVbreastfeed
p5789
(lp5790
S'breastfeed-01'
p5791
asVinspect
p5792
(lp5793
S'inspect-01'
p5794
asVcommunicate
p5795
(lp5796
S'communicate-01'
p5797
asVslaughter
p5798
(lp5799
S'slaughter-01'
p5800
asVsquall
p5801
(lp5802
S'squall-01'
p5803
asVassemble
p5804
(lp5805
S'assemble-01'
p5806
aS'assemble-02'
p5807
asVprattle
p5808
(lp5809
S'prattle-01'
p5810
asVthrow
p5811
(lp5812
S'throw-01'
p5813
aS'throw-05'
p5814
asVtread
p5815
(lp5816
S'tread-01'
p5817
asVemasculate
p5818
(lp5819
S'emasculate-01'
p5820
asVgiggle
p5821
(lp5822
S'giggle-01'
p5823
asVstone
p5824
(lp5825
S'stone-01'
p5826
aS'stone-02'
p5827
asVinflame
p5828
(lp5829
S'inflame-01'
p5830
asVjeep
p5831
(lp5832
S'jeep-01'
p5833
asVsmear
p5834
(lp5835
S'smear-01'
p5836
asVjeer
p5837
(lp5838
S'jeer-01'
p5839
asVshrimp
p5840
(lp5841
S'shrimp-01'
p5842
asVchop
p5843
(lp5844
S'chop-01'
p5845
aS'chop-02'
p5846
aS'chop-03'
p5847
asVwolf
p5848
(lp5849
S'wolf-01'
p5850
asVsolidify
p5851
(lp5852
S'solidify-01'
p5853
asVequalize
p5854
(lp5855
S'equalize-01'
p5856
asVact
p5857
(lp5858
S'act-01'
p5859
asVdoze
p5860
(lp5861
S'doze-01'
p5862
aS'doze-02'
p5863
asVmean
p5864
(lp5865
S'mean-01'
p5866
asVrebuild
p5867
(lp5868
S'rebuild-01'
p5869
asVclamp
p5870
(lp5871
S'clamp-01'
p5872
asVimpregnate
p5873
(lp5874
S'impregnate-01'
p5875
asVprohibit
p5876
(lp5877
S'prohibit-01'
p5878
asVtrot
p5879
(lp5880
S'trot-01'
p5881
asVquaver
p5882
(lp5883
S'quaver-01'
p5884
asVgarb
p5885
(lp5886
S'garb-01'
p5887
asVannotate
p5888
(lp5889
S'annotate-01'
p5890
asVmacerate
p5891
(lp5892
S'macerate-01'
p5893
asVharness
p5894
(lp5895
S'harness-01'
p5896
asVwhiten
p5897
(lp5898
S'whiten-01'
p5899
asVdetermine
p5900
(lp5901
S'determine-01'
p5902
asVstrip
p5903
(lp5904
S'strip-01'
p5905
aS'strip-02'
p5906
asVwade
p5907
(lp5908
S'wade-01'
p5909
asVlob
p5910
(lp5911
S'lob-01'
p5912
asVhew
p5913
(lp5914
S'hew-01'
p5915
asVvaporize
p5916
(lp5917
S'vaporize-01'
p5918
asVlog
p5919
(lp5920
S'log-03'
p5921
asVprepare
p5922
(lp5923
S'prepare-01'
p5924
aS'prepare-02'
p5925
asVgleam
p5926
(lp5927
S'gleam-01'
p5928
asVglean
p5929
(lp5930
S'glean-01'
p5931
asVmadden
p5932
(lp5933
S'madden-01'
p5934
asVstart
p5935
(lp5936
S'start-01'
p5937
aS'start-02'
p5938
asVlop
p5939
(lp5940
S'lop-01'
p5941
asVgaze
p5942
(lp5943
S'gaze-01'
p5944
asVlow
p5945
(lp5946
S'low-01'
p5947
asVgalvanize
p5948
(lp5949
S'galvanize-01'
p5950
asVoutmatch
p5951
(lp5952
S'outmatch-01'
p5953
asVmollify
p5954
(lp5955
S'mollify-01'
p5956
asVcondone
p5957
(lp5958
S'condone-01'
p5959
asVbubble
p5960
(lp5961
S'bubble-01'
p5962
asVleach
p5963
(lp5964
S'leach-01'
p5965
asVgibe
p5966
(lp5967
S'gibe-01'
p5968
asVcomplete
p5969
(lp5970
S'complete-01'
p5971
asVgroan
p5972
(lp5973
S'groan-01'
p5974
asVgarrotte
p5975
(lp5976
S'garrotte-01'
p5977
asVwinnow
p5978
(lp5979
S'winnow-01'
p5980
asVdefrost
p5981
(lp5982
S'defrost-01'
p5983
asVregard
p5984
(lp5985
S'regard-01'
p5986
asVshroud
p5987
(lp5988
S'shroud-01'
p5989
asVhiccup
p5990
(lp5991
S'hiccup-01'
p5992
asVpasteurize
p5993
(lp5994
S'pasteurize-01'
p5995
asVjut
p5996
(lp5997
S'jut-01'
p5998
aS'jut-02'
p5999
asVwhinny
p6000
(lp6001
S'whinny-01'
p6002
asVpromote
p6003
(lp6004
S'promote-02'
p6005
asVemancipate
p6006
(lp6007
S'emancipate-01'
p6008
asVamplify
p6009
(lp6010
S'amplify-01'
p6011
asVpull
p6012
(lp6013
S'pull-01'
p6014
aS'pull-02'
p6015
asVabduct
p6016
(lp6017
S'abduct-01'
p6018
asVdarken
p6019
(lp6020
S'darken-01'
p6021
asVannihilate
p6022
(lp6023
S'annihilate-01'
p6024
asVskedaddle
p6025
(lp6026
S'skedaddle-01'
p6027
asVrage
p6028
(lp6029
S'rage-01'
p6030
aS'rage-02'
p6031
asVfabricate
p6032
(lp6033
S'fabricate-01'
p6034
asVattenuate
p6035
(lp6036
S'attenuate-01'
p6037
asVwrinkle
p6038
(lp6039
S'wrinkle-01'
p6040
asVincise
p6041
(lp6042
S'incise-01'
p6043
asVflirt
p6044
(lp6045
S'flirt-01'
p6046
asVfaze
p6047
(lp6048
S'faze-01'
p6049
asVdirty
p6050
(lp6051
S'dirty-01'
p6052
asVeschew
p6053
(lp6054
S'eschew-01'
p6055
asVgrasp
p6056
(lp6057
S'grasp-01'
p6058
asVembed
p6059
(lp6060
S'embed-01'
p6061
asVgrass
p6062
(lp6063
S'grass-01'
p6064
asVagree
p6065
(lp6066
S'agree-01'
p6067
asVrust
p6068
(lp6069
S'rust-01'
p6070
asVconnect
p6071
(lp6072
S'connect-01'
p6073
asVnaturalize
p6074
(lp6075
S'naturalize-01'
p6076
asVtaste
p6077
(lp6078
S'taste-01'
p6079
aS'taste-02'
p6080
asVfrighten
p6081
(lp6082
S'frighten-01'
p6083
aS'frighten-02'
p6084
aS'frighten-03'
p6085
asVlint
p6086
(lp6087
S'lint-01'
p6088
asVdescribe
p6089
(lp6090
S'describe-01'
p6091
asVexamine
p6092
(lp6093
S'examine-01'
p6094
asVdeem
p6095
(lp6096
S'deem-01'
p6097
asVunclasp
p6098
(lp6099
S'unclasp-01'
p6100
asVfile
p6101
(lp6102
S'file-01'
p6103
aS'file-02'
p6104
aS'file-03'
p6105
asVcreak
p6106
(lp6107
S'creak-01'
p6108
asVencompass
p6109
(lp6110
S'encompass-01'
p6111
asVtremble
p6112
(lp6113
S'tremble-01'
p6114
asVflock
p6115
(lp6116
S'flock-01'
p6117
aS'flock-02'
p6118
asVfilm
p6119
(lp6120
S'film-01'
p6121
asVcream
p6122
(lp6123
S'cream-01'
p6124
aS'cream-02'
p6125
asVwhir
p6126
(lp6127
S'whir-01'
p6128
asVcompel
p6129
(lp6130
S'compel-01'
p6131
asVabolish
p6132
(lp6133
S'abolish-01'
p6134
asVcommingle
p6135
(lp6136
S'commingle-01'
p6137
asVvictimize
p6138
(lp6139
S'victimize-01'
p6140
asVsully
p6141
(lp6142
S'sully-01'
p6143
asVproliferate
p6144
(lp6145
S'proliferate-01'
p6146
asVstandardize
p6147
(lp6148
S'standardize-01'
p6149
asVdemobilize
p6150
(lp6151
S'demobilize-01'
p6152
asVdepress
p6153
(lp6154
S'depress-01'
p6155
asVshelter
p6156
(lp6157
S'shelter-01'
p6158
asVtwinge
p6159
(lp6160
S'twinge-01'
p6161
asVbribe
p6162
(lp6163
S'bribe-01'
p6164
asVdrift
p6165
(lp6166
S'drift-01'
p6167
asVslant
p6168
(lp6169
S'slant-01'
p6170
asVdespoil
p6171
(lp6172
S'despoil-01'
p6173
asVdishonour
p6174
(lp6175
S'dishonour-01'
p6176
asVwarp
p6177
(lp6178
S'warp-01'
p6179
asVdemocratize
p6180
(lp6181
S'democratize-01'
p6182
asVsnitch
p6183
(lp6184
S'snitch-02'
p6185
asVtackle
p6186
(lp6187
S'tackle-01'
p6188
asVchristianize
p6189
(lp6190
S'christianize-01'
p6191
asVrevolve
p6192
(lp6193
S'revolve-01'
p6194
asVsneeze
p6195
(lp6196
S'sneeze-01'
p6197
asVpool
p6198
(lp6199
S'pool-01'
p6200
asVrecirculate
p6201
(lp6202
S'recirculate-01'
p6203
asVgrudge
p6204
(lp6205
S'grudge-01'
p6206
asVmenace
p6207
(lp6208
S'menace-01'
p6209
asVunload
p6210
(lp6211
S'unload-01'
p6212
aS'unload-02'
p6213
asVinvest
p6214
(lp6215
S'invest-01'
p6216
asVdefog
p6217
(lp6218
S'defog-01'
p6219
asVgroom
p6220
(lp6221
S'groom-01'
p6222
asVcurve
p6223
(lp6224
S'curve-01'
p6225
asVtelex
p6226
(lp6227
S'telex-01'
p6228
asVstultify
p6229
(lp6230
S'stultify-01'
p6231
asVmash
p6232
(lp6233
S'mash-01'
p6234
asVrepay
p6235
(lp6236
S'repay-01'
p6237
asVburrow
p6238
(lp6239
S'burrow-01'
p6240
asVfizzle
p6241
(lp6242
S'fizzle-01'
p6243
asVsatirize
p6244
(lp6245
S'satirize-01'
p6246
asVput
p6247
(lp6248
S'put-01'
p6249
asVstockpile
p6250
(lp6251
S'stockpile-01'
p6252
asVrepresent
p6253
(lp6254
S'represent-01'
p6255
asVconsider
p6256
(lp6257
S'consider-01'
p6258
aS'consider-02'
p6259
asVhybridize
p6260
(lp6261
S'hybridize-01'
p6262
asVdegas
p6263
(lp6264
S'degas-01'
p6265
asVbeware
p6266
(lp6267
S'beware-01'
p6268
asVtarry
p6269
(lp6270
S'tarry-01'
p6271
asVneigh
p6272
(lp6273
S'neigh-01'
p6274
asVimportune
p6275
(lp6276
S'importune-01'
p6277
asVpaddywhack
p6278
(lp6279
S'paddywhack-01'
p6280
asVzing
p6281
(lp6282
S'zing-01'
p6283
asVbequeath
p6284
(lp6285
S'bequeath-01'
p6286
asVantagonize
p6287
(lp6288
S'antagonize-01'
p6289
asVpunish
p6290
(lp6291
S'punish-01'
p6292
asVfollow
p6293
(lp6294
S'follow-01'
p6295
aS'follow-02'
p6296
asVloll
p6297
(lp6298
S'loll-01'
p6299
asVwash
p6300
(lp6301
S'wash-01'
p6302
asVtitter
p6303
(lp6304
S'titter-01'
p6305
asVcarpet
p6306
(lp6307
S'carpet-01'
p6308
asVglimpse
p6309
(lp6310
S'glimpse-01'
p6311
asVdepressurize
p6312
(lp6313
S'depressurize-01'
p6314
asVdisassociate
p6315
(lp6316
S'disassociate-01'
p6317
asVassuage
p6318
(lp6319
S'assuage-01'
p6320
asVredecorate
p6321
(lp6322
S'redecorate-01'
p6323
asVfederalize
p6324
(lp6325
S'federalize-01'
p6326
asVdiffuse
p6327
(lp6328
S'diffuse-01'
p6329
asVtail
p6330
(lp6331
S'tail-01'
p6332
asVtantalize
p6333
(lp6334
S'tantalize-01'
p6335
asVcrimson
p6336
(lp6337
S'crimson-01'
p6338
asVsmile
p6339
(lp6340
S'smile-01'
p6341
aS'smile-02'
p6342
asVvolunteer
p6343
(lp6344
S'volunteer-01'
p6345
asVsound
p6346
(lp6347
S'sound-01'
p6348
aS'sound-02'
p6349
asVfax
p6350
(lp6351
S'fax-01'
p6352
asVwad
p6353
(lp6354
S'wad-01'
p6355
asVinduce
p6356
(lp6357
S'induce-02'
p6358
asVradio
p6359
(lp6360
S'radio-01'
p6361
asVblockade
p6362
(lp6363
S'blockade-01'
p6364
asVretract
p6365
(lp6366
S'retract-01'
p6367
asVscour
p6368
(lp6369
S'scour-01'
p6370
aS'scour-02'
p6371
asVdecide
p6372
(lp6373
S'decide-01'
p6374
asVbleach
p6375
(lp6376
S'bleach-01'
p6377
asVticket
p6378
(lp6379
S'ticket-02'
p6380
asVwrangle
p6381
(lp6382
S'wrangle-01'
p6383
asVcondition
p6384
(lp6385
S'condition-01'
p6386
aS'condition-02'
p6387
asVdampen
p6388
(lp6389
S'dampen-01'
p6390
aS'dampen-02'
p6391
asVcable
p6392
(lp6393
S'cable-01'
p6394
aS'cable-02'
p6395
asVlisp
p6396
(lp6397
S'lisp-01'
p6398
asVcurdle
p6399
(lp6400
S'curdle-01'
p6401
asVlaud
p6402
(lp6403
S'laud-01'
p6404
asVwilt
p6405
(lp6406
S'wilt-01'
p6407
asVsand
p6408
(lp6409
S'sand-01'
p6410
asVadjust
p6411
(lp6412
S'adjust-01'
p6413
asVharry
p6414
(lp6415
S'harry-01'
p6416
asVconstellate
p6417
(lp6418
S'constellate-02'
p6419
asVremonstrate
p6420
(lp6421
S'remonstrate-02'
p6422
asVflick
p6423
(lp6424
S'flick-01'
p6425
aS'flick-02'
p6426
aS'flick-03'
p6427
asVfence
p6428
(lp6429
S'fence-01'
p6430
asVdefeather
p6431
(lp6432
S'defeather-01'
p6433
asVabridge
p6434
(lp6435
S'abridge-01'
p6436
asVyawn
p6437
(lp6438
S'yawn-01'
p6439
asVstigmatize
p6440
(lp6441
S'stigmatize-01'
p6442
asVreadapt
p6443
(lp6444
S'readapt-01'
p6445
asVstraighten
p6446
(lp6447
S'straighten-01'
p6448
asVrate
p6449
(lp6450
S'rate-01'
p6451
asVdesign
p6452
(lp6453
S'design-01'
p6454
asVvalue
p6455
(lp6456
S'value-01'
p6457
asVgossip
p6458
(lp6459
S'gossip-01'
p6460
asVcanvass
p6461
(lp6462
S'canvass-01'
p6463
asVfurther
p6464
(lp6465
S'further-01'
p6466
asVting
p6467
(lp6468
S'ting-01'
p6469
asVchuckle
p6470
(lp6471
S'chuckle-01'
p6472
aS'chuckle-02'
p6473
asVbully
p6474
(lp6475
S'bully-01'
p6476
asVtrick
p6477
(lp6478
S'trick-01'
p6479
asVruminate
p6480
(lp6481
S'ruminate-01'
p6482
asVtussle
p6483
(lp6484
S'tussle-01'
p6485
asVclock
p6486
(lp6487
S'clock-01'
p6488
asVtranspire
p6489
(lp6490
S'transpire-01'
p6491
asVrestore
p6492
(lp6493
S'restore-01'
p6494
asVresume
p6495
(lp6496
S'resume-01'
p6497
asVcrust
p6498
(lp6499
S'crust-01'
p6500
asVbrief
p6501
(lp6502
S'brief-01'
p6503
asVoverload
p6504
(lp6505
S'overload-01'
p6506
asVcrush
p6507
(lp6508
S'crush-01'
p6509
asVtauten
p6510
(lp6511
S'tauten-01'
p6512
asVintersect
p6513
(lp6514
S'intersect-01'
p6515
asVsup
p6516
(lp6517
S'sup-01'
p6518
asVnurse
p6519
(lp6520
S'nurse-01'
p6521
asVentwine
p6522
(lp6523
S'entwine-01'
p6524
asVcontrast
p6525
(lp6526
S'contrast-01'
p6527
asVlacquer
p6528
(lp6529
S'lacquer-01'
p6530
asVtwang
p6531
(lp6532
S'twang-02'
p6533
aS'twang-04'
p6534
asVdisorganize
p6535
(lp6536
S'disorganize-01'
p6537
asVeventuate
p6538
(lp6539
S'eventuate-01'
p6540
asVwill
p6541
(lp6542
S'will-01'
p6543
asVoverawe
p6544
(lp6545
S'overawe-01'
p6546
asVsearch
p6547
(lp6548
S'search-01'
p6549
asVmisinterpret
p6550
(lp6551
S'misinterpret-01'
p6552
asVluxuriate
p6553
(lp6554
S'luxuriate-01'
p6555
asVwhine
p6556
(lp6557
S'whine-01'
p6558
asVreason
p6559
(lp6560
S'reason-01'
p6561
asVexperience
p6562
(lp6563
S'experience-01'
p6564
asVsculpture
p6565
(lp6566
S'sculpture-01'
p6567
asVrissole
p6568
(lp6569
S'rissole-01'
p6570
asVdogsled
p6571
(lp6572
S'dogsled-01'
p6573
asVskyrocket
p6574
(lp6575
S'skyrocket-01'
p6576
asVpick
p6577
(lp6578
S'pick-01'
p6579
aS'pick-10'
p6580
aS'pick-11'
p6581
asVsupplicate
p6582
(lp6583
S'supplicate-01'
p6584
asVnarrow
p6585
(lp6586
S'narrow-01'
p6587
asVfatten
p6588
(lp6589
S'fatten-01'
p6590
asVsmuggle
p6591
(lp6592
S'smuggle-01'
p6593
asVstruggle
p6594
(lp6595
S'struggle-01'
p6596
asVinvalidate
p6597
(lp6598
S'invalidate-01'
p6599
asVswoon
p6600
(lp6601
S'swoon-01'
p6602
aS'swoon-02'
p6603
asVdepart
p6604
(lp6605
S'depart-01'
p6606
asVplink
p6607
(lp6608
S'plink-01'
p6609
asVsuckle
p6610
(lp6611
S'suckle-01'
p6612
asVcaravan
p6613
(lp6614
S'caravan-01'
p6615
asVimpeach
p6616
(lp6617
S'impeach-01'
p6618
asVdesiccate
p6619
(lp6620
S'desiccate-01'
p6621
asVplonk
p6622
(lp6623
S'plonk-01'
p6624
asVsnub
p6625
(lp6626
S'snub-01'
p6627
asVsanction
p6628
(lp6629
S'sanction-01'
p6630
aS'sanction-02'
p6631
asVestablish
p6632
(lp6633
S'establish-01'
p6634
asVentrap
p6635
(lp6636
S'entrap-01'
p6637
asVselect
p6638
(lp6639
S'select-01'
p6640
asVpulverize
p6641
(lp6642
S'pulverize-01'
p6643
asVsuperimpose
p6644
(lp6645
S'superimpose-01'
p6646
asVeye
p6647
(lp6648
S'eye-01'
p6649
asVproceed
p6650
(lp6651
S'proceed-01'
p6652
asVdeject
p6653
(lp6654
S'deject-01'
p6655
asVenliven
p6656
(lp6657
S'enliven-01'
p6658
asVreproach
p6659
(lp6660
S'reproach-01'
p6661
asVfaint
p6662
(lp6663
S'faint-01'
p6664
asVwield
p6665
(lp6666
S'wield-01'
p6667
asVpuke
p6668
(lp6669
S'puke-01'
p6670
asVirritate
p6671
(lp6672
S'irritate-01'
p6673
asVgenerate
p6674
(lp6675
S'generate-01'
p6676
asVimplore
p6677
(lp6678
S'implore-01'
p6679
asVhandfeed
p6680
(lp6681
S'handfeed-01'
p6682
asVinlay
p6683
(lp6684
S'inlay-01'
p6685
asVcrepitate
p6686
(lp6687
S'crepitate-01'
p6688
asVraft
p6689
(lp6690
S'raft-01'
p6691
asVgarnish
p6692
(lp6693
S'garnish-01'
p6694
asVblaze
p6695
(lp6696
S'blaze-01'
p6697
asVteem
p6698
(lp6699
S'teem-01'
p6700
asVerode
p6701
(lp6702
S'erode-01'
p6703
asVflap
p6704
(lp6705
S'flap-01'
p6706
asVpurse
p6707
(lp6708
S'purse-01'
p6709
asVdeburr
p6710
(lp6711
S'deburr-01'
p6712
asVtelephone
p6713
(lp6714
S'telephone-01'
p6715
asVexcuse
p6716
(lp6717
S'excuse-01'
p6718
asVurbanize
p6719
(lp6720
S'urbanize-01'
p6721
asVstick
p6722
(lp6723
S'stick-01'
p6724
asVmellow
p6725
(lp6726
S'mellow-01'
p6727
asVhurry
p6728
(lp6729
S'hurry-01'
p6730
asVunhinge
p6731
(lp6732
S'unhinge-02'
p6733
asVgrill
p6734
(lp6735
S'grill-01'
p6736
asVberth
p6737
(lp6738
S'berth-01'
p6739
asVinclude
p6740
(lp6741
S'include-01'
p6742
asVapportion
p6743
(lp6744
S'apportion-01'
p6745
asVstrain
p6746
(lp6747
S'strain-01'
p6748
aS'strain-02'
p6749
asVrecall
p6750
(lp6751
S'recall-01'
p6752
asVchisel
p6753
(lp6754
S'chisel-01'
p6755
asVsplutter
p6756
(lp6757
S'splutter-01'
p6758
asVremain
p6759
(lp6760
S'remain-01'
p6761
asVlearn
p6762
(lp6763
S'learn-01'
p6764
asVabandon
p6765
(lp6766
S'abandon-01'
p6767
asVembrace
p6768
(lp6769
S'embrace-02'
p6770
asVgrope
p6771
(lp6772
S'grope-01'
p6773
asVswash
p6774
(lp6775
S'swash-01'
p6776
asVscramble
p6777
(lp6778
S'scramble-02'
p6779
aS'scramble-03'
p6780
asVstain
p6781
(lp6782
S'stain-01'
p6783
asVbivouac
p6784
(lp6785
S'bivouac-01'
p6786
asVtranscend
p6787
(lp6788
S'transcend-01'
p6789
asVcompare
p6790
(lp6791
S'compare-01'
p6792
asVprompt
p6793
(lp6794
S'prompt-02'
p6795
asVencircle
p6796
(lp6797
S'encircle-01'
p6798
asVconspire
p6799
(lp6800
S'conspire-01'
p6801
asVaccept
p6802
(lp6803
S'accept-01'
p6804
asVboycott
p6805
(lp6806
S'boycott-01'
p6807
asVcoerce
p6808
(lp6809
S'coerce-01'
p6810
asVunzip
p6811
(lp6812
S'unzip-01'
p6813
asVattain
p6814
(lp6815
S'attain-01'
p6816
asVarise
p6817
(lp6818
S'arise-01'
p6819
asVcultivate
p6820
(lp6821
S'cultivate-01'
p6822
asVscar
p6823
(lp6824
S'scar-01'
p6825
asVallege
p6826
(lp6827
S'allege-01'
p6828
asVcondemn
p6829
(lp6830
S'condemn-01'
p6831
asVdazzle
p6832
(lp6833
S'dazzle-01'
p6834
asVincubate
p6835
(lp6836
S'incubate-01'
p6837
asVcourt
p6838
(lp6839
S'court-01'
p6840
asVcomfort
p6841
(lp6842
S'comfort-01'
p6843
asVenlarge
p6844
(lp6845
S'enlarge-01'
p6846
asVcajole
p6847
(lp6848
S'cajole-01'
p6849
asVreject
p6850
(lp6851
S'reject-01'
p6852
asVoppose
p6853
(lp6854
S'oppose-01'
p6855
asVclink
p6856
(lp6857
S'clink-01'
p6858
asVstir
p6859
(lp6860
S'stir-01'
p6861
aS'stir-02'
p6862
aS'stir-03'
p6863
asVbleat
p6864
(lp6865
S'bleat-01'
p6866
asVplant
p6867
(lp6868
S'plant-01'
p6869
asVokay
p6870
(lp6871
S'okay-01'
p6872
asVanoint
p6873
(lp6874
S'anoint-01'
p6875
asVtattoo
p6876
(lp6877
S'tattoo-01'
p6878
asVblacken
p6879
(lp6880
S'blacken-01'
p6881
asVinterpose
p6882
(lp6883
S'interpose-02'
p6884
asVpreoccupy
p6885
(lp6886
S'preoccupy-01'
p6887
asVpolymerize
p6888
(lp6889
S'polymerize-01'
p6890
asVmoult
p6891
(lp6892
S'moult-01'
p6893
asVvolatilize
p6894
(lp6895
S'volatilize-01'
p6896
asVwarehouse
p6897
(lp6898
S'warehouse-01'
p6899
asVnumb
p6900
(lp6901
S'numb-01'
p6902
asVtrademark
p6903
(lp6904
S'trademark-01'
p6905
asVgasp
p6906
(lp6907
S'gasp-01'
p6908
aS'gasp-02'
p6909
asVbloom
p6910
(lp6911
S'bloom-01'
p6912
asVflutter
p6913
(lp6914
S'flutter-01'
p6915
asVmisapprehend
p6916
(lp6917
S'misapprehend-01'
p6918
asVreelect
p6919
(lp6920
S'reelect-01'
p6921
asVcriticize
p6922
(lp6923
S'criticize-01'
p6924
asVcoax
p6925
(lp6926
S'coax-01'
p6927
asVdeluge
p6928
(lp6929
S'deluge-01'
p6930
asVcoat
p6931
(lp6932
S'coat-01'
p6933
asVsiphon
p6934
(lp6935
S'siphon-01'
p6936
asVpaw
p6937
(lp6938
S'paw-01'
p6939
asVpucker
p6940
(lp6941
S'pucker-01'
p6942
aS'pucker-02'
p6943
asVdenude
p6944
(lp6945
S'denude-01'
p6946
asVspank
p6947
(lp6948
S'spank-01'
p6949
asVmislead
p6950
(lp6951
S'mislead-02'
p6952
asVcoal
p6953
(lp6954
S'coal-02'
p6955
asVgenuflect
p6956
(lp6957
S'genuflect-01'
p6958
asVdread
p6959
(lp6960
S'dread-01'
p6961
asVshade
p6962
(lp6963
S'shade-01'
p6964
asVretaliate
p6965
(lp6966
S'retaliate-01'
p6967
asVmourn
p6968
(lp6969
S'mourn-01'
p6970
asVdream
p6971
(lp6972
S'dream-01'
p6973
aS'dream-02'
p6974
aS'dream-03'
p6975
asVballoon
p6976
(lp6977
S'balloon-01'
p6978
aS'balloon-02'
p6979
asVtravel
p6980
(lp6981
S'travel-01'
p6982
asVfeed
p6983
(lp6984
S'feed-01'
p6985
asVsplay
p6986
(lp6987
S'splay-01'
p6988
asVhelp
p6989
(lp6990
S'help-01'
p6991
asVdisplease
p6992
(lp6993
S'displease-01'
p6994
asVparboil
p6995
(lp6996
S'parboil-01'
p6997
asVslouch
p6998
(lp6999
S'slouch-01'
p7000
asVtelevise
p7001
(lp7002
S'televise-01'
p7003
asVtrade
p7004
(lp7005
S'trade-01'
p7006
asVdawdle
p7007
(lp7008
S'dawdle-01'
p7009
asVflaunt
p7010
(lp7011
S'flaunt-01'
p7012
asVwangle
p7013
(lp7014
S'wangle-01'
p7015
asVwane
p7016
(lp7017
S'wane-01'
p7018
asVexpectorate
p7019
(lp7020
S'expectorate-01'
p7021
asVregister
p7022
(lp7023
S'register-01'
p7024
aS'register-02'
p7025
asVreseat
p7026
(lp7027
S'reseat-01'
p7028
asVfissure
p7029
(lp7030
S'fissure-101'
p7031
asVpray
p7032
(lp7033
S'pray-01'
p7034
asVcoarsen
p7035
(lp7036
S'coarsen-01'
p7037
asVconstitutionalize
p7038
(lp7039
S'constitutionalize-01'
p7040
asVastonish
p7041
(lp7042
S'astonish-01'
p7043
asVbraise
p7044
(lp7045
S'braise-01'
p7046
asVrelease
p7047
(lp7048
S'release-01'
p7049
asVsynthesize
p7050
(lp7051
S'synthesize-01'
p7052
asVteam
p7053
(lp7054
S'team-01'
p7055
aS'team-02'
p7056
asVflabbergast
p7057
(lp7058
S'flabbergast-01'
p7059
asValter
p7060
(lp7061
S'alter-01'
p7062
asVally
p7063
(lp7064
S'ally-01'
p7065
asVfool
p7066
(lp7067
S'fool-01'
p7068
asVstiffen
p7069
(lp7070
S'stiffen-01'
p7071
asVteeter
p7072
(lp7073
S'teeter-01'
p7074
asVreturn
p7075
(lp7076
S'return-01'
p7077
aS'return-02'
p7078
aS'return-03'
p7079
aS'return-04'
p7080
asVpropose
p7081
(lp7082
S'propose-01'
p7083
asVsoothe
p7084
(lp7085
S'soothe-01'
p7086
asVscud
p7087
(lp7088
S'scud-01'
p7089
asVinch
p7090
(lp7091
S'inch-01'
p7092
asVvomit
p7093
(lp7094
S'vomit-01'
p7095
asVrank
p7096
(lp7097
S'rank-01'
p7098
asVbelittle
p7099
(lp7100
S'belittle-01'
p7101
asVaccumulate
p7102
(lp7103
S'accumulate-01'
p7104
asVdetach
p7105
(lp7106
S'detach-01'
p7107
asVcomplain
p7108
(lp7109
S'complain-01'
p7110
asVrestrict
p7111
(lp7112
S'restrict-01'
p7113
asVhuddle
p7114
(lp7115
S'huddle-02'
p7116
asVrant
p7117
(lp7118
S'rant-01'
p7119
asVfanaticize
p7120
(lp7121
S'fanaticize-01'
p7122
asVsequester
p7123
(lp7124
S'sequester-01'
p7125
asVevade
p7126
(lp7127
S'evade-01'
p7128
asVbless
p7129
(lp7130
S'bless-01'
p7131
asVpreen
p7132
(lp7133
S'preen-01'
p7134
asVcircularize
p7135
(lp7136
S'circularize-01'
p7137
asVfound
p7138
(lp7139
S'found-01'
p7140
asVtelegraph
p7141
(lp7142
S'telegraph-01'
p7143
asVmarry
p7144
(lp7145
S'marry-01'
p7146
asVcontextualize
p7147
(lp7148
S'contextualize-01'
p7149
asVharm
p7150
(lp7151
S'harm-01'
p7152
asVtranscribe
p7153
(lp7154
S'transcribe-01'
p7155
asVtransform
p7156
(lp7157
S'transform-01'
p7158
asVformulate
p7159
(lp7160
S'formulate-01'
p7161
asVbuffet
p7162
(lp7163
S'buffet-01'
p7164
asVhouse
p7165
(lp7166
S'house-01'
p7167
asVfish
p7168
(lp7169
S'fish-01'
p7170
asVreduce
p7171
(lp7172
S'reduce-01'
p7173
asVpolice
p7174
(lp7175
S'police-01'
p7176
asVkneel
p7177
(lp7178
S'kneel-01'
p7179
asVoil
p7180
(lp7181
S'oil-01'
p7182
aS'oil-02'
p7183
asVderide
p7184
(lp7185
S'deride-01'
p7186
asVundertake
p7187
(lp7188
S'undertake-01'
p7189
asVdisembark
p7190
(lp7191
S'disembark-01'
p7192
asVripple
p7193
(lp7194
S'ripple-01'
p7195
asVfocalize
p7196
(lp7197
S'focalize-01'
p7198
asVheave
p7199
(lp7200
S'heave-01'
p7201
asVterrify
p7202
(lp7203
S'terrify-01'
p7204
asVflower
p7205
(lp7206
S'flower-01'
p7207
asVlipstick
p7208
(lp7209
S'lipstick-01'
p7210
asVjabber
p7211
(lp7212
S'jabber-01'
p7213
asVunnerve
p7214
(lp7215
S'unnerve-01'
p7216
asVdisquiet
p7217
(lp7218
S'disquiet-01'
p7219
asVtestify
p7220
(lp7221
S'testify-01'
p7222
asVpublish
p7223
(lp7224
S'publish-01'
p7225
asVadhere
p7226
(lp7227
S'adhere-01'
p7228
asVravage
p7229
(lp7230
S'ravage-01'
p7231
asVrifle
p7232
(lp7233
S'rifle-01'
p7234
asVprint
p7235
(lp7236
S'print-01'
p7237
asVissue
p7238
(lp7239
S'issue-01'
p7240
asVnest
p7241
(lp7242
S'nest-01'
p7243
asVsalute
p7244
(lp7245
S'salute-01'
p7246
asVunbuckle
p7247
(lp7248
S'unbuckle-01'
p7249
asVfoam
p7250
(lp7251
S'foam-01'
p7252
asVdisfigure
p7253
(lp7254
S'disfigure-01'
p7255
asVsilicify
p7256
(lp7257
S'silicify-01'
p7258
asVgut
p7259
(lp7260
S'gut-01'
p7261
asVforgive
p7262
(lp7263
S'forgive-01'
p7264
asVdetassel
p7265
(lp7266
S'detassel-01'
p7267
asVqualify
p7268
(lp7269
S'qualify-01'
p7270
aS'qualify-02'
p7271
asVbase
p7272
(lp7273
S'base-02'
p7274
asVmurmur
p7275
(lp7276
S'murmur-01'
p7277
asVimagine
p7278
(lp7279
S'imagine-01'
p7280
asVdehorn
p7281
(lp7282
S'dehorn-01'
p7283
asVteach
p7284
(lp7285
S'teach-01'
p7286
asVweed
p7287
(lp7288
S'weed-01'
p7289
asVpup
p7290
(lp7291
S'pup-01'
p7292
asVbask
p7293
(lp7294
S'bask-01'
p7295
asVbash
p7296
(lp7297
S'bash-01'
p7298
asVblister
p7299
(lp7300
S'blister-01'
p7301
asVexecrate
p7302
(lp7303
S'execrate-01'
p7304
asVthread
p7305
(lp7306
S'thread-01'
p7307
asVlaunch
p7308
(lp7309
S'launch-01'
p7310
asVdip
p7311
(lp7312
S'dip-01'
p7313
aS'dip-02'
p7314
asVstrut
p7315
(lp7316
S'strut-01'
p7317
asVomit
p7318
(lp7319
S'omit-01'
p7320
asVcurtsey
p7321
(lp7322
S'curtsey-01'
p7323
asVFedEx
p7324
(lp7325
S'FedEx-01'
p7326
asVpredate
p7327
(lp7328
S'predate-01'
p7329
asVsicken
p7330
(lp7331
S'sicken-01'
p7332
asVwither
p7333
(lp7334
S'wither-01'
p7335
asVconstringe
p7336
(lp7337
S'constringe-01'
p7338
asVblush
p7339
(lp7340
S'blush-01'
p7341
asVclump
p7342
(lp7343
S'clump-03'
p7344
asVassign
p7345
(lp7346
S'assign-01'
p7347
asVding
p7348
(lp7349
S'ding-01'
p7350
asVdissatisfy
p7351
(lp7352
S'dissatisfy-01'
p7353
asVdine
p7354
(lp7355
S'dine-01'
p7356
aS'dine-02'
p7357
asVperturb
p7358
(lp7359
S'perturb-01'
p7360
asVfeel
p7361
(lp7362
S'feel-01'
p7363
aS'feel-02'
p7364
aS'feel-03'
p7365
aS'feel-05'
p7366
asVrelate
p7367
(lp7368
S'relate-02'
p7369
asVnumber
p7370
(lp7371
S'number-01'
p7372
asVfancy
p7373
(lp7374
S'fancy-02'
p7375
asVrevive
p7376
(lp7377
S'revive-01'
p7378
asVrefashion
p7379
(lp7380
S'refashion-01'
p7381
asVpop
p7382
(lp7383
S'pop-01'
p7384
aS'pop-02'
p7385
asVplummet
p7386
(lp7387
S'plummet-01'
p7388
asVnotify
p7389
(lp7390
S'notify-01'
p7391
asVdong
p7392
(lp7393
S'dong-01'
p7394
asVstabb
p7395
(lp7396
S'stabb-01'
p7397
asVirrupt
p7398
(lp7399
S'irrupt-01'
p7400
asVwrest
p7401
(lp7402
S'wrest-01'
p7403
asVmist
p7404
(lp7405
S'mist-03'
p7406
asVglitter
p7407
(lp7408
S'glitter-01'
p7409
asVwhale
p7410
(lp7411
S'whale-01'
p7412
asVmoan
p7413
(lp7414
S'moan-01'
p7415
asVdiffer
p7416
(lp7417
S'differ-01'
p7418
aS'differ-02'
p7419
asVpicket
p7420
(lp7421
S'picket-01'
p7422
asVjet
p7423
(lp7424
S'jet-01'
p7425
asVostracize
p7426
(lp7427
S'ostracize-01'
p7428
asVblossom
p7429
(lp7430
S'blossom-01'
p7431
asVdivorce
p7432
(lp7433
S'divorce-01'
p7434
aS'divorce-02'
p7435
asVinteract
p7436
(lp7437
S'interact-01'
p7438
asVleash
p7439
(lp7440
S'leash-01'
p7441
asVconstruct
p7442
(lp7443
S'construct-01'
p7444
asVpaint
p7445
(lp7446
S'paint-01'
p7447
aS'paint-02'
p7448
aS'paint-03'
p7449
asVeddy
p7450
(lp7451
S'eddy-01'
p7452
asVstorm
p7453
(lp7454
S'storm-01'
p7455
asVsmoothen
p7456
(lp7457
S'smoothen-01'
p7458
asVaver
p7459
(lp7460
S'aver-01'
p7461
asVunbolt
p7462
(lp7463
S'unbolt-01'
p7464
asVscheme
p7465
(lp7466
S'scheme-01'
p7467
asVstore
p7468
(lp7469
S'store-01'
p7470
aS'store-02'
p7471
asVlease
p7472
(lp7473
S'lease-01'
p7474
aS'lease-02'
p7475
asVcatapult
p7476
(lp7477
S'catapult-01'
p7478
asVinsure
p7479
(lp7480
S'insure-01'
p7481
aS'insure-02'
p7482
asVtrawl
p7483
(lp7484
S'trawl-01'
p7485
asVgnash
p7486
(lp7487
S'gnash-01'
p7488
aS'gnash-02'
p7489
asVdiscombobulate
p7490
(lp7491
S'discombobulate-01'
p7492
asVpart
p7493
(lp7494
S'part-01'
p7495
asVdifferentiate
p7496
(lp7497
S'differentiate-01'
p7498
asVconsult
p7499
(lp7500
S'consult-01'
p7501
asVweld
p7502
(lp7503
S'weld-01'
p7504
asVbelieve
p7505
(lp7506
S'believe-01'
p7507
asVgrace
p7508
(lp7509
S'grace-01'
p7510
asVslipcover
p7511
(lp7512
S'slipcover-01'
p7513
asVapprentice
p7514
(lp7515
S'apprentice-01'
p7516
asVcommiserate
p7517
(lp7518
S'commiserate-01'
p7519
asVfold
p7520
(lp7521
S'fold-01'
p7522
aS'fold-02'
p7523
aS'fold-03'
p7524
asVprevent
p7525
(lp7526
S'prevent-01'
p7527
asVdouble
p7528
(lp7529
S'double-01'
p7530
asVtrudge
p7531
(lp7532
S'trudge-01'
p7533
asVvenerate
p7534
(lp7535
S'venerate-01'
p7536
asVslake
p7537
(lp7538
S'slake-01'
p7539
asVcuff
p7540
(lp7541
S'cuff-01'
p7542
asVbobsled
p7543
(lp7544
S'bobsled-01'
p7545
asVelaborate
p7546
(lp7547
S'elaborate-01'
p7548
asVlisten
p7549
(lp7550
S'listen-01'
p7551
asVdeclare
p7552
(lp7553
S'declare-01'
p7554
aS'declare-02'
p7555
asVamass
p7556
(lp7557
S'amass-01'
p7558
asVsilence
p7559
(lp7560
S'silence-01'
p7561
asVswerve
p7562
(lp7563
S'swerve-01'
p7564
asVpickpocket
p7565
(lp7566
S'pickpocket-01'
p7567
asVexert
p7568
(lp7569
S'exert-01'
p7570
asVstrengthen
p7571
(lp7572
S'strengthen-01'
p7573
asVwaft
p7574
(lp7575
S'waft-01'
p7576
asVcaress
p7577
(lp7578
S'caress-01'
p7579
asVgraffiti
p7580
(lp7581
S'graffiti-01'
p7582
asVengulf
p7583
(lp7584
S'engulf-01'
p7585
asVtwiddle
p7586
(lp7587
S'twiddle-01'
p7588
asVgall
p7589
(lp7590
S'gall-01'
p7591
asVslosh
p7592
(lp7593
S'slosh-01'
p7594
asVtrolley
p7595
(lp7596
S'trolley-01'
p7597
asVblanch
p7598
(lp7599
S'blanch-01'
p7600
aS'blanch-02'
p7601
asVlie
p7602
(lp7603
S'lie-01'
p7604
aS'lie-03'
p7605
asVshrivel
p7606
(lp7607
S'shrivel-01'
p7608
asVstink
p7609
(lp7610
S'stink-01'
p7611
asVtarnish
p7612
(lp7613
S'tarnish-01'
p7614
asVhenna
p7615
(lp7616
S'henna-01'
p7617
asVzipcode
p7618
(lp7619
S'zipcode-01'
p7620
asVdistemper
p7621
(lp7622
S'distemper-01'
p7623
asVport
p7624
(lp7625
S'port-01'
p7626
asVbuild
p7627
(lp7628
S'build-01'
p7629
asVthrottle
p7630
(lp7631
S'throttle-01'
p7632
asVtool
p7633
(lp7634
S'tool-01'
p7635
aS'tool-02'
p7636
aS'tool-03'
p7637
asVbuff
p7638
(lp7639
S'buff-01'
p7640
asVgill
p7641
(lp7642
S'gill-01'
p7643
asVplay
p7644
(lp7645
S'play-01'
p7646
asVhurtle
p7647
(lp7648
S'hurtle-01'
p7649
asValleviate
p7650
(lp7651
S'alleviate-01'
p7652
asVgild
p7653
(lp7654
S'gild-01'
p7655
asVquote
p7656
(lp7657
S'quote-01'
p7658
asVtwirl
p7659
(lp7660
S'twirl-01'
p7661
asVnasal
p7662
(lp7663
S'nasal-01'
p7664
asVchart
p7665
(lp7666
S'chart-01'
p7667
aS'chart-02'
p7668
asVpromenade
p7669
(lp7670
S'promenade-01'
p7671
asVplunder
p7672
(lp7673
S'plunder-01'
p7674
asVpoke
p7675
(lp7676
S'poke-01'
p7677
aS'poke-02'
p7678
asVbridle
p7679
(lp7680
S'bridle-01'
p7681
asVplan
p7682
(lp7683
S'plan-01'
p7684
asVtreasure
p7685
(lp7686
S'treasure-01'
p7687
asVfluctuate
p7688
(lp7689
S'fluctuate-01'
p7690
asVpublicize
p7691
(lp7692
S'publicize-01'
p7693
asVoyster
p7694
(lp7695
S'oyster-01'
p7696
asVsuck
p7697
(lp7698
S'suck-01'
p7699
asVreward
p7700
(lp7701
S'reward-01'
p7702
asVchronicle
p7703
(lp7704
S'chronicle-01'
p7705
asVprickle
p7706
(lp7707
S'prickle-01'
p7708
asVclear
p7709
(lp7710
S'clear-01'
p7711
asVsaturate
p7712
(lp7713
S'saturate-01'
p7714
asVcover
p7715
(lp7716
S'cover-02'
p7717
aS'cover-04'
p7718
asVinstitutionalize
p7719
(lp7720
S'institutionalize-01'
p7721
asVdesprout
p7722
(lp7723
S'desprout-01'
p7724
asVdevalue
p7725
(lp7726
S'devalue-01'
p7727
asVsuccor
p7728
(lp7729
S'succor-01'
p7730
asVclean
p7731
(lp7732
S'clean-01'
p7733
aS'clean-02'
p7734
aS'clean-03'
p7735
asVsquelch
p7736
(lp7737
S'squelch-01'
p7738
asVweigh
p7739
(lp7740
S'weigh-01'
p7741
asVreprobate
p7742
(lp7743
S'reprobate-01'
p7744
asVnotch
p7745
(lp7746
S'notch-01'
p7747
asVblend
p7748
(lp7749
S'blend-01'
p7750
asVredevelop
p7751
(lp7752
S'redevelop-01'
p7753
asVfidget
p7754
(lp7755
S'fidget-01'
p7756
asVdespise
p7757
(lp7758
S'despise-01'
p7759
asVthink
p7760
(lp7761
S'think-01'
p7762
asVbarter
p7763
(lp7764
S'barter-01'
p7765
asVexterminate
p7766
(lp7767
S'exterminate-01'
p7768
asVagonize
p7769
(lp7770
S'agonize-01'
p7771
asVflicker
p7772
(lp7773
S'flicker-01'
p7774
asVconverge
p7775
(lp7776
S'converge-01'
p7777
asVsop
p7778
(lp7779
S'sop-02'
p7780
asVcrayon
p7781
(lp7782
S'crayon-01'
p7783
asVmelt
p7784
(lp7785
S'melt-01'
p7786
asVrenegotiate
p7787
(lp7788
S'renegotiate-01'
p7789
asVfine
p7790
(lp7791
S'fine-01'
p7792
asVfind
p7793
(lp7794
S'find-01'
p7795
aS'find-02'
p7796
aS'find-03'
p7797
asVpeal
p7798
(lp7799
S'peal-01'
p7800
asVwriggle
p7801
(lp7802
S'wriggle-01'
p7803
asVaggravate
p7804
(lp7805
S'aggravate-01'
p7806
asVcopyright
p7807
(lp7808
S'copyright-01'
p7809
asVmineralize
p7810
(lp7811
S'mineralize-01'
p7812
asVhope
p7813
(lp7814
S'hope-01'
p7815
asVdestabilize
p7816
(lp7817
S'destabilize-01'
p7818
asVmosey
p7819
(lp7820
S'mosey-01'
p7821
asVlather
p7822
(lp7823
S'lather-01'
p7824
asVcircle
p7825
(lp7826
S'circle-02'
p7827
asVoscillate
p7828
(lp7829
S'oscillate-01'
p7830
asVshepherd
p7831
(lp7832
S'shepherd-01'
p7833
asVdevastate
p7834
(lp7835
S'devastate-01'
p7836
asVbabble
p7837
(lp7838
S'babble-01'
p7839
asVexpress
p7840
(lp7841
S'express-01'
p7842
aS'express-02'
p7843
asVobtain
p7844
(lp7845
S'obtain-01'
p7846
asVwhistle
p7847
(lp7848
S'whistle-01'
p7849
asVferret
p7850
(lp7851
S'ferret-01'
p7852
asVcheapen
p7853
(lp7854
S'cheapen-01'
p7855
asVbatter
p7856
(lp7857
S'batter-01'
p7858
asVgranulate
p7859
(lp7860
S'granulate-01'
p7861
asVcapacitate
p7862
(lp7863
S'capacitate-01'
p7864
asVfrock
p7865
(lp7866
S'frock-01'
p7867
asVreplenish
p7868
(lp7869
S'replenish-01'
p7870
asVintensify
p7871
(lp7872
S'intensify-01'
p7873
asVbanquet
p7874
(lp7875
S'banquet-01'
p7876
asVtarget
p7877
(lp7878
S'target-01'
p7879
asVmonogram
p7880
(lp7881
S'monogram-01'
p7882
asVimprint
p7883
(lp7884
S'imprint-01'
p7885
asVchasten
p7886
(lp7887
S'chasten-01'
p7888
asVcry
p7889
(lp7890
S'cry-01'
p7891
aS'cry-02'
p7892
aS'cry-03'
p7893
asVremove
p7894
(lp7895
S'remove-01'
p7896
asVperfume
p7897
(lp7898
S'perfume-01'
p7899
asVinvestigate
p7900
(lp7901
S'investigate-01'
p7902
asVnominate
p7903
(lp7904
S'nominate-01'
p7905
asVapostatize
p7906
(lp7907
S'apostatize-01'
p7908
asVobscure
p7909
(lp7910
S'obscure-01'
p7911
asVcringe
p7912
(lp7913
S'cringe-01'
p7914
asVacetify
p7915
(lp7916
S'acetify-01'
p7917
asVset
p7918
(lp7919
S'set-01'
p7920
aS'set-08'
p7921
aS'set-14'
p7922
aS'set-04'
p7923
aS'set-05'
p7924
aS'set-12'
p7925
aS'set-07'
p7926
asVstump
p7927
(lp7928
S'stump-01'
p7929
asVdump
p7930
(lp7931
S'dump-01'
p7932
asVoverwhelm
p7933
(lp7934
S'overwhelm-01'
p7935
asVjade
p7936
(lp7937
S'jade-01'
p7938
asVcrackle
p7939
(lp7940
S'crackle-01'
p7941
asVplough
p7942
(lp7943
S'plough-01'
p7944
asVsee
p7945
(lp7946
S'see-01'
p7947
asVarouse
p7948
(lp7949
S'arouse-01'
p7950
asVbare
p7951
(lp7952
S'bare-01'
p7953
asVclose
p7954
(lp7955
S'close-01'
p7956
aS'close-03'
p7957
asVbark
p7958
(lp7959
S'bark-01'
p7960
asVarm
p7961
(lp7962
S'arm-01'
p7963
asVshower
p7964
(lp7965
S'shower-01'
p7966
asVbifurcate
p7967
(lp7968
S'bifurcate-01'
p7969
asVvisualize
p7970
(lp7971
S'visualize-01'
p7972
asVmarinate
p7973
(lp7974
S'marinate-01'
p7975
asVblurt
p7976
(lp7977
S'blurt-01'
p7978
asVequivocate
p7979
(lp7980
S'equivocate-01'
p7981
asVwail
p7982
(lp7983
S'wail-01'
p7984
asVplease
p7985
(lp7986
S'please-01'
p7987
asVwoo
p7988
(lp7989
S'woo-01'
p7990
asVmotorize
p7991
(lp7992
S'motorize-01'
p7993
asVabrade
p7994
(lp7995
S'abrade-01'
p7996
asVdelouse
p7997
(lp7998
S'delouse-01'
p7999
asVdonate
p8000
(lp8001
S'donate-01'
p8002
asVcompliment
p8003
(lp8004
S'compliment-01'
p8005
asVconcatenate
p8006
(lp8007
S'concatenate-01'
p8008
asVrhapsodize
p8009
(lp8010
S'rhapsodize-01'
p8011
asVoxidize
p8012
(lp8013
S'oxidize-01'
p8014
asVsmite
p8015
(lp8016
S'smite-01'
p8017
asVrosin
p8018
(lp8019
S'rosin-01'
p8020
asVconjoin
p8021
(lp8022
S'conjoin-01'
p8023
asVsuppurate
p8024
(lp8025
S'suppurate-01'
p8026
asVoutfit
p8027
(lp8028
S'outfit-01'
p8029
asVspray
p8030
(lp8031
S'spray-01'
p8032
asVsamba
p8033
(lp8034
S'samba-01'
p8035
asVscuttle
p8036
(lp8037
S'scuttle-02'
p8038
asVaggrieve
p8039
(lp8040
S'aggrieve-01'
p8041
asVkindle
p8042
(lp8043
S'kindle-01'
p8044
asVscriptwrite
p8045
(lp8046
S'scriptwrite-01'
p8047
asVdally
p8048
(lp8049
S'dally-01'
p8050
asVbronze
p8051
(lp8052
S'bronze-01'
p8053
asVlast
p8054
(lp8055
S'last-01'
p8056
asVreverse
p8057
(lp8058
S'reverse-01'
p8059
asVlicense
p8060
(lp8061
S'license-01'
p8062
asVinterrogate
p8063
(lp8064
S'interrogate-01'
p8065
asVpace
p8066
(lp8067
S'pace-01'
p8068
asVdetest
p8069
(lp8070
S'detest-01'
p8071
asVbuzz
p8072
(lp8073
S'buzz-01'
p8074
aS'buzz-02'
p8075
asVlash
p8076
(lp8077
S'lash-01'
p8078
aS'lash-02'
p8079
asVvault
p8080
(lp8081
S'vault-01'
p8082
asVapprove
p8083
(lp8084
S'approve-01'
p8085
asVconfabulate
p8086
(lp8087
S'confabulate-01'
p8088
asVload
p8089
(lp8090
S'load-01'
p8091
asVloaf
p8092
(lp8093
S'loaf-01'
p8094
asVdistress
p8095
(lp8096
S'distress-01'
p8097
asVstudy
p8098
(lp8099
S'study-01'
p8100
asVpoint
p8101
(lp8102
S'point-01'
p8103
asVstraggle
p8104
(lp8105
S'straggle-01'
p8106
asVvoyage
p8107
(lp8108
S'voyage-01'
p8109
asVloan
p8110
(lp8111
S'loan-01'
p8112
asVwhelp
p8113
(lp8114
S'whelp-01'
p8115
asVsmother
p8116
(lp8117
S'smother-01'
p8118
asVwhelk
p8119
(lp8120
S'whelk-01'
p8121
asVscallop
p8122
(lp8123
S'scallop-01'
p8124
asVfashion
p8125
(lp8126
S'fashion-01'
p8127
asVtingle
p8128
(lp8129
S'tingle-01'
p8130
asVweasel
p8131
(lp8132
S'weasel-01'
p8133
asVrave
p8134
(lp8135
S'rave-01'
p8136
asVmumble
p8137
(lp8138
S'mumble-01'
p8139
asVcivilize
p8140
(lp8141
S'civilize-01'
p8142
asVbelt
p8143
(lp8144
S'belt-01'
p8145
aS'belt-02'
p8146
aS'belt-03'
p8147
aS'belt-05'
p8148
asVdecline
p8149
(lp8150
S'decline-01'
p8151
asVdefang
p8152
(lp8153
S'defang-01'
p8154
asVfructify
p8155
(lp8156
S'fructify-01'
p8157
asVstamp
p8158
(lp8159
S'stamp-01'
p8160
aS'stamp-02'
p8161
aS'stamp-04'
p8162
asVtalc
p8163
(lp8164
S'talc-01'
p8165
asVdub
p8166
(lp8167
S'dub-01'
p8168
asVappall
p8169
(lp8170
S'appall-01'
p8171
asVrattle
p8172
(lp8173
S'rattle-02'
p8174
asVdeworm
p8175
(lp8176
S'deworm-01'
p8177
asVdamn
p8178
(lp8179
S'damn-01'
p8180
asVthreaten
p8181
(lp8182
S'threaten-01'
p8183
asVbrick
p8184
(lp8185
S'brick-01'
p8186
asVempty
p8187
(lp8188
S'empty-01'
p8189
asVdeice
p8190
(lp8191
S'deice-01'
p8192
asVfirm
p8193
(lp8194
S'firm-01'
p8195
aS'firm-02'
p8196
asVram
p8197
(lp8198
S'ram-01'
p8199
asVchampion
p8200
(lp8201
S'champion-01'
p8202
asVhellenize
p8203
(lp8204
S'hellenize-01'
p8205
asVfire
p8206
(lp8207
S'fire-01'
p8208
aS'fire-02'
p8209
asVinfect
p8210
(lp8211
S'infect-01'
p8212
asVcrack
p8213
(lp8214
S'crack-01'
p8215
aS'crack-02'
p8216
aS'crack-05'
p8217
asVgas
p8218
(lp8219
S'gas-01'
p8220
aS'gas-02'
p8221
asVincinerate
p8222
(lp8223
S'incinerate-01'
p8224
asVdeter
p8225
(lp8226
S'deter-01'
p8227
asVrevile
p8228
(lp8229
S'revile-01'
p8230
asVawake
p8231
(lp8232
S'awake-01'
p8233
asVcinch
p8234
(lp8235
S'cinch-01'
p8236
aS'cinch-02'
p8237
asVdemand
p8238
(lp8239
S'demand-01'
p8240
asVgag
p8241
(lp8242
S'gag-01'
p8243
asVdeport
p8244
(lp8245
S'deport-01'
p8246
asVchatter
p8247
(lp8248
S'chatter-01'
p8249
asVgab
p8250
(lp8251
S'gab-01'
p8252
asVhobnob
p8253
(lp8254
S'hobnob-01'
p8255
asVfurrow
p8256
(lp8257
S'furrow-01'
p8258
asVsplice
p8259
(lp8260
S'splice-01'
p8261
asVpierce
p8262
(lp8263
S'pierce-01'
p8264
asVloom
p8265
(lp8266
S'loom-01'
p8267
asVunify
p8268
(lp8269
S'unify-01'
p8270
asVcuckoo
p8271
(lp8272
S'cuckoo-01'
p8273
aS'cuckoo-02'
p8274
asVbill
p8275
(lp8276
S'bill-01'
p8277
aS'bill-02'
p8278
asVbilk
p8279
(lp8280
S'bilk-01'
p8281
asVcorrode
p8282
(lp8283
S'corrode-01'
p8284
asVadmire
p8285
(lp8286
S'admire-01'
p8287
asVinstitute
p8288
(lp8289
S'institute-01'
p8290
asVtoughen
p8291
(lp8292
S'toughen-01'
p8293
asVmatch
p8294
(lp8295
S'match-01'
p8296
aS'match-02'
p8297
asVshift
p8298
(lp8299
S'shift-01'
p8300
asVputrefy
p8301
(lp8302
S'putrefy-01'
p8303
asVshake
p8304
(lp8305
S'shake-01'
p8306
asVguide
p8307
(lp8308
S'guide-01'
p8309
asVloop
p8310
(lp8311
S'loop-01'
p8312
asVpack
p8313
(lp8314
S'pack-01'
p8315
asVswim
p8316
(lp8317
S'swim-01'
p8318
aS'swim-02'
p8319
asVpound
p8320
(lp8321
S'pound-02'
p8322
aS'pound-03'
p8323
aS'pound-01'
p8324
asVastound
p8325
(lp8326
S'astound-01'
p8327
asVrip
p8328
(lp8329
S'rip-01'
p8330
asVconfound
p8331
(lp8332
S'confound-01'
p8333
asVcaramelize
p8334
(lp8335
S'caramelize-01'
p8336
asVrim
p8337
(lp8338
S'rim-01'
p8339
asVimpersonate
p8340
(lp8341
S'impersonate-01'
p8342
asVtriple
p8343
(lp8344
S'triple-01'
p8345
asVyowl
p8346
(lp8347
S'yowl-01'
p8348
asVtruncheon
p8349
(lp8350
S'truncheon-01'
p8351
asVenervate
p8352
(lp8353
S'enervate-01'
p8354
asVvanish
p8355
(lp8356
S'vanish-01'
p8357
asVanguish
p8358
(lp8359
S'anguish-01'
p8360
asVchase
p8361
(lp8362
S'chase-01'
p8363
asVchauffeur
p8364
(lp8365
S'chauffeur-01'
p8366
asVshirr
p8367
(lp8368
S'shirr-01'
p8369
asVingrain
p8370
(lp8371
S'ingrain-01'
p8372
asVgrant
p8373
(lp8374
S'grant-01'
p8375
asVseek
p8376
(lp8377
S'seek-01'
p8378
asVsojourn
p8379
(lp8380
S'sojourn-01'
p8381
asVshorten
p8382
(lp8383
S'shorten-01'
p8384
asVmesmerize
p8385
(lp8386
S'mesmerize-01'
p8387
asVbutcher
p8388
(lp8389
S'butcher-01'
p8390
asVglobetrot
p8391
(lp8392
S'globetrot-01'
p8393
asVbaste
p8394
(lp8395
S'baste-01'
p8396
aS'baste-03'
p8397
asVrepel
p8398
(lp8399
S'repel-01'
p8400
asVbristle
p8401
(lp8402
S'bristle-01'
p8403
asVsurvey
p8404
(lp8405
S'survey-01'
p8406
asVadvise
p8407
(lp8408
S'advise-01'
p8409
asVrevolt
p8410
(lp8411
S'revolt-02'
p8412
asVconflict
p8413
(lp8414
S'conflict-01'
p8415
asVsell
p8416
(lp8417
S'sell-01'
p8418
asVbestrew
p8419
(lp8420
S'bestrew-01'
p8421
asVitch
p8422
(lp8423
S'itch-01'
p8424
aS'itch-02'
p8425
asVmow
p8426
(lp8427
S'mow-01'
p8428
asVbanter
p8429
(lp8430
S'banter-01'
p8431
asVnegotiate
p8432
(lp8433
S'negotiate-01'
p8434
asVcensure
p8435
(lp8436
S'censure-01'
p8437
asValert
p8438
(lp8439
S'alert-01'
p8440
asVimpede
p8441
(lp8442
S'impede-01'
p8443
asVpurpose
p8444
(lp8445
S'purpose-01'
p8446
asVuncoil
p8447
(lp8448
S'uncoil-01'
p8449
asVbirch
p8450
(lp8451
S'birch-01'
p8452
asVaggregate
p8453
(lp8454
S'aggregate-01'
p8455
asVnickname
p8456
(lp8457
S'nickname-01'
p8458
asVimplement
p8459
(lp8460
S'implement-01'
p8461
asVlower
p8462
(lp8463
S'lower-01'
p8464
asVrearm
p8465
(lp8466
S'rearm-01'
p8467
asVgrind
p8468
(lp8469
S'grind-01'
p8470
asVcheep
p8471
(lp8472
S'cheep-01'
p8473
asVcheer
p8474
(lp8475
S'cheer-01'
p8476
asVedge
p8477
(lp8478
S'edge-03'
p8479
asVreflect
p8480
(lp8481
S'reflect-02'
p8482
asVreclaim
p8483
(lp8484
S'reclaim-01'
p8485
asVwithdraw
p8486
(lp8487
S'withdraw-01'
p8488
asVspend
p8489
(lp8490
S'spend-01'
p8491
aS'spend-02'
p8492
asVhowl
p8493
(lp8494
S'howl-01'
p8495
aS'howl-02'
p8496
aS'howl-03'
p8497
asVabstain
p8498
(lp8499
S'abstain-01'
p8500
asVpillory
p8501
(lp8502
S'pillory-01'
p8503
asVknot
p8504
(lp8505
S'knot-01'
p8506
asVshoo
p8507
(lp8508
S'shoo-01'
p8509
asVemblazon
p8510
(lp8511
S'emblazon-01'
p8512
asVfluoresce
p8513
(lp8514
S'fluoresce-01'
p8515
asVsalve
p8516
(lp8517
S'salve-01'
p8518
asVsnow
p8519
(lp8520
S'snow-01'
p8521
asVsegregate
p8522
(lp8523
S'segregate-01'
p8524
asVpress
p8525
(lp8526
S'press-01'
p8527
aS'press-02'
p8528
asVshape
p8529
(lp8530
S'shape-01'
p8531
asVcamouflage
p8532
(lp8533
S'camouflage-01'
p8534
asVtether
p8535
(lp8536
S'tether-01'
p8537
asVlove
p8538
(lp8539
S'love-01'
p8540
asVcollide
p8541
(lp8542
S'collide-01'
p8543
asVcut
p8544
(lp8545
S'cut-01'
p8546
aS'cut-09'
p8547
asVdisseminate
p8548
(lp8549
S'disseminate-01'
p8550
asValternate
p8551
(lp8552
S'alternate-01'
p8553
asVrepopulate
p8554
(lp8555
S'repopulate-01'
p8556
asVsource
p8557
(lp8558
S'source-01'
p8559
asVexhilarate
p8560
(lp8561
S'exhilarate-01'
p8562
asVcub
p8563
(lp8564
S'cub-01'
p8565
asVharmonize
p8566
(lp8567
S'harmonize-01'
p8568
asVreinstate
p8569
(lp8570
S'reinstate-01'
p8571
asVlimp
p8572
(lp8573
S'limp-01'
p8574
asVbin
p8575
(lp8576
S'bin-01'
p8577
asVshove
p8578
(lp8579
S'shove-01'
p8580
asVmarch
p8581
(lp8582
S'march-01'
p8583
aS'march-02'
p8584
asVsnort
p8585
(lp8586
S'snort-01'
p8587
asVevaluate
p8588
(lp8589
S'evaluate-01'
p8590
asVcouple
p8591
(lp8592
S'couple-01'
p8593
asVredeem
p8594
(lp8595
S'redeem-01'
p8596
asVjibe
p8597
(lp8598
S'jibe-01'
p8599
asVabound
p8600
(lp8601
S'abound-01'
p8602
asVhandpaint
p8603
(lp8604
S'handpaint-01'
p8605
asVbullock
p8606
(lp8607
S'bullock-01'
p8608
asVknock
p8609
(lp8610
S'knock-01'
p8611
aS'knock-04'
p8612
aS'knock-05'
p8613
asVrotate
p8614
(lp8615
S'rotate-01'
p8616
asVregain
p8617
(lp8618
S'regain-01'
p8619
asVmiff
p8620
(lp8621
S'miff-01'
p8622
asVconfront
p8623
(lp8624
S'confront-01'
p8625
asVsignal
p8626
(lp8627
S'signal-01'
p8628
asVstagnate
p8629
(lp8630
S'stagnate-01'
p8631
asVmanifest
p8632
(lp8633
S'manifest-01'
p8634
asVcollect
p8635
(lp8636
S'collect-01'
p8637
asVdistrust
p8638
(lp8639
S'distrust-01'
p8640
asVcontinue
p8641
(lp8642
S'continue-01'
p8643
asVeuropeanize
p8644
(lp8645
S'europeanize-01'
p8646
asVentice
p8647
(lp8648
S'entice-01'
p8649
asVsleigh
p8650
(lp8651
S'sleigh-01'
p8652
asVhoneycomb
p8653
(lp8654
S'honeycomb-01'
p8655
asVsequin
p8656
(lp8657
S'sequin-01'
p8658
asVcohabit
p8659
(lp8660
S'cohabit-01'
p8661
asVtransmute
p8662
(lp8663
S'transmute-01'
p8664
asVcentralize
p8665
(lp8666
S'centralize-01'
p8667
asVsketch
p8668
(lp8669
S'sketch-01'
p8670
asVunpeg
p8671
(lp8672
S'unpeg-01'
p8673
asVmortify
p8674
(lp8675
S'mortify-01'
p8676
asVundress
p8677
(lp8678
S'undress-01'
p8679
asVemanate
p8680
(lp8681
S'emanate-01'
p8682
asVspeculate
p8683
(lp8684
S'speculate-01'
p8685
asVincriminate
p8686
(lp8687
S'incriminate-01'
p8688
asVlitter
p8689
(lp8690
S'litter-01'
p8691
asVaccelerate
p8692
(lp8693
S'accelerate-01'
p8694
asVsight
p8695
(lp8696
S'sight-01'
p8697
asVinfest
p8698
(lp8699
S'infest-01'
p8700
asVvacate
p8701
(lp8702
S'vacate-01'
p8703
asVmodernize
p8704
(lp8705
S'modernize-01'
p8706
asVshutter
p8707
(lp8708
S'shutter-01'
p8709
asVscald
p8710
(lp8711
S'scald-01'
p8712
asVscale
p8713
(lp8714
S'scale-02'
p8715
asVbolshevize
p8716
(lp8717
S'bolshevize-01'
p8718
asVtwinkle
p8719
(lp8720
S'twinkle-01'
p8721
asVpelt
p8722
(lp8723
S'pelt-01'
p8724
asVreckon
p8725
(lp8726
S'reckon-01'
p8727
asVpen
p8728
(lp8729
S'pen-02'
p8730
asVbehave
p8731
(lp8732
S'behave-01'
p8733
asVeliminate
p8734
(lp8735
S'eliminate-01'
p8736
asVscalp
p8737
(lp8738
S'scalp-01'
p8739
asVlard
p8740
(lp8741
S'lard-01'
p8742
asVpee
p8743
(lp8744
S'pee-01'
p8745
asVosculate
p8746
(lp8747
S'osculate-01'
p8748
asVpeg
p8749
(lp8750
S'peg-01'
p8751
asVnose
p8752
(lp8753
S'nose-01'
p8754
asVdehydrate
p8755
(lp8756
S'dehydrate-01'
p8757
asVrun
p8758
(lp8759
S'run-02'
p8760
aS'run-04'
p8761
aS'run-07'
p8762
aS'run-08'
p8763
asVrub
p8764
(lp8765
S'rub-01'
p8766
asVreach
p8767
(lp8768
S'reach-01'
p8769
asVlose
p8770
(lp8771
S'lose-02'
p8772
aS'lose-06'
p8773
asVrue
p8774
(lp8775
S'rue-01'
p8776
asVstep
p8777
(lp8778
S'step-01'
p8779
asVhanddeliver
p8780
(lp8781
S'handdeliver-01'
p8782
asVtweeze
p8783
(lp8784
S'tweeze-01'
p8785
asVache
p8786
(lp8787
S'ache-01'
p8788
asVcarol
p8789
(lp8790
S'carol-01'
p8791
asVcarom
p8792
(lp8793
S'carom-01'
p8794
asVsubtract
p8795
(lp8796
S'subtract-01'
p8797
asVUPS
p8798
(lp8799
S'UPS-01'
p8800
asVrut
p8801
(lp8802
S'rut-01'
p8803
asVmistrust
p8804
(lp8805
S'mistrust-01'
p8806
asVshine
p8807
(lp8808
S'shine-01'
p8809
asVreact
p8810
(lp8811
S'react-01'
p8812
asVpronounce
p8813
(lp8814
S'pronounce-01'
p8815
asVrumble
p8816
(lp8817
S'rumble-01'
p8818
asVcoexist
p8819
(lp8820
S'coexist-01'
p8821
asVhinge
p8822
(lp8823
S'hinge-01'
p8824
asVrange
p8825
(lp8826
S'range-01'
p8827
asVmisspend
p8828
(lp8829
S'misspend-01'
p8830
asVcharm
p8831
(lp8832
S'charm-01'
p8833
asVbluster
p8834
(lp8835
S'bluster-01'
p8836
asValkalify
p8837
(lp8838
S'alkalify-01'
p8839
asVblock
p8840
(lp8841
S'block-01'
p8842
aS'block-02'
p8843
asVsnivel
p8844
(lp8845
S'snivel-01'
p8846
asVsniffle
p8847
(lp8848
S'sniffle-01'
p8849
asVquaff
p8850
(lp8851
S'quaff-01'
p8852
asVdepose
p8853
(lp8854
S'depose-01'
p8855
asVskulk
p8856
(lp8857
S'skulk-01'
p8858
asVrecreate
p8859
(lp8860
S'recreate-01'
p8861
asVradiate
p8862
(lp8863
S'radiate-01'
p8864
asVshed
p8865
(lp8866
S'shed-01'
p8867
aS'shed-03'
p8868
asVensue
p8869
(lp8870
S'ensue-01'
p8871
asVdegrease
p8872
(lp8873
S'degrease-01'
p8874
asVappropriate
p8875
(lp8876
S'appropriate-01'
p8877
asVclack
p8878
(lp8879
S'clack-01'
p8880
asVrisk
p8881
(lp8882
S'risk-01'
p8883
asVsashay
p8884
(lp8885
S'sashay-01'
p8886
asVgouge
p8887
(lp8888
S'gouge-01'
p8889
asVscrunch
p8890
(lp8891
S'scrunch-01'
p8892
asVspan
p8893
(lp8894
S'span-01'
p8895
asVdevolve
p8896
(lp8897
S'devolve-01'
p8898
asVacquiesce
p8899
(lp8900
S'acquiesce-01'
p8901
asVzig
p8902
(lp8903
S'zig-01'
p8904
asVdegerm
p8905
(lp8906
S'degerm-01'
p8907
asVquestion
p8908
(lp8909
S'question-01'
p8910
asVchide
p8911
(lp8912
S'chide-01'
p8913
asVoccupy
p8914
(lp8915
S'occupy-01'
p8916
asVdouse
p8917
(lp8918
S'douse-01'
p8919
asVforward
p8920
(lp8921
S'forward-01'
p8922
asVetch
p8923
(lp8924
S'etch-01'
p8925
asVanalyze
p8926
(lp8927
S'analyze-01'
p8928
asVspat
p8929
(lp8930
S'spat-01'
p8931
asVmanufacture
p8932
(lp8933
S'manufacture-01'
p8934
asVrummage
p8935
(lp8936
S'rummage-01'
p8937
asVwhimper
p8938
(lp8939
S'whimper-01'
p8940
asVplunge
p8941
(lp8942
S'plunge-01'
p8943
aS'plunge-02'
p8944
asVinvite
p8945
(lp8946
S'invite-01'
p8947
asVbore
p8948
(lp8949
S'bore-01'
p8950
aS'bore-02'
p8951
asVposter
p8952
(lp8953
S'poster-01'
p8954
asVfrost
p8955
(lp8956
S'frost-01'
p8957
aS'frost-02'
p8958
aS'frost-03'
p8959
asVslump
p8960
(lp8961
S'slump-01'
p8962
asVambulate
p8963
(lp8964
S'ambulate-01'
p8965
asVmanipulate
p8966
(lp8967
S'manipulate-02'
p8968
asVlink
p8969
(lp8970
S'link-01'
p8971
asVwager
p8972
(lp8973
S'wager-01'
p8974
asVcrane
p8975
(lp8976
S'crane-01'
p8977
asVreek
p8978
(lp8979
S'reek-01'
p8980
asVreel
p8981
(lp8982
S'reel-01'
p8983
asVdull
p8984
(lp8985
S'dull-01'
p8986
asVmystify
p8987
(lp8988
S'mystify-01'
p8989
asVdiscomfit
p8990
(lp8991
S'discomfit-01'
p8992
asVseize
p8993
(lp8994
S'seize-01'
p8995
asVnestle
p8996
(lp8997
S'nestle-01'
p8998
asVslander
p8999
(lp9000
S'slander-01'
p9001
asVredress
p9002
(lp9003
S'redress-01'
p9004
asVmature
p9005
(lp9006
S'mature-01'
p9007
asVhighlight
p9008
(lp9009
S'highlight-01'
p9010
asVgroove
p9011
(lp9012
S'groove-01'
p9013
aS'groove-02'
p9014
asVcovet
p9015
(lp9016
S'covet-01'
p9017
asVrepulse
p9018
(lp9019
S'repulse-01'
p9020
asVdehumidify
p9021
(lp9022
S'dehumidify-01'
p9023
asVflop
p9024
(lp9025
S'flop-01'
p9026
asVconfiscate
p9027
(lp9028
S'confiscate-01'
p9029
asVflow
p9030
(lp9031
S'flow-01'
p9032
asVinfluence
p9033
(lp9034
S'influence-01'
p9035
asVhaunt
p9036
(lp9037
S'haunt-01'
p9038
asVpackage
p9039
(lp9040
S'package-01'
p9041
asVdeprive
p9042
(lp9043
S'deprive-01'
p9044
asVcure
p9045
(lp9046
S'cure-01'
p9047
asVcurb
p9048
(lp9049
S'curb-01'
p9050
asVchat
p9051
(lp9052
S'chat-01'
p9053
asVcurl
p9054
(lp9055
S'curl-01'
p9056
asVprevail
p9057
(lp9058
S'prevail-02'
p9059
asVshipwreck
p9060
(lp9061
S'shipwreck-01'
p9062
aS'shipwreck-02'
p9063
asVnab
p9064
(lp9065
S'nab-01'
p9066
asVplumb
p9067
(lp9068
S'plumb-01'
p9069
asVscrape
p9070
(lp9071
S'scrape-01'
p9072
asVmistime
p9073
(lp9074
S'mistime-01'
p9075
asVforgo
p9076
(lp9077
S'forgo-01'
p9078
aS'forgo-02'
p9079
asVmuffle
p9080
(lp9081
S'muffle-01'
p9082
asVferment
p9083
(lp9084
S'ferment-01'
p9085
asVassassinate
p9086
(lp9087
S'assassinate-01'
p9088
asVconfine
p9089
(lp9090
S'confine-01'
p9091
asVdeviate
p9092
(lp9093
S'deviate-01'
p9094
asVmock
p9095
(lp9096
S'mock-01'
p9097
asVdraw
p9098
(lp9099
S'draw-01'
p9100
aS'draw-02'
p9101
asVcellar
p9102
(lp9103
S'cellar-01'
p9104
asVscrub
p9105
(lp9106
S'scrub-01'
p9107
asVlend
p9108
(lp9109
S'lend-01'
p9110
asVoblige
p9111
(lp9112
S'oblige-02'
p9113
asVchirp
p9114
(lp9115
S'chirp-01'
p9116
aS'chirp-02'
p9117
asVdrag
p9118
(lp9119
S'drag-01'
p9120
asVsquirm
p9121
(lp9122
S'squirm-01'
p9123
asVlasso
p9124
(lp9125
S'lasso-01'
p9126
asVscore
p9127
(lp9128
S'score-01'
p9129
asVdesert
p9130
(lp9131
S'desert-01'
p9132
asVdeglaze
p9133
(lp9134
S'deglaze-01'
p9135
asVland
p9136
(lp9137
S'land-01'
p9138
aS'land-02'
p9139
asVsupervene
p9140
(lp9141
S'supervene-01'
p9142
asVtrail
p9143
(lp9144
S'trail-01'
p9145
asVliberate
p9146
(lp9147
S'liberate-01'
p9148
asVage
p9149
(lp9150
S'age-01'
p9151
asVrenounce
p9152
(lp9153
S'renounce-01'
p9154
asVliquefy
p9155
(lp9156
S'liquefy-01'
p9157
asVremit
p9158
(lp9159
S'remit-01'
p9160
asVcrease
p9161
(lp9162
S'crease-01'
p9163
asVfeud
p9164
(lp9165
S'feud-01'
p9166
asVdisencumber
p9167
(lp9168
S'disencumber-01'
p9169
asVcrinkle
p9170
(lp9171
S'crinkle-01'
p9172
asVrecognize
p9173
(lp9174
S'recognize-01'
p9175
aS'recognize-02'
p9176
asVchastise
p9177
(lp9178
S'chastise-01'
p9179
asVdeflea
p9180
(lp9181
S'deflea-01'
p9182
asVrinse
p9183
(lp9184
S'rinse-01'
p9185
asVpinion
p9186
(lp9187
S'pinion-01'
p9188
asVunclamp
p9189
(lp9190
S'unclamp-01'
p9191
asVcode
p9192
(lp9193
S'code-01'
p9194
aS'code-02'
p9195
asVwhang
p9196
(lp9197
S'whang-01'
p9198
asVscratch
p9199
(lp9200
S'scratch-02'
p9201
aS'scratch-04'
p9202
aS'scratch-03'
p9203
asVbroaden
p9204
(lp9205
S'broaden-01'
p9206
asVrecount
p9207
(lp9208
S'recount-01'
p9209
asVniggle
p9210
(lp9211
S'niggle-01'
p9212
asVsoften
p9213
(lp9214
S'soften-01'
p9215
asVtoggle
p9216
(lp9217
S'toggle-01'
p9218
asVionize
p9219
(lp9220
S'ionize-01'
p9221
asVgo
p9222
(lp9223
S'go-01'
p9224
aS'go-02'
p9225
aS'go-08'
p9226
aS'go-15'
p9227
aS'go-19'
p9228
aS'go-26'
p9229
asVbarbecue
p9230
(lp9231
S'barbecue-01'
p9232
asVemboss
p9233
(lp9234
S'emboss-01'
p9235
asVstrew
p9236
(lp9237
S'strew-01'
p9238
asVencrust
p9239
(lp9240
S'encrust-01'
p9241
asVcarbonify
p9242
(lp9243
S'carbonify-01'
p9244
asVoverstress
p9245
(lp9246
S'overstress-01'
p9247
asVcompose
p9248
(lp9249
S'compose-01'
p9250
aS'compose-02'
p9251
asVasphalt
p9252
(lp9253
S'asphalt-01'
p9254
asVdestress
p9255
(lp9256
S'destress-01'
p9257
asVshanghai
p9258
(lp9259
S'shanghai-01'
p9260
asVleap
p9261
(lp9262
S'leap-01'
p9263
aS'leap-03'
p9264
asVsend
p9265
(lp9266
S'send-01'
p9267
aS'send-03'
p9268
asVshack
p9269
(lp9270
S'shack-01'
p9271
asVjab
p9272
(lp9273
S'jab-01'
p9274
asVadjoin
p9275
(lp9276
S'adjoin-01'
p9277
asVstable
p9278
(lp9279
S'stable-01'
p9280
asVdislike
p9281
(lp9282
S'dislike-01'
p9283
asVgravel
p9284
(lp9285
S'gravel-01'
p9286
asVinterchange
p9287
(lp9288
S'interchange-01'
p9289
asVmoot
p9290
(lp9291
S'moot-01'
p9292
asVrag
p9293
(lp9294
S'rag-01'
p9295
asVentangle
p9296
(lp9297
S'entangle-01'
p9298
asVelectrocute
p9299
(lp9300
S'electrocute-01'
p9301
asVretire
p9302
(lp9303
S'retire-01'
p9304
asVtorture
p9305
(lp9306
S'torture-01'
p9307
asVcharbroil
p9308
(lp9309
S'charbroil-01'
p9310
asVrhyme
p9311
(lp9312
S'rhyme-01'
p9313
asVschedule
p9314
(lp9315
S'schedule-01'
p9316
asVwave
p9317
(lp9318
S'wave-01'
p9319
asVspool
p9320
(lp9321
S'spool-01'
p9322
asVforetell
p9323
(lp9324
S'foretell-01'
p9325
asVaccuse
p9326
(lp9327
S'accuse-01'
p9328
asVspook
p9329
(lp9330
S'spook-01'
p9331
asVreverberate
p9332
(lp9333
S'reverberate-01'
p9334
asVwipe
p9335
(lp9336
S'wipe-01'
p9337
asVarrange
p9338
(lp9339
S'arrange-01'
p9340
asVknight
p9341
(lp9342
S'knight-01'
p9343
asVbutton
p9344
(lp9345
S'button-01'
p9346
asVshock
p9347
(lp9348
S'shock-01'
p9349
asVzag
p9350
(lp9351
S'zag-01'
p9352
asVtry
p9353
(lp9354
S'try-01'
p9355
asVtunnel
p9356
(lp9357
S'tunnel-01'
p9358
asVrace
p9359
(lp9360
S'race-01'
p9361
asVcloister
p9362
(lp9363
S'cloister-01'
p9364
asVunchain
p9365
(lp9366
S'unchain-01'
p9367
asVstratify
p9368
(lp9369
S'stratify-01'
p9370
asVenforce
p9371
(lp9372
S'enforce-01'
p9373
asVpilfer
p9374
(lp9375
S'pilfer-01'
p9376
asVdilute
p9377
(lp9378
S'dilute-01'
p9379
asVpledge
p9380
(lp9381
S'pledge-01'
p9382
asVligate
p9383
(lp9384
S'ligate-01'
p9385
asVcrow
p9386
(lp9387
S'crow-01'
p9388
asVparticipate
p9389
(lp9390
S'participate-01'
p9391
asVblitz
p9392
(lp9393
S'blitz-01'
p9394
asVchomp
p9395
(lp9396
S'chomp-01'
p9397
asVjump
p9398
(lp9399
S'jump-01'
p9400
aS'jump-03'
p9401
asVcrook
p9402
(lp9403
S'crook-01'
p9404
asVimply
p9405
(lp9406
S'imply-01'
p9407
asVcroon
p9408
(lp9409
S'croon-01'
p9410
asVprotrude
p9411
(lp9412
S'protrude-01'
p9413
asVclick
p9414
(lp9415
S'click-01'
p9416
asVskim
p9417
(lp9418
S'skim-02'
p9419
aS'skim-03'
p9420
asVpurge
p9421
(lp9422
S'purge-01'
p9423
asVtwine
p9424
(lp9425
S'twine-01'
p9426
asVdecontaminate
p9427
(lp9428
S'decontaminate-01'
p9429
asVspeckle
p9430
(lp9431
S'speckle-01'
p9432
asVoutsmart
p9433
(lp9434
S'outsmart-01'
p9435
asVsadden
p9436
(lp9437
S'sadden-01'
p9438
asVpaddle
p9439
(lp9440
S'paddle-01'
p9441
asVvalet
p9442
(lp9443
S'valet-01'
p9444
asVattire
p9445
(lp9446
S'attire-01'
p9447
asVnetmail
p9448
(lp9449
S'netmail-01'
p9450
asVexercise
p9451
(lp9452
S'exercise-01'
p9453
aS'exercise-02'
p9454
asVcan
p9455
(lp9456
S'can-01'
p9457
aS'can-02'
p9458
asVtar
p9459
(lp9460
S'tar-01'
p9461
asVration
p9462
(lp9463
S'ration-01'
p9464
asVpraise
p9465
(lp9466
S'praise-01'
p9467
asVexchange
p9468
(lp9469
S'exchange-01'
p9470
asVpunch
p9471
(lp9472
S'punch-01'
p9473
asVexplore
p9474
(lp9475
S'explore-01'
p9476
asVsink
p9477
(lp9478
S'sink-01'
p9479
asVgloat
p9480
(lp9481
S'gloat-01'
p9482
asVferry
p9483
(lp9484
S'ferry-01'
p9485
asVdissuade
p9486
(lp9487
S'dissuade-01'
p9488
asVsing
p9489
(lp9490
S'sing-01'
p9491
asVconvert
p9492
(lp9493
S'convert-01'
p9494
asVengage
p9495
(lp9496
S'engage-01'
p9497
asVreceive
p9498
(lp9499
S'receive-01'
p9500
asVchant
p9501
(lp9502
S'chant-01'
p9503
asVtrivialize
p9504
(lp9505
S'trivialize-01'
p9506
asVscreech
p9507
(lp9508
S'screech-01'
p9509
aS'screech-03'
p9510
asVfetch
p9511
(lp9512
S'fetch-01'
p9513
asVmolest
p9514
(lp9515
S'molest-01'
p9516
asVkvetch
p9517
(lp9518
S'kvetch-01'
p9519
asVdisenfranchise
p9520
(lp9521
S'disenfranchise-01'
p9522
asVcrystallize
p9523
(lp9524
S'crystallize-01'
p9525
asVclimb
p9526
(lp9527
S'climb-01'
p9528
aS'climb-02'
p9529
asVbehead
p9530
(lp9531
S'behead-01'
p9532
asVatomize
p9533
(lp9534
S'atomize-01'
p9535
asVhonor
p9536
(lp9537
S'honor-01'
p9538
asVrow
p9539
(lp9540
S'row-01'
p9541
asVshovel
p9542
(lp9543
S'shovel-01'
p9544
asVforesee
p9545
(lp9546
S'foresee-01'
p9547
asVreserve
p9548
(lp9549
S'reserve-01'
p9550
asVforbid
p9551
(lp9552
S'forbid-01'
p9553
asVwin
p9554
(lp9555
S'win-01'
p9556
asVcuckold
p9557
(lp9558
S'cuckold-01'
p9559
asVmanage
p9560
(lp9561
S'manage-02'
p9562
asVunglue
p9563
(lp9564
S'unglue-01'
p9565
asVclout
p9566
(lp9567
S'clout-01'
p9568
asVexpect
p9569
(lp9570
S'expect-01'
p9571
asVdecrease
p9572
(lp9573
S'decrease-01'
p9574
asVextirpate
p9575
(lp9576
S'extirpate-01'
p9577
asVmotor
p9578
(lp9579
S'motor-01'
p9580
aS'motor-02'
p9581
asVduck
p9582
(lp9583
S'duck-01'
p9584
asVbeckon
p9585
(lp9586
S'beckon-01'
p9587
asVapply
p9588
(lp9589
S'apply-02'
p9590
aS'apply-04'
p9591
asVstaple
p9592
(lp9593
S'staple-01'
p9594
asVcloud
p9595
(lp9596
S'cloud-01'
p9597
asVimbue
p9598
(lp9599
S'imbue-01'
p9600
asVuse
p9601
(lp9602
S'use-01'
p9603
asVstream
p9604
(lp9605
S'stream-01'
p9606
aS'stream-02'
p9607
asVsnoop
p9608
(lp9609
S'snoop-01'
p9610
asVdoodle
p9611
(lp9612
S'doodle-01'
p9613
asVvocalize
p9614
(lp9615
S'vocalize-01'
p9616
asVprocrastinate
p9617
(lp9618
S'procrastinate-01'
p9619
asVpredict
p9620
(lp9621
S'predict-01'
p9622
asVduplicate
p9623
(lp9624
S'duplicate-01'
p9625
asVdoubt
p9626
(lp9627
S'doubt-01'
p9628
asVcrab
p9629
(lp9630
S'crab-01'
p9631
asVbutler
p9632
(lp9633
S'butler-01'
p9634
asVcram
p9635
(lp9636
S'cram-01'
p9637
aS'cram-02'
p9638
asVstage
p9639
(lp9640
S'stage-01'
p9641
asVdepreciate
p9642
(lp9643
S'depreciate-01'
p9644
asVsort
p9645
(lp9646
S'sort-01'
p9647
aS'sort-02'
p9648
asVcharcoal
p9649
(lp9650
S'charcoal-01'
p9651
asVcackle
p9652
(lp9653
S'cackle-01'
p9654
asVengender
p9655
(lp9656
S'engender-01'
p9657
asVsnap
p9658
(lp9659
S'snap-01'
p9660
aS'snap-03'
p9661
aS'snap-04'
p9662
aS'snap-05'
p9663
asVbillet
p9664
(lp9665
S'billet-01'
p9666
asVimpress
p9667
(lp9668
S'impress-01'
p9669
aS'impress-02'
p9670
asVcooperate
p9671
(lp9672
S'cooperate-01'
p9673
asVthatch
p9674
(lp9675
S'thatch-01'
p9676
asVlodge
p9677
(lp9678
S'lodge-01'
p9679
aS'lodge-02'
p9680
asVtrain
p9681
(lp9682
S'train-01'
p9683
asVrabbit
p9684
(lp9685
S'rabbit-01'
p9686
asVannounce
p9687
(lp9688
S'announce-01'
p9689
asVfelicitate
p9690
(lp9691
S'felicitate-01'
p9692
asVdisrobe
p9693
(lp9694
S'disrobe-01'
p9695
asVannoy
p9696
(lp9697
S'annoy-01'
p9698
asVthwack
p9699
(lp9700
S'thwack-01'
p9701
asVaugment
p9702
(lp9703
S'augment-01'
p9704
asVconsort
p9705
(lp9706
S'consort-01'
p9707
asVpout
p9708
(lp9709
S'pout-01'
p9710
asVhardboil
p9711
(lp9712
S'hardboil-01'
p9713
asVlapse
p9714
(lp9715
S'lapse-01'
p9716
asVlinger
p9717
(lp9718
S'linger-01'
p9719
asVdelint
p9720
(lp9721
S'delint-01'
p9722
asVstroke
p9723
(lp9724
S'stroke-01'
p9725
asVpour
p9726
(lp9727
S'pour-01'
p9728
asVreproduce
p9729
(lp9730
S'reproduce-01'
p9731
asVroar
p9732
(lp9733
S'roar-01'
p9734
asVlumber
p9735
(lp9736
S'lumber-01'
p9737
asVsquaredance
p9738
(lp9739
S'squaredance-01'
p9740
asVdrill
p9741
(lp9742
S'drill-01'
p9743
asVparquet
p9744
(lp9745
S'parquet-01'
p9746
asVmeet
p9747
(lp9748
S'meet-02'
p9749
aS'meet-03'
p9750
asVgrin
p9751
(lp9752
S'grin-01'
p9753
aS'grin-02'
p9754
asVdissolve
p9755
(lp9756
S'dissolve-01'
p9757
asVwedge
p9758
(lp9759
S'wedge-01'
p9760
asVwharf
p9761
(lp9762
S'wharf-01'
p9763
aS'wharf-02'
p9764
aS'wharf-03'
p9765
asVpatrol
p9766
(lp9767
S'patrol-01'
p9768
asVpawn
p9769
(lp9770
S'pawn-01'
p9771
asVlock
p9772
(lp9773
S'lock-01'
p9774
aS'lock-04'
p9775
aS'lock-06'
p9776
asVslim
p9777
(lp9778
S'slim-02'
p9779
asVtax
p9780
(lp9781
S'tax-01'
p9782
aS'tax-02'
p9783
asVslit
p9784
(lp9785
S'slit-01'
p9786
asVtag
p9787
(lp9788
S'tag-01'
p9789
asVbend
p9790
(lp9791
S'bend-01'
p9792
asVslip
p9793
(lp9794
S'slip-02'
p9795
aS'slip-03'
p9796
asVspruce
p9797
(lp9798
S'spruce-01'
p9799
asVhit
p9800
(lp9801
S'hit-01'
p9802
aS'hit-02'
p9803
asVtan
p9804
(lp9805
S'tan-01'
p9806
asVmartyr
p9807
(lp9808
S'martyr-01'
p9809
asVskirt
p9810
(lp9811
S'skirt-01'
p9812
asVhangar
p9813
(lp9814
S'hangar-01'
p9815
asVlamb
p9816
(lp9817
S'lamb-01'
p9818
asVhesitate
p9819
(lp9820
S'hesitate-01'
p9821
asVprovoke
p9822
(lp9823
S'provoke-01'
p9824
asVmemorize
p9825
(lp9826
S'memorize-01'
p9827
asVsit
p9828
(lp9829
S'sit-01'
p9830
aS'sit-02'
p9831
aS'sit-03'
p9832
asVtrumpet
p9833
(lp9834
S'trumpet-01'
p9835
asVunbutton
p9836
(lp9837
S'unbutton-01'
p9838
asVdelay
p9839
(lp9840
S'delay-01'
p9841
asVthrive
p9842
(lp9843
S'thrive-01'
p9844
asVperspire
p9845
(lp9846
S'perspire-01'
p9847
asVanglicize
p9848
(lp9849
S'anglicize-01'
p9850
asVpair
p9851
(lp9852
S'pair-01'
p9853
asVforest
p9854
(lp9855
S'forest-01'
p9856
asVstemmer
p9857
(lp9858
S'stemmer-01'
p9859
asVweaken
p9860
(lp9861
S'weaken-01'
p9862
asVdeplore
p9863
(lp9864
S'deplore-01'
p9865
asVocclude
p9866
(lp9867
S'occlude-01'
p9868
asVstand
p9869
(lp9870
S'stand-01'
p9871
aS'stand-03'
p9872
aS'stand-07'
p9873
asVpink
p9874
(lp9875
S'pink-01'
p9876
aS'pink-02'
p9877
aS'pink-03'
p9878
asVsmut
p9879
(lp9880
S'smut-03'
p9881
asVneighbor
p9882
(lp9883
S'neighbor-01'
p9884
asVhalter
p9885
(lp9886
S'halter-01'
p9887
asVplump
p9888
(lp9889
S'plump-01'
p9890
asVroam
p9891
(lp9892
S'roam-01'
p9893
asVhazard
p9894
(lp9895
S'hazard-01'
p9896
asVperceive
p9897
(lp9898
S'perceive-01'
p9899
asVnullify
p9900
(lp9901
S'nullify-01'
p9902
asVfart
p9903
(lp9904
S'fart-01'
p9905
asVabuse
p9906
(lp9907
S'abuse-01'
p9908
asVfatigue
p9909
(lp9910
S'fatigue-01'
p9911
asVprance
p9912
(lp9913
S'prance-01'
p9914
asVbluff
p9915
(lp9916
S'bluff-01'
p9917
asVcabbage
p9918
(lp9919
S'cabbage-01'
p9920
asVhawk
p9921
(lp9922
S'hawk-01'
p9923
aS'hawk-02'
p9924
asVautograph
p9925
(lp9926
S'autograph-01'
p9927
asVpocket
p9928
(lp9929
S'pocket-01'
p9930
asVdrape
p9931
(lp9932
S'drape-01'
p9933
asVsnail
p9934
(lp9935
S'snail-01'
p9936
asVbind
p9937
(lp9938
S'bind-01'
p9939
aS'bind-04'
p9940
asVunhitch
p9941
(lp9942
S'unhitch-01'
p9943
asVcorrespond
p9944
(lp9945
S'correspond-01'
p9946
asVcorral
p9947
(lp9948
S'corral-01'
p9949
asVscoop
p9950
(lp9951
S'scoop-01'
p9952
asVallot
p9953
(lp9954
S'allot-01'
p9955
asVallow
p9956
(lp9957
S'allow-01'
p9958
aS'allow-03'
p9959
asVtilt
p9960
(lp9961
S'tilt-01'
p9962
asVbedew
p9963
(lp9964
S'bedew-01'
p9965
asVsteamroller
p9966
(lp9967
S'steamroller-01'
p9968
asVfurnish
p9969
(lp9970
S'furnish-01'
p9971
asVignite
p9972
(lp9973
S'ignite-01'
p9974
asVincandesce
p9975
(lp9976
S'incandesce-01'
p9977
asVview
p9978
(lp9979
S'view-01'
p9980
aS'view-02'
p9981
asVmute
p9982
(lp9983
S'mute-01'
p9984
asVpeck
p9985
(lp9986
S'peck-01'
p9987
aS'peck-02'
p9988
asVmove
p9989
(lp9990
S'move-01'
p9991
aS'move-05'
p9992
asVdisarm
p9993
(lp9994
S'disarm-01'
p9995
asVbeguile
p9996
(lp9997
S'beguile-01'
p9998
asVenclose
p9999
(lp10000
S'enclose-01'
p10001
asVmotorcycle
p10002
(lp10003
S'motorcycle-01'
p10004
asVquake
p10005
(lp10006
S'quake-01'
p10007
asVcruise
p10008
(lp10009
S'cruise-01'
p10010
aS'cruise-02'
p10011
asVembezzle
p10012
(lp10013
S'embezzle-01'
p10014
asVvilify
p10015
(lp10016
S'vilify-01'
p10017
asVhock
p10018
(lp10019
S'hock-01'
p10020
asVenvisage
p10021
(lp10022
S'envisage-01'
p10023
asVbadger
p10024
(lp10025
S'badger-01'
p10026
asVperfect
p10027
(lp10028
S'perfect-01'
p10029
asVwrite
p10030
(lp10031
S'write-01'
p10032
asVreeve
p10033
(lp10034
S'reeve-01'
p10035
asVdecay
p10036
(lp10037
S'decay-01'
p10038
asVcudgel
p10039
(lp10040
S'cudgel-01'
p10041
asVinterlink
p10042
(lp10043
S'interlink-01'
p10044
asVshudder
p10045
(lp10046
S'shudder-01'
p10047
asVstridulate
p10048
(lp10049
S'stridulate-01'
p10050
asVrestrain
p10051
(lp10052
S'restrain-01'
p10053
asVchoose
p10054
(lp10055
S'choose-01'
p10056
asVholiday
p10057
(lp10058
S'holiday-01'
p10059
asVproffer
p10060
(lp10061
S'proffer-01'
p10062
asVdemoralize
p10063
(lp10064
S'demoralize-01'
p10065
asVflex
p10066
(lp10067
S'flex-01'
p10068
aS'flex-02'
p10069
asVprosper
p10070
(lp10071
S'prosper-01'
p10072
asVoutbid
p10073
(lp10074
S'outbid-01'
p10075
asVcrash
p10076
(lp10077
S'crash-01'
p10078
asVswaddle
p10079
(lp10080
S'swaddle-01'
p10081
asVdab
p10082
(lp10083
S'dab-01'
p10084
asVbelch
p10085
(lp10086
S'belch-01'
p10087
aS'belch-02'
p10088
asVspell
p10089
(lp10090
S'spell-01'
p10091
asVearn
p10092
(lp10093
S'earn-01'
p10094
asVdenigrate
p10095
(lp10096
S'denigrate-01'
p10097
asVdock
p10098
(lp10099
S'dock-01'
p10100
asVmaturate
p10101
(lp10102
S'maturate-01'
p10103
asVsandpaper
p10104
(lp10105
S'sandpaper-01'
p10106
asVkiss
p10107
(lp10108
S'kiss-01'
p10109
asVliquify
p10110
(lp10111
S'liquify-01'
p10112
asVscatter
p10113
(lp10114
S'scatter-01'
p10115
asVcage
p10116
(lp10117
S'cage-01'
p10118
asVrealize
p10119
(lp10120
S'realize-01'
p10121
asVdecapitate
p10122
(lp10123
S'decapitate-01'
p10124
asVimmerse
p10125
(lp10126
S'immerse-01'
p10127
asVthrill
p10128
(lp10129
S'thrill-01'
p10130
aS'thrill-02'
p10131
asVslacken
p10132
(lp10133
S'slacken-01'
p10134
asVtram
p10135
(lp10136
S'tram-01'
p10137
asVtisk
p10138
(lp10139
S'tisk-01'
p10140
asVfeast
p10141
(lp10142
S'feast-01'
p10143
asVfeminize
p10144
(lp10145
S'feminize-01'
p10146
asVmerge
p10147
(lp10148
S'merge-01'
p10149
asVslide
p10150
(lp10151
S'slide-01'
p10152
aS'slide-02'
p10153
asVunshackle
p10154
(lp10155
S'unshackle-01'
p10156
asVtrap
p10157
(lp10158
S'trap-01'
p10159
asVblacktop
p10160
(lp10161
S'blacktop-01'
p10162
asVstock
p10163
(lp10164
S'stock-01'
p10165
asVscorch
p10166
(lp10167
S'scorch-01'
p10168
asVbrush
p10169
(lp10170
S'brush-01'
p10171
asVunwind
p10172
(lp10173
S'unwind-01'
p10174
asVactivate
p10175
(lp10176
S'activate-01'
p10177
asVilluminate
p10178
(lp10179
S'illuminate-01'
p10180
asVmoped
p10181
(lp10182
S'moped-01'
p10183
asVbump
p10184
(lp10185
S'bump-01'
p10186
asVchunk
p10187
(lp10188
S'chunk-01'
p10189
asVskipper
p10190
(lp10191
S'skipper-01'
p10192
asVconstitute
p10193
(lp10194
S'constitute-01'
p10195
asVseesaw
p10196
(lp10197
S'seesaw-01'
p10198
asVcalibrate
p10199
(lp10200
S'calibrate-01'
p10201
asVmeasure
p10202
(lp10203
S'measure-01'
p10204
asVrefight
p10205
(lp10206
S'refight-01'
p10207
asVpatch
p10208
(lp10209
S'patch-01'
p10210
asVwander
p10211
(lp10212
S'wander-01'
p10213
asVwitness
p10214
(lp10215
S'witness-01'
p10216
asVfondle
p10217
(lp10218
S'fondle-01'
p10219
asVarmor
p10220
(lp10221
S'armor-01'
p10222
asVconfess
p10223
(lp10224
S'confess-01'
p10225
asVunderstudy
p10226
(lp10227
S'understudy-01'
p10228
asVfathom
p10229
(lp10230
S'fathom-01'
p10231
asVrepress
p10232
(lp10233
S'repress-01'
p10234
asVstub
p10235
(lp10236
S'stub-01'
p10237
asVmate
p10238
(lp10239
S'mate-01'
p10240
aS'mate-02'
p10241
asVsever
p10242
(lp10243
S'sever-01'
p10244
asVlecture
p10245
(lp10246
S'lecture-01'
p10247
asVcause
p10248
(lp10249
S'cause-01'
p10250
asVsacrifice
p10251
(lp10252
S'sacrifice-01'
p10253
asVderat
p10254
(lp10255
S'derat-01'
p10256
asVdisclose
p10257
(lp10258
S'disclose-01'
p10259
asVstare
p10260
(lp10261
S'stare-01'
p10262
asVshut
p10263
(lp10264
S'shut-01'
p10265
aS'shut-06'
p10266
asVshoplift
p10267
(lp10268
S'shoplift-01'
p10269
asVperish
p10270
(lp10271
S'perish-01'
p10272
asVhopscotch
p10273
(lp10274
S'hopscotch-01'
p10275
asVhydrogenate
p10276
(lp10277
S'hydrogenate-01'
p10278
asVexpurgate
p10279
(lp10280
S'expurgate-01'
p10281
asVspot
p10282
(lp10283
S'spot-01'
p10284
aS'spot-02'
p10285
asVforeknow
p10286
(lp10287
S'foreknow-01'
p10288
asVtoll
p10289
(lp10290
S'toll-01'
p10291
asVhanker
p10292
(lp10293
S'hanker-01'
p10294
asVdecoct
p10295
(lp10296
S'decoct-01'
p10297
asVclarify
p10298
(lp10299
S'clarify-01'
p10300
asVgraze
p10301
(lp10302
S'graze-01'
p10303
asVupbraid
p10304
(lp10305
S'upbraid-01'
p10306
asVintersperse
p10307
(lp10308
S'intersperse-01'
p10309
asVtempt
p10310
(lp10311
S'tempt-01'
p10312
asVshun
p10313
(lp10314
S'shun-01'
p10315
asVembarrass
p10316
(lp10317
S'embarrass-01'
p10318
asVbleed
p10319
(lp10320
S'bleed-01'
p10321
aS'bleed-02'
p10322
aS'bleed-03'
p10323
aS'bleed-04'
p10324
asVspill
p10325
(lp10326
S'spill-01'
p10327
asVpeeve
p10328
(lp10329
S'peeve-01'
p10330
asVask
p10331
(lp10332
S'ask-01'
p10333
aS'ask-02'
p10334
asVstereotype
p10335
(lp10336
S'stereotype-01'
p10337
asVkeep
p10338
(lp10339
S'keep-01'
p10340
aS'keep-02'
p10341
aS'keep-04'
p10342
aS'keep-10'
p10343
asVstride
p10344
(lp10345
S'stride-01'
p10346
asVshred
p10347
(lp10348
S'shred-01'
p10349
asVuproot
p10350
(lp10351
S'uproot-01'
p10352
asVscare
p10353
(lp10354
S'scare-01'
p10355
aS'scare-02'
p10356
asVpredominate
p10357
(lp10358
S'predominate-01'
p10359
asVsew
p10360
(lp10361
S'sew-01'
p10362
aS'sew-02'
p10363
asVconfuse
p10364
(lp10365
S'confuse-01'
p10366
asVrelish
p10367
(lp10368
S'relish-01'
p10369
asVecho
p10370
(lp10371
S'echo-01'
p10372
asVextrude
p10373
(lp10374
S'extrude-01'
p10375
asVbetroth
p10376
(lp10377
S'betroth-01'
p10378
asVbitch
p10379
(lp10380
S'bitch-01'
p10381
asVscent
p10382
(lp10383
S'scent-01'
p10384
aS'scent-02'
p10385
aS'scent-03'
p10386
asVconga
p10387
(lp10388
S'conga-01'
p10389
asVstencil
p10390
(lp10391
S'stencil-01'
p10392
asVdroop
p10393
(lp10394
S'droop-01'
p10395
asVtootle
p10396
(lp10397
S'tootle-01'
p10398
asVseat
p10399
(lp10400
S'seat-01'
p10401
aS'seat-02'
p10402
asVattach
p10403
(lp10404
S'attach-01'
p10405
asVattack
p10406
(lp10407
S'attack-01'
p10408
asVfray
p10409
(lp10410
S'fray-01'
p10411
asVdrool
p10412
(lp10413
S'drool-01'
p10414
asVvaticinate
p10415
(lp10416
S'vaticinate-01'
p10417
asVprophesy
p10418
(lp10419
S'prophesy-01'
p10420
asVboil
p10421
(lp10422
S'boil-01'
p10423
aS'boil-03'
p10424
asVbeard
p10425
(lp10426
S'beard-02'
p10427
asVshell
p10428
(lp10429
S'shell-01'
p10430
aS'shell-02'
p10431
aS'shell-03'
p10432
asVaccompany
p10433
(lp10434
S'accompany-01'
p10435
asVgear
p10436
(lp10437
S'gear-01'
p10438
aS'gear-02'
p10439
asVprostitute
p10440
(lp10441
S'prostitute-01'
p10442
asVchagrin
p10443
(lp10444
S'chagrin-01'
p10445
asVcowrite
p10446
(lp10447
S'cowrite-01'
p10448
asVnibble
p10449
(lp10450
S'nibble-01'
p10451
asVacquire
p10452
(lp10453
S'acquire-01'
p10454
asVinnovate
p10455
(lp10456
S'innovate-01'
p10457
asVreallocate
p10458
(lp10459
S'reallocate-01'
p10460
asVrickshaw
p10461
(lp10462
S'rickshaw-01'
p10463
asVsimulate
p10464
(lp10465
S'simulate-01'
p10466
asVdebowel
p10467
(lp10468
S'debowel-01'
p10469
asVdiminish
p10470
(lp10471
S'diminish-01'
p10472
asVreaffirm
p10473
(lp10474
S'reaffirm-01'
p10475
asVcommence
p10476
(lp10477
S'commence-01'
p10478
asVremember
p10479
(lp10480
S'remember-01'
p10481
asVphotograph
p10482
(lp10483
S'photograph-01'
p10484
asVprune
p10485
(lp10486
S'prune-01'
p10487
asVmorph
p10488
(lp10489
S'morph-01'
p10490
asVglisten
p10491
(lp10492
S'glisten-01'
p10493
asVwet
p10494
(lp10495
S'wet-01'
p10496
asVbother
p10497
(lp10498
S'bother-01'
p10499
asVshampoo
p10500
(lp10501
S'shampoo-01'
p10502
asVbeg
p10503
(lp10504
S'beg-01'
p10505
asVbed
p10506
(lp10507
S'bed-02'
p10508
aS'bed-01'
p10509
asVintertwine
p10510
(lp10511
S'intertwine-01'
p10512
asVtowel
p10513
(lp10514
S'towel-01'
p10515
asVlight
p10516
(lp10517
S'light-01'
p10518
asVimpale
p10519
(lp10520
S'impale-01'
p10521
asVspurt
p10522
(lp10523
S'spurt-01'
p10524
asVsurge
p10525
(lp10526
S'surge-01'
p10527
asVamble
p10528
(lp10529
S'amble-01'
p10530
asVbet
p10531
(lp10532
S'bet-01'
p10533
asVcrucify
p10534
(lp10535
S'crucify-01'
p10536
aS'crucify-02'
p10537
asVrecuse
p10538
(lp10539
S'recuse-01'
p10540
asVclip
p10541
(lp10542
S'clip-01'
p10543
asVneutralize
p10544
(lp10545
S'neutralize-01'
p10546
asVfowl
p10547
(lp10548
S'fowl-01'
p10549
asVsplatter
p10550
(lp10551
S'splatter-01'
p10552
asVdefoam
p10553
(lp10554
S'defoam-01'
p10555
asVcorrupt
p10556
(lp10557
S'corrupt-01'
p10558
asVnourish
p10559
(lp10560
S'nourish-01'
p10561
asVtorment
p10562
(lp10563
S'torment-01'
p10564
asVpersecute
p10565
(lp10566
S'persecute-01'
p10567
asVhave
p10568
(lp10569
S'have-03'
p10570
asVdictate
p10571
(lp10572
S'dictate-01'
p10573
asVneed
p10574
(lp10575
S'need-01'
p10576
asVwaken
p10577
(lp10578
S'waken-01'
p10579
asVborder
p10580
(lp10581
S'border-01'
p10582
asVjug
p10583
(lp10584
S'jug-01'
p10585
asVscrew
p10586
(lp10587
S'screw-04'
p10588
asVamericanize
p10589
(lp10590
S'americanize-01'
p10591
asVangle
p10592
(lp10593
S'angle-01'
p10594
asVsoak
p10595
(lp10596
S'soak-01'
p10597
asVinform
p10598
(lp10599
S'inform-01'
p10600
asVapprise
p10601
(lp10602
S'apprise-01'
p10603
asVsculpt
p10604
(lp10605
S'sculpt-01'
p10606
asVlilt
p10607
(lp10608
S'lilt-01'
p10609
asVlope
p10610
(lp10611
S'lope-01'
p10612
asVneaten
p10613
(lp10614
S'neaten-01'
p10615
asVtruck
p10616
(lp10617
S'truck-01'
p10618
asVdivert
p10619
(lp10620
S'divert-01'
p10621
asVcozen
p10622
(lp10623
S'cozen-01'
p10624
aS'cozen-02'
p10625
asVroust
p10626
(lp10627
S'roust-01'
p10628
asVscoot
p10629
(lp10630
S'scoot-01'
p10631
asVrove
p10632
(lp10633
S'rove-01'
p10634
asVclash
p10635
(lp10636
S'clash-01'
p10637
aS'clash-02'
p10638
asVsovietize
p10639
(lp10640
S'sovietize-01'
p10641
asVdisgorge
p10642
(lp10643
S'disgorge-01'
p10644
asVprocure
p10645
(lp10646
S'procure-01'
p10647
asVrearrange
p10648
(lp10649
S'rearrange-01'
p10650
asVfilch
p10651
(lp10652
S'filch-01'
p10653
asVlust
p10654
(lp10655
S'lust-01'
p10656
asVclamber
p10657
(lp10658
S'clamber-01'
p10659
asVdelve
p10660
(lp10661
S'delve-01'
p10662
asVawe
p10663
(lp10664
S'awe-01'
p10665
asVhoodwink
p10666
(lp10667
S'hoodwink-01'
p10668
asVclass
p10669
(lp10670
S'class-01'
p10671
asVclasp
p10672
(lp10673
S'clasp-01'
p10674
asVdeny
p10675
(lp10676
S'deny-01'
p10677
asVeject
p10678
(lp10679
S'eject-01'
p10680
asVgather
p10681
(lp10682
S'gather-01'
p10683
asVrequest
p10684
(lp10685
S'request-01'
p10686
asVenlist
p10687
(lp10688
S'enlist-01'
p10689
asVpepperspray
p10690
(lp10691
S'pepperspray-01'
p10692
asVsuture
p10693
(lp10694
S'suture-01'
p10695
asVtalk
p10696
(lp10697
S'talk-01'
p10698
aS'talk-02'
p10699
asVrendezvous
p10700
(lp10701
S'rendezvous-01'
p10702
asVbrew
p10703
(lp10704
S'brew-01'
p10705
asVrecoil
p10706
(lp10707
S'recoil-01'
p10708
asVconstrain
p10709
(lp10710
S'constrain-01'
p10711
asVwow
p10712
(lp10713
S'wow-01'
p10714
asVoverrate
p10715
(lp10716
S'overrate-01'
p10717
asVthicken
p10718
(lp10719
S'thicken-01'
p10720
asVunsettle
p10721
(lp10722
S'unsettle-01'
p10723
asVseclude
p10724
(lp10725
S'seclude-01'
p10726
asVcrate
p10727
(lp10728
S'crate-01'
p10729
asVdissociate
p10730
(lp10731
S'dissociate-01'
p10732
asVbring
p10733
(lp10734
S'bring-01'
p10735
aS'bring-02'
p10736
aS'bring-05'
p10737
asVrebuke
p10738
(lp10739
S'rebuke-01'
p10740
asVrouge
p10741
(lp10742
S'rouge-01'
p10743
asVutter
p10744
(lp10745
S'utter-01'
p10746
asVchicken
p10747
(lp10748
S'chicken-01'
p10749
asVdebate
p10750
(lp10751
S'debate-01'
p10752
asVstaff
p10753
(lp10754
S'staff-01'
p10755
asVwrestle
p10756
(lp10757
S'wrestle-01'
p10758
asVenvy
p10759
(lp10760
S'envy-01'
p10761
asVpause
p10762
(lp10763
S'pause-01'
p10764
asVcavort
p10765
(lp10766
S'cavort-01'
p10767
asVtire
p10768
(lp10769
S'tire-01'
p10770
aS'tire-03'
p10771
aS'tire-02'
p10772
asVmanacle
p10773
(lp10774
S'manacle-01'
p10775
asVtransfix
p10776
(lp10777
S'transfix-01'
p10778
asVjar
p10779
(lp10780
S'jar-01'
p10781
asVbrighten
p10782
(lp10783
S'brighten-01'
p10784
asVbug
p10785
(lp10786
S'bug-01'
p10787
asVjam
p10788
(lp10789
S'jam-01'
p10790
asVtape
p10791
(lp10792
S'tape-01'
p10793
aS'tape-02'
p10794
asVrasp
p10795
(lp10796
S'rasp-01'
p10797
asVfuel
p10798
(lp10799
S'fuel-01'
p10800
asVherald
p10801
(lp10802
S'herald-01'
p10803
asVspice
p10804
(lp10805
S'spice-01'
p10806
asVflinch
p10807
(lp10808
S'flinch-01'
p10809
asVachieve
p10810
(lp10811
S'achieve-01'
p10812
asVdodge
p10813
(lp10814
S'dodge-01'
p10815
asVgratify
p10816
(lp10817
S'gratify-01'
p10818
asVcube
p10819
(lp10820
S'cube-01'
p10821
asVhandle
p10822
(lp10823
S'handle-01'
p10824
asVdeink
p10825
(lp10826
S'deink-01'
p10827
asVstarch
p10828
(lp10829
S'starch-01'
p10830
asVbeat
p10831
(lp10832
S'beat-01'
p10833
asVdope
p10834
(lp10835
S'dope-01'
p10836
aS'dope-02'
p10837
aS'dope-03'
p10838
asVmassacre
p10839
(lp10840
S'massacre-01'
p10841
asVurinate
p10842
(lp10843
S'urinate-01'
p10844
asVglutenize
p10845
(lp10846
S'glutenize-01'
p10847
asVbear
p10848
(lp10849
S'bear-01'
p10850
aS'bear-06'
p10851
asVaccrue
p10852
(lp10853
S'accrue-01'
p10854
asVbeam
p10855
(lp10856
S'beam-01'
p10857
aS'beam-02'
p10858
asVbead
p10859
(lp10860
S'bead-01'
p10861
aS'bead-02'
p10862
aS'bead-03'
p10863
asVwring
p10864
(lp10865
S'wring-01'
p10866
aS'wring-02'
p10867
asVswindle
p10868
(lp10869
S'swindle-01'
p10870
asVmisappropriate
p10871
(lp10872
S'misappropriate-01'
p10873
asVgray
p10874
(lp10875
S'gray-01'
p10876
asVdishearten
p10877
(lp10878
S'dishearten-01'
p10879
asVbisect
p10880
(lp10881
S'bisect-01'
p10882
asVgust
p10883
(lp10884
S'gust-01'
p10885
asVquarantine
p10886
(lp10887
S'quarantine-01'
p10888
asVordain
p10889
(lp10890
S'ordain-01'
p10891
asVdefame
p10892
(lp10893
S'defame-01'
p10894
asVtrammel
p10895
(lp10896
S'trammel-01'
p10897
asVreprimand
p10898
(lp10899
S'reprimand-01'
p10900
asVgush
p10901
(lp10902
S'gush-01'
p10903
aS'gush-02'
p10904
asVascertain
p10905
(lp10906
S'ascertain-01'
p10907
asVgrab
p10908
(lp10909
S'grab-01'
p10910
asVexude
p10911
(lp10912
S'exude-01'
p10913
asVconduct
p10914
(lp10915
S'conduct-01'
p10916
asVpreach
p10917
(lp10918
S'preach-01'
p10919
asVconform
p10920
(lp10921
S'conform-01'
p10922
asVkill
p10923
(lp10924
S'kill-01'
p10925
aS'kill-02'
p10926
asVvibrate
p10927
(lp10928
S'vibrate-01'
p10929
asVexpel
p10930
(lp10931
S'expel-01'
p10932
asVgrieve
p10933
(lp10934
S'grieve-01'
p10935
asVframe
p10936
(lp10937
S'frame-01'
p10938
aS'frame-03'
p10939
asVpitch
p10940
(lp10941
S'pitch-01'
p10942
asVorphan
p10943
(lp10944
S'orphan-01'
p10945
asVreiterate
p10946
(lp10947
S'reiterate-01'
p10948
asVfreeze
p10949
(lp10950
S'freeze-01'
p10951
asVdislodge
p10952
(lp10953
S'dislodge-01'
p10954
asVpowder
p10955
(lp10956
S'powder-02'
p10957
asVsolder
p10958
(lp10959
S'solder-01'
p10960
asVtiptoe
p10961
(lp10962
S'tiptoe-01'
p10963
asVoverleap
p10964
(lp10965
S'overleap-01'
p10966
asVairmail
p10967
(lp10968
S'airmail-01'
p10969
asVstill
p10970
(lp10971
S'still-01'
p10972
asVyodel
p10973
(lp10974
S'yodel-01'
p10975
asVextradite
p10976
(lp10977
S'extradite-01'
p10978
asVreassert
p10979
(lp10980
S'reassert-02'
p10981
aS'reassert-03'
p10982
asVthumb
p10983
(lp10984
S'thumb-01'
p10985
asVdiverge
p10986
(lp10987
S'diverge-01'
p10988
asVfavor
p10989
(lp10990
S'favor-01'
p10991
asVstate
p10992
(lp10993
S'state-01'
p10994
asVbeautify
p10995
(lp10996
S'beautify-01'
p10997
asVlug
p10998
(lp10999
S'lug-01'
p11000
asVbrowbeat
p11001
(lp11002
S'browbeat-01'
p11003
asVbarbeque
p11004
(lp11005
S'barbeque-01'
p11006
asVsole
p11007
(lp11008
S'sole-01'
p11009
asVstew
p11010
(lp11011
S'stew-01'
p11012
aS'stew-02'
p11013
asVsorrow
p11014
(lp11015
S'sorrow-01'
p11016
asVgrumble
p11017
(lp11018
S'grumble-01'
p11019
asVdeliver
p11020
(lp11021
S'deliver-01'
p11022
asVinterpolate
p11023
(lp11024
S'interpolate-01'
p11025
asVgrouch
p11026
(lp11027
S'grouch-01'
p11028
asVjoggle
p11029
(lp11030
S'joggle-01'
p11031
asVspoil
p11032
(lp11033
S'spoil-01'
p11034
asVjog
p11035
(lp11036
S'jog-01'
p11037
asVgroup
p11038
(lp11039
S'group-01'
p11040
asVweary
p11041
(lp11042
S'weary-01'
p11043
aS'weary-02'
p11044
asVenflame
p11045
(lp11046
S'enflame-01'
p11047
asVsolace
p11048
(lp11049
S'solace-01'
p11050
asVexclaim
p11051
(lp11052
S'exclaim-01'
p11053
asVdrum
p11054
(lp11055
S'drum-02'
p11056
asVsniff
p11057
(lp11058
S'sniff-01'
p11059
aS'sniff-02'
p11060
asVjoke
p11061
(lp11062
S'joke-01'
p11063
asVdrug
p11064
(lp11065
S'drug-01'
p11066
aS'drug-02'
p11067
asVpopularize
p11068
(lp11069
S'popularize-01'
p11070
asVassure
p11071
(lp11072
S'assure-01'
p11073
asVadmit
p11074
(lp11075
S'admit-01'
p11076
aS'admit-02'
p11077
asVsucceed
p11078
(lp11079
S'succeed-01'
p11080
asVspatter
p11081
(lp11082
S'spatter-01'
p11083
asVtousle
p11084
(lp11085
S'tousle-01'
p11086
asVswallow
p11087
(lp11088
S'swallow-01'
p11089
asVadmix
p11090
(lp11091
S'admix-01'
p11092
asVwear
p11093
(lp11094
S'wear-01'
p11095
aS'wear-06'
p11096
asVcomment
p11097
(lp11098
S'comment-01'
p11099
aS'comment-02'
p11100
asVfester
p11101
(lp11102
S'fester-01'
p11103
asVchristen
p11104
(lp11105
S'christen-01'
p11106
asVconclude
p11107
(lp11108
S'conclude-01'
p11109
aS'conclude-02'
p11110
asVwonder
p11111
(lp11112
S'wonder-01'
p11113
aS'wonder-02'
p11114
asVwalk
p11115
(lp11116
S'walk-01'
p11117
asVcommend
p11118
(lp11119
S'commend-01'
p11120
asVdistil
p11121
(lp11122
S'distil-01'
p11123
asVindict
p11124
(lp11125
S'indict-01'
p11126
asVlaugh
p11127
(lp11128
S'laugh-01'
p11129
asVcoddle
p11130
(lp11131
S'coddle-02'
p11132
asVcohere
p11133
(lp11134
S'cohere-01'
p11135
asVquit
p11136
(lp11137
S'quit-01'
p11138
asVinhale
p11139
(lp11140
S'inhale-01'
p11141
asVmotorbike
p11142
(lp11143
S'motorbike-01'
p11144
asVelectrify
p11145
(lp11146
S'electrify-01'
p11147
asVdisintegrate
p11148
(lp11149
S'disintegrate-01'
p11150
asVmuddy
p11151
(lp11152
S'muddy-01'
p11153
asVpolka
p11154
(lp11155
S'polka-01'
p11156
asVyap
p11157
(lp11158
S'yap-01'
p11159
asVspoonfeed
p11160
(lp11161
S'spoonfeed-01'
p11162
asVquiz
p11163
(lp11164
S'quiz-01'
p11165
asVtutor
p11166
(lp11167
S'tutor-01'
p11168
asVthin
p11169
(lp11170
S'thin-01'
p11171
asVapplique
p11172
(lp11173
S'applique-01'
p11174
asVtreat
p11175
(lp11176
S'treat-01'
p11177
aS'treat-02'
p11178
asVyak
p11179
(lp11180
S'yak-01'
p11181
asVgabble
p11182
(lp11183
S'gabble-01'
p11184
asVcurtain
p11185
(lp11186
S'curtain-01'
p11187
asVfeather
p11188
(lp11189
S'feather-01'
p11190
asVwaste
p11191
(lp11192
S'waste-01'
p11193
asVdeflower
p11194
(lp11195
S'deflower-01'
p11196
asVsoftboil
p11197
(lp11198
S'softboil-01'
p11199
asVbottlefeed
p11200
(lp11201
S'bottlefeed-01'
p11202
asVdefine
p11203
(lp11204
S'define-01'
p11205
asVnickel
p11206
(lp11207
S'nickel-01'
p11208
asVtap
p11209
(lp11210
S'tap-01'
p11211
asVcaddy
p11212
(lp11213
S'caddy-01'
p11214
asVassert
p11215
(lp11216
S'assert-01'
p11217
aS'assert-02'
p11218
aS'assert-03'
p11219
asVmisguide
p11220
(lp11221
S'misguide-01'
p11222
asVtense
p11223
(lp11224
S'tense-01'
p11225
asVwaggle
p11226
(lp11227
S'waggle-01'
p11228
asVbrunch
p11229
(lp11230
S'brunch-01'
p11231
asVoverturn
p11232
(lp11233
S'overturn-01'
p11234
asVpresent
p11235
(lp11236
S'present-01'
p11237
asVbanish
p11238
(lp11239
S'banish-01'
p11240
asVwreck
p11241
(lp11242
S'wreck-01'
p11243
asVveer
p11244
(lp11245
S'veer-01'
p11246
asVintimidate
p11247
(lp11248
S'intimidate-01'
p11249
asVripen
p11250
(lp11251
S'ripen-01'
p11252
asVsmolder
p11253
(lp11254
S'smolder-01'
p11255
asVharden
p11256
(lp11257
S'harden-01'
p11258
asVplait
p11259
(lp11260
S'plait-01'
p11261
asVfault
p11262
(lp11263
S'fault-01'
p11264
asVmagnetize
p11265
(lp11266
S'magnetize-01'
p11267
asVrename
p11268
(lp11269
S'rename-01'
p11270
asVsnack
p11271
(lp11272
S'snack-01'
p11273
asVvulcanize
p11274
(lp11275
S'vulcanize-01'
p11276
asVbicker
p11277
(lp11278
S'bicker-01'
p11279
asVdissent
p11280
(lp11281
S'dissent-01'
p11282
asVdisapprove
p11283
(lp11284
S'disapprove-01'
p11285
asVroll
p11286
(lp11287
S'roll-01'
p11288
asVequilibrate
p11289
(lp11290
S'equilibrate-01'
p11291
asVquantize
p11292
(lp11293
S'quantize-01'
p11294
asVhearten
p11295
(lp11296
S'hearten-01'
p11297
asVpartner
p11298
(lp11299
S'partner-01'
p11300
asVthud
p11301
(lp11302
S'thud-01'
p11303
asVconserve
p11304
(lp11305
S'conserve-01'
p11306
asVwhore
p11307
(lp11308
S'whore-01'
p11309
asVhalt
p11310
(lp11311
S'halt-01'
p11312
asVportray
p11313
(lp11314
S'portray-01'
p11315
asVcapture
p11316
(lp11317
S'capture-01'
p11318
asVsteer
p11319
(lp11320
S'steer-01'
p11321
asVtrundle
p11322
(lp11323
S'trundle-01'
p11324
asVoink
p11325
(lp11326
S'oink-01'
p11327
asVeulogize
p11328
(lp11329
S'eulogize-01'
p11330
asVcross
p11331
(lp11332
S'cross-01'
p11333
aS'cross-02'
p11334
aS'cross-03'
p11335
asVunite
p11336
(lp11337
S'unite-01'
p11338
asVslobber
p11339
(lp11340
S'slobber-01'
p11341
asVdam
p11342
(lp11343
S'dam-01'
p11344
asVblight
p11345
(lp11346
S'blight-01'
p11347
asVfill
p11348
(lp11349
S'fill-01'
p11350
asVinfer
p11351
(lp11352
S'infer-01'
p11353
asVtighten
p11354
(lp11355
S'tighten-01'
p11356
asVball
p11357
(lp11358
S'ball-01'
p11359
asVbalk
p11360
(lp11361
S'balk-01'
p11362
asVdrink
p11363
(lp11364
S'drink-01'
p11365
aS'drink-03'
p11366
asVdisagree
p11367
(lp11368
S'disagree-01'
p11369
asVmuddle
p11370
(lp11371
S'muddle-01'
p11372
asVspew
p11373
(lp11374
S'spew-01'
p11375
asVdust
p11376
(lp11377
S'dust-01'
p11378
aS'dust-02'
p11379
aS'dust-03'
p11380
asVpedal
p11381
(lp11382
S'pedal-01'
p11383
asVsunburn
p11384
(lp11385
S'sunburn-01'
p11386
asVlobby
p11387
(lp11388
S'lobby-01'
p11389
asVexpand
p11390
(lp11391
S'expand-01'
p11392
asVaudit
p11393
(lp11394
S'audit-01'
p11395
asVdislocate
p11396
(lp11397
S'dislocate-01'
p11398
asVpartition
p11399
(lp11400
S'partition-01'
p11401
asVcenter
p11402
(lp11403
S'center-01'
p11404
asVmention
p11405
(lp11406
S'mention-01'
p11407
asVglower
p11408
(lp11409
S'glower-01'
p11410
asVresent
p11411
(lp11412
S'resent-01'
p11413
asVovercast
p11414
(lp11415
S'overcast-01'
p11416
asVenrage
p11417
(lp11418
S'enrage-01'
p11419
asVdrone
p11420
(lp11421
S'drone-01'
p11422
asVcommand
p11423
(lp11424
S'command-02'
p11425
asVschmooze
p11426
(lp11427
S'schmooze-01'
p11428
asVunderlay
p11429
(lp11430
S'underlay-01'
p11431
asVmottle
p11432
(lp11433
S'mottle-01'
p11434
asVposition
p11435
(lp11436
S'position-01'
p11437
asVdiversify
p11438
(lp11439
S'diversify-01'
p11440
asVcon
p11441
(lp11442
S'con-01'
p11443
aS'con-02'
p11444
aS'con-03'
p11445
asVpresume
p11446
(lp11447
S'presume-01'
p11448
asVrush
p11449
(lp11450
S'rush-01'
p11451
asVeruct
p11452
(lp11453
S'eruct-01'
p11454
asVsnake
p11455
(lp11456
S'snake-01'
p11457
asVreside
p11458
(lp11459
S'reside-01'
p11460
asVexcise
p11461
(lp11462
S'excise-01'
p11463
asVrocket
p11464
(lp11465
S'rocket-01'
p11466
asVnecessitate
p11467
(lp11468
S'necessitate-01'
p11469
asVinveigle
p11470
(lp11471
S'inveigle-01'
p11472
asVsurpass
p11473
(lp11474
S'surpass-01'
p11475
asVglue
p11476
(lp11477
S'glue-01'
p11478
asVconsume
p11479
(lp11480
S'consume-01'
p11481
asVdistend
p11482
(lp11483
S'distend-01'
p11484
asVcarjack
p11485
(lp11486
S'carjack-01'
p11487
asVconsole
p11488
(lp11489
S'console-01'
p11490
asVwed
p11491
(lp11492
S'wed-01'
p11493
asVsnicker
p11494
(lp11495
S'snicker-01'
p11496
asVflee
p11497
(lp11498
S'flee-01'
p11499
asVsupply
p11500
(lp11501
S'supply-01'
p11502
asVbench
p11503
(lp11504
S'bench-01'
p11505
asVadd
p11506
(lp11507
S'add-01'
p11508
aS'add-02'
p11509
asVcombine
p11510
(lp11511
S'combine-01'
p11512
asVdehair
p11513
(lp11514
S'dehair-01'
p11515
asVscrimp
p11516
(lp11517
S'scrimp-01'
p11518
asVsmart
p11519
(lp11520
S'smart-01'
p11521
asVski
p11522
(lp11523
S'ski-01'
p11524
asVkick
p11525
(lp11526
S'kick-01'
p11527
asVoar
p11528
(lp11529
S'oar-01'
p11530
asVcanter
p11531
(lp11532
S'canter-01'
p11533
asVmagnify
p11534
(lp11535
S'magnify-01'
p11536
asVmasquerade
p11537
(lp11538
S'masquerade-01'
p11539
asVtaunt
p11540
(lp11541
S'taunt-01'
p11542
asVterm
p11543
(lp11544
S'term-01'
p11545
asVsweep
p11546
(lp11547
S'sweep-01'
p11548
aS'sweep-02'
p11549
asVhaul
p11550
(lp11551
S'haul-01'
p11552
asVknow
p11553
(lp11554
S'know-01'
p11555
asVburden
p11556
(lp11557
S'burden-01'
p11558
asVrepute
p11559
(lp11560
S'repute-01'
p11561
asVatrophy
p11562
(lp11563
S'atrophy-01'
p11564
asVtick
p11565
(lp11566
S'tick-01'
p11567
asVstring
p11568
(lp11569
S'string-01'
p11570
asVinsert
p11571
(lp11572
S'insert-01'
p11573
asVsmudge
p11574
(lp11575
S'smudge-01'
p11576
asVcrisp
p11577
(lp11578
S'crisp-01'
p11579
aS'crisp-02'
p11580
asVlike
p11581
(lp11582
S'like-01'
p11583
asVbulge
p11584
(lp11585
S'bulge-01'
p11586
asVvulgarize
p11587
(lp11588
S'vulgarize-01'
p11589
asVgarage
p11590
(lp11591
S'garage-01'
p11592
asVstagger
p11593
(lp11594
S'stagger-01'
p11595
asVepoxy
p11596
(lp11597
S'epoxy-01'
p11598
asVimprison
p11599
(lp11600
S'imprison-01'
p11601
asVdivest
p11602
(lp11603
S'divest-01'
p11604
asVsprain
p11605
(lp11606
S'sprain-01'
p11607
asVheel
p11608
(lp11609
S'heel-01'
p11610
aS'heel-03'
p11611
aS'heel-05'
p11612
asVsign
p11613
(lp11614
S'sign-01'
p11615
aS'sign-02'
p11616
aS'sign-03'
p11617
asVexceed
p11618
(lp11619
S'exceed-01'
p11620
asVglare
p11621
(lp11622
S'glare-01'
p11623
asVtumble
p11624
(lp11625
S'tumble-01'
p11626
asVrevert
p11627
(lp11628
S'revert-01'
p11629
asVtwitter
p11630
(lp11631
S'twitter-01'
p11632
asVscuffle
p11633
(lp11634
S'scuffle-01'
p11635
asVhail
p11636
(lp11637
S'hail-01'
p11638
aS'hail-02'
p11639
aS'hail-05'
p11640
asVhush
p11641
(lp11642
S'hush-01'
p11643
asVcorroborate
p11644
(lp11645
S'corroborate-01'
p11646
asVhusk
p11647
(lp11648
S'husk-01'
p11649
asVholler
p11650
(lp11651
S'holler-01'
p11652
asVmizzle
p11653
(lp11654
S'mizzle-01'
p11655
asVconvey
p11656
(lp11657
S'convey-01'
p11658
asVflush
p11659
(lp11660
S'flush-01'
p11661
aS'flush-03'
p11662
asVmodulate
p11663
(lp11664
S'modulate-01'
p11665
asVdrizzle
p11666
(lp11667
S'drizzle-01'
p11668
asVtransport
p11669
(lp11670
S'transport-01'
p11671
asVshrug
p11672
(lp11673
S'shrug-01'
p11674
aS'shrug-03'
p11675
asVleaf
p11676
(lp11677
S'leaf-01'
p11678
asVlead
p11679
(lp11680
S'lead-01'
p11681
aS'lead-02'
p11682
aS'lead-03'
p11683
asVleak
p11684
(lp11685
S'leak-01'
p11686
asVavoid
p11687
(lp11688
S'avoid-01'
p11689
asVannex
p11690
(lp11691
S'annex-01'
p11692
asVlean
p11693
(lp11694
S'lean-01'
p11695
asVthank
p11696
(lp11697
S'thank-01'
p11698
asVoverlap
p11699
(lp11700
S'overlap-01'
p11701
asVfloss
p11702
(lp11703
S'floss-01'
p11704
asVpercolate
p11705
(lp11706
S'percolate-01'
p11707
asVsaponify
p11708
(lp11709
S'saponify-01'
p11710
asVcastrate
p11711
(lp11712
S'castrate-01'
p11713
aS'castrate-02'
p11714
aS'castrate-03'
p11715
asVhinder
p11716
(lp11717
S'hinder-01'
p11718
asVpenalize
p11719
(lp11720
S'penalize-01'
p11721
asVpepper
p11722
(lp11723
S'pepper-01'
p11724
asVhose
p11725
(lp11726
S'hose-01'
p11727
asVdisentangle
p11728
(lp11729
S'disentangle-01'
p11730
asVbrawl
p11731
(lp11732
S'brawl-01'
p11733
asVpressure
p11734
(lp11735
S'pressure-01'
p11736
asVhost
p11737
(lp11738
S'host-01'
p11739
asVexpire
p11740
(lp11741
S'expire-01'
p11742
asVlubricate
p11743
(lp11744
S'lubricate-01'
p11745
asVstay
p11746
(lp11747
S'stay-01'
p11748
aS'stay-04'
p11749
asVpaste
p11750
(lp11751
S'paste-01'
p11752
asVslug
p11753
(lp11754
S'slug-01'
p11755
aS'slug-04'
p11756
asVnarrate
p11757
(lp11758
S'narrate-01'
p11759
asVpanel
p11760
(lp11761
S'panel-01'
p11762
asVthrong
p11763
(lp11764
S'throng-01'
p11765
asVredraw
p11766
(lp11767
S'redraw-01'
p11768
asVincline
p11769
(lp11770
S'incline-01'
p11771
asVface
p11772
(lp11773
S'face-01'
p11774
asVoverreach
p11775
(lp11776
S'overreach-02'
p11777
asVflake
p11778
(lp11779
S'flake-01'
p11780
asVidolize
p11781
(lp11782
S'idolize-01'
p11783
asVdecimate
p11784
(lp11785
S'decimate-01'
p11786
asVswear
p11787
(lp11788
S'swear-04'
p11789
asVsweat
p11790
(lp11791
S'sweat-01'
p11792
asVrejuvenate
p11793
(lp11794
S'rejuvenate-01'
p11795
asVfuddle
p11796
(lp11797
S'fuddle-01'
p11798
asVdiscard
p11799
(lp11800
S'discard-01'
p11801
asVcreate
p11802
(lp11803
S'create-01'
p11804
asVown
p11805
(lp11806
S'own-01'
p11807
asVowe
p11808
(lp11809
S'owe-01'
p11810
asVarticulate
p11811
(lp11812
S'articulate-01'
p11813
asVassess
p11814
(lp11815
S'assess-01'
p11816
asVsqueak
p11817
(lp11818
S'squeak-01'
p11819
asVguard
p11820
(lp11821
S'guard-01'
p11822
asVcongregate
p11823
(lp11824
S'congregate-01'
p11825
asVpromise
p11826
(lp11827
S'promise-01'
p11828
asVesteem
p11829
(lp11830
S'esteem-01'
p11831
asVunlatch
p11832
(lp11833
S'unlatch-01'
p11834
asVgurgle
p11835
(lp11836
S'gurgle-01'
p11837
asVgrouse
p11838
(lp11839
S'grouse-01'
p11840
asVadvert
p11841
(lp11842
S'advert-01'
p11843
asVrejoice
p11844
(lp11845
S'rejoice-01'
p11846
asVeffeminate
p11847
(lp11848
S'effeminate-01'
p11849
asVtransfer
p11850
(lp11851
S'transfer-01'
p11852
asVbuckle
p11853
(lp11854
S'buckle-01'
p11855
asVsupport
p11856
(lp11857
S'support-01'
p11858
asVcondense
p11859
(lp11860
S'condense-01'
p11861
asVoverestimate
p11862
(lp11863
S'overestimate-01'
p11864
asVimbibe
p11865
(lp11866
S'imbibe-01'
p11867
asVglimmer
p11868
(lp11869
S'glimmer-01'
p11870
asVresound
p11871
(lp11872
S'resound-01'
p11873
asVfunction
p11874
(lp11875
S'function-01'
p11876
asVappoint
p11877
(lp11878
S'appoint-01'
p11879
asVfunnel
p11880
(lp11881
S'funnel-01'
p11882
asVbuy
p11883
(lp11884
S'buy-01'
p11885
aS'buy-02'
p11886
aS'buy-03'
p11887
asVelate
p11888
(lp11889
S'elate-01'
p11890
asVinterest
p11891
(lp11892
S'interest-01'
p11893
asVbus
p11894
(lp11895
S'bus-01'
p11896
aS'bus-02'
p11897
asVbrand
p11898
(lp11899
S'brand-01'
p11900
asVmutter
p11901
(lp11902
S'mutter-01'
p11903
asVevacuate
p11904
(lp11905
S'evacuate-01'
p11906
asVstipple
p11907
(lp11908
S'stipple-01'
p11909
aS'stipple-02'
p11910
asVadmonish
p11911
(lp11912
S'admonish-01'
p11913
asVplague
p11914
(lp11915
S'plague-01'
p11916
asVgain
p11917
(lp11918
S'gain-01'
p11919
aS'gain-02'
p11920
asVwince
p11921
(lp11922
S'wince-01'
p11923
asVgrate
p11924
(lp11925
S'grate-01'
p11926
aS'grate-02'
p11927
asVassail
p11928
(lp11929
S'assail-01'
p11930
asVsqueeze
p11931
(lp11932
S'squeeze-01'
p11933
aS'squeeze-02'
p11934
asVeat
p11935
(lp11936
S'eat-01'
p11937
aS'eat-02'
p11938
aS'eat-03'
p11939
asVbud
p11940
(lp11941
S'bud-01'
p11942
asVshunt
p11943
(lp11944
S'shunt-01'
p11945
asVcount
p11946
(lp11947
S'count-01'
p11948
aS'count-02'
p11949
aS'count-03'
p11950
aS'count-04'
p11951
asVcompute
p11952
(lp11953
S'compute-01'
p11954
asVglory
p11955
(lp11956
S'glory-01'
p11957
asVflit
p11958
(lp11959
S'flit-01'
p11960
asVembolden
p11961
(lp11962
S'embolden-01'
p11963
asVchaperone
p11964
(lp11965
S'chaperone-01'
p11966
asVflip
p11967
(lp11968
S'flip-01'
p11969
asVdistract
p11970
(lp11971
S'distract-01'
p11972
asVrecord
p11973
(lp11974
S'record-01'
p11975
asVconvince
p11976
(lp11977
S'convince-01'
p11978
asVlimit
p11979
(lp11980
S'limit-01'
p11981
asVrupture
p11982
(lp11983
S'rupture-01'
p11984
asVdemonstrate
p11985
(lp11986
S'demonstrate-01'
p11987
asVveneer
p11988
(lp11989
S'veneer-01'
p11990
asVdisplay
p11991
(lp11992
S'display-01'
p11993
asVappraise
p11994
(lp11995
S'appraise-01'
p11996
aS'appraise-02'
p11997
asVbewail
p11998
(lp11999
S'bewail-01'
p12000
asVcastigate
p12001
(lp12002
S'castigate-01'
p12003
asVpin
p12004
(lp12005
S'pin-01'
p12006
aS'pin-02'
p12007
asVdevise
p12008
(lp12009
S'devise-01'
p12010
asVmask
p12011
(lp12012
S'mask-01'
p12013
asVnobble
p12014
(lp12015
S'nobble-01'
p12016
asVcontribute
p12017
(lp12018
S'contribute-01'
p12019
asVtwist
p12020
(lp12021
S'twist-01'
p12022
asVreferee
p12023
(lp12024
S'referee-01'
p12025
asVink
p12026
(lp12027
S'ink-01'
p12028
aS'ink-02'
p12029
asVpip
p12030
(lp12031
S'pip-01'
p12032
asVpit
p12033
(lp12034
S'pit-02'
p12035
asVspit
p12036
(lp12037
S'spit-01'
p12038
asVglint
p12039
(lp12040
S'glint-01'
p12041
asVdetail
p12042
(lp12043
S'detail-01'
p12044
asVbook
p12045
(lp12046
S'book-01'
p12047
asVboom
p12048
(lp12049
S'boom-01'
p12050
aS'boom-03'
p12051
asVbranch
p12052
(lp12053
S'branch-01'
p12054
aS'branch-02'
p12055
asVhumidify
p12056
(lp12057
S'humidify-01'
p12058
asVbehold
p12059
(lp12060
S'behold-01'
p12061
asVspraypaint
p12062
(lp12063
S'spraypaint-01'
p12064
asVredden
p12065
(lp12066
S'redden-01'
p12067
asVgondola
p12068
(lp12069
S'gondola-01'
p12070
asVlance
p12071
(lp12072
S'lance-01'
p12073
aS'lance-02'
p12074
asVintermarry
p12075
(lp12076
S'intermarry-01'
p12077
asVstar
p12078
(lp12079
S'star-01'
p12080
asVmulch
p12081
(lp12082
S'mulch-01'
p12083
asVdismantle
p12084
(lp12085
S'dismantle-01'
p12086
asVbundle
p12087
(lp12088
S'bundle-01'
p12089
asVfrustrate
p12090
(lp12091
S'frustrate-01'
p12092
asVwallow
p12093
(lp12094
S'wallow-01'
p12095
asVchance
p12096
(lp12097
S'chance-01'
p12098
asVstab
p12099
(lp12100
S'stab-01'
p12101
asVmulct
p12102
(lp12103
S'mulct-01'
p12104
asVwallop
p12105
(lp12106
S'wallop-01'
p12107
asVpacify
p12108
(lp12109
S'pacify-01'
p12110
asVscintillate
p12111
(lp12112
S'scintillate-01'
p12113
asVveil
p12114
(lp12115
S'veil-01'
p12116
asVvein
p12117
(lp12118
S'vein-01'
p12119
asVextort
p12120
(lp12121
S'extort-01'
p12122
asVrope
p12123
(lp12124
S'rope-01'
p12125
asVwhump
p12126
(lp12127
S'whump-01'
p12128
asVramble
p12129
(lp12130
S'ramble-01'
p12131
asVyelp
p12132
(lp12133
S'yelp-01'
p12134
asVfertilize
p12135
(lp12136
S'fertilize-01'
p12137
asVrule
p12138
(lp12139
S'rule-01'
p12140
asVabhor
p12141
(lp12142
S'abhor-01'
p12143
asVentreat
p12144
(lp12145
S'entreat-01'
p12146
asVportion
p12147
(lp12148
S'portion-01'
p12149
asVlift
p12150
(lp12151
S'lift-01'
p12152
aS'lift-02'
p12153
asVcompete
p12154
(lp12155
S'compete-01'
p12156
asVtoddle
p12157
(lp12158
S'toddle-01'
p12159
asVunderstand
p12160
(lp12161
S'understand-01'
p12162
asVyell
p12163
(lp12164
S'yell-01'
p12165
asVdefend
p12166
(lp12167
S'defend-01'
p12168
asVtoboggan
p12169
(lp12170
S'toboggan-01'
p12171
as.